Archive member included because of file (symbol)

C:\Users\Lenovo\AppData\Local\arduino\cores\6384da0a6fa2f70a2504de7ae90f6808\core.a(HardwareSerial.cpp.o)
                              C:\Users\Lenovo\AppData\Local\arduino\sketches\0A1F667BE7A1596EA767C94737D7EA1C\core\board.cpp.o (HardwareSerial::HardwareSerial(usart_dev*, unsigned char, unsigned char))
C:\Users\Lenovo\AppData\Local\arduino\cores\6384da0a6fa2f70a2504de7ae90f6808\core.a(Print.cpp.o)
                              C:\Users\Lenovo\AppData\Local\arduino\cores\6384da0a6fa2f70a2504de7ae90f6808\core.a(HardwareSerial.cpp.o) (Print::write(void const*, unsigned long))
C:\Users\Lenovo\AppData\Local\arduino\cores\6384da0a6fa2f70a2504de7ae90f6808\core.a(cxxabi-compat.cpp.o)
                              C:\Users\Lenovo\AppData\Local\arduino\cores\6384da0a6fa2f70a2504de7ae90f6808\core.a(HardwareSerial.cpp.o) (__cxa_pure_virtual)
C:\Users\Lenovo\AppData\Local\arduino\cores\6384da0a6fa2f70a2504de7ae90f6808\core.a(adc.c.o)
                              C:\Users\Lenovo\AppData\Local\arduino\sketches\0A1F667BE7A1596EA767C94737D7EA1C\core\wirish\boards.cpp.o (adc_set_sample_rate)
C:\Users\Lenovo\AppData\Local\arduino\cores\6384da0a6fa2f70a2504de7ae90f6808\core.a(adc_f1.c.o)
                              (__irq_adc)
C:\Users\Lenovo\AppData\Local\arduino\cores\6384da0a6fa2f70a2504de7ae90f6808\core.a(dma_f1.c.o)
                              (__irq_dma1_channel1)
C:\Users\Lenovo\AppData\Local\arduino\cores\6384da0a6fa2f70a2504de7ae90f6808\core.a(exc.S.o)
                              (__exc_nmi)
C:\Users\Lenovo\AppData\Local\arduino\cores\6384da0a6fa2f70a2504de7ae90f6808\core.a(exti.c.o)
                              (__irq_exti0)
C:\Users\Lenovo\AppData\Local\arduino\cores\6384da0a6fa2f70a2504de7ae90f6808\core.a(exti_f1.c.o)
                              C:\Users\Lenovo\AppData\Local\arduino\cores\6384da0a6fa2f70a2504de7ae90f6808\core.a(exti.c.o) (exti_select)
C:\Users\Lenovo\AppData\Local\arduino\cores\6384da0a6fa2f70a2504de7ae90f6808\core.a(flash.c.o)
                              C:\Users\Lenovo\AppData\Local\arduino\sketches\0A1F667BE7A1596EA767C94737D7EA1C\core\wirish\boards.cpp.o (flash_set_latency)
C:\Users\Lenovo\AppData\Local\arduino\cores\6384da0a6fa2f70a2504de7ae90f6808\core.a(gpio_f1.c.o)
                              C:\Users\Lenovo\AppData\Local\arduino\sketches\0A1F667BE7A1596EA767C94737D7EA1C\core\wirish\boards_setup.cpp.o (gpio_init_all)
C:\Users\Lenovo\AppData\Local\arduino\cores\6384da0a6fa2f70a2504de7ae90f6808\core.a(i2c_f1.c.o)
                              (__irq_i2c1_ev)
C:\Users\Lenovo\AppData\Local\arduino\cores\6384da0a6fa2f70a2504de7ae90f6808\core.a(nvic.c.o)
                              C:\Users\Lenovo\AppData\Local\arduino\cores\6384da0a6fa2f70a2504de7ae90f6808\core.a(i2c_f1.c.o) (nvic_irq_set_priority)
C:\Users\Lenovo\AppData\Local\arduino\cores\6384da0a6fa2f70a2504de7ae90f6808\core.a(rcc.c.o)
                              C:\Users\Lenovo\AppData\Local\arduino\sketches\0A1F667BE7A1596EA767C94737D7EA1C\core\wirish\boards.cpp.o (rcc_switch_sysclk)
C:\Users\Lenovo\AppData\Local\arduino\cores\6384da0a6fa2f70a2504de7ae90f6808\core.a(rcc_f1.c.o)
                              C:\Users\Lenovo\AppData\Local\arduino\sketches\0A1F667BE7A1596EA767C94737D7EA1C\core\wirish\boards.cpp.o (rcc_configure_pll)
C:\Users\Lenovo\AppData\Local\arduino\cores\6384da0a6fa2f70a2504de7ae90f6808\core.a(isrs.S.o)
                              (__stm32reservedexception7)
C:\Users\Lenovo\AppData\Local\arduino\cores\6384da0a6fa2f70a2504de7ae90f6808\core.a(vector_table.S.o)
                              (__stm32_vector_table)
C:\Users\Lenovo\AppData\Local\arduino\cores\6384da0a6fa2f70a2504de7ae90f6808\core.a(systick.c.o)
                              C:\Users\Lenovo\AppData\Local\arduino\sketches\0A1F667BE7A1596EA767C94737D7EA1C\core\wirish\boards.cpp.o (systick_init)
C:\Users\Lenovo\AppData\Local\arduino\cores\6384da0a6fa2f70a2504de7ae90f6808\core.a(timer.c.o)
                              C:\Users\Lenovo\AppData\Local\arduino\sketches\0A1F667BE7A1596EA767C94737D7EA1C\core\wirish\boards.cpp.o (timer_foreach)
C:\Users\Lenovo\AppData\Local\arduino\cores\6384da0a6fa2f70a2504de7ae90f6808\core.a(usart.c.o)
                              C:\Users\Lenovo\AppData\Local\arduino\cores\6384da0a6fa2f70a2504de7ae90f6808\core.a(HardwareSerial.cpp.o) (usart_init)
C:\Users\Lenovo\AppData\Local\arduino\cores\6384da0a6fa2f70a2504de7ae90f6808\core.a(usart_f1.c.o)
                              C:\Users\Lenovo\AppData\Local\arduino\cores\6384da0a6fa2f70a2504de7ae90f6808\core.a(HardwareSerial.cpp.o) (usart_config_gpios_async)
C:\Users\Lenovo\AppData\Local\arduino\cores\6384da0a6fa2f70a2504de7ae90f6808\core.a(usart_private.c.o)
                              C:\Users\Lenovo\AppData\Local\arduino\cores\6384da0a6fa2f70a2504de7ae90f6808\core.a(usart_f1.c.o) (_usart_clock_freq)
C:\Users\Lenovo\AppData\Local\arduino\cores\6384da0a6fa2f70a2504de7ae90f6808\core.a(usb.c.o)
                              (__irq_usb_lp_can_rx0)
C:\Users\Lenovo\AppData\Local\arduino\cores\6384da0a6fa2f70a2504de7ae90f6808\core.a(usb_cdcacm.c.o)
                              C:\Users\Lenovo\AppData\Local\arduino\cores\6384da0a6fa2f70a2504de7ae90f6808\core.a(usb.c.o) (User_Standard_Requests)
C:\Users\Lenovo\AppData\Local\arduino\cores\6384da0a6fa2f70a2504de7ae90f6808\core.a(usb_reg_map.c.o)
                              C:\Users\Lenovo\AppData\Local\arduino\cores\6384da0a6fa2f70a2504de7ae90f6808\core.a(usb_cdcacm.c.o) (usb_set_ep_rx_count)
C:\Users\Lenovo\AppData\Local\arduino\cores\6384da0a6fa2f70a2504de7ae90f6808\core.a(usb_core.c.o)
                              C:\Users\Lenovo\AppData\Local\arduino\cores\6384da0a6fa2f70a2504de7ae90f6808\core.a(usb_cdcacm.c.o) (Standard_GetDescriptorData)
C:\Users\Lenovo\AppData\Local\arduino\cores\6384da0a6fa2f70a2504de7ae90f6808\core.a(usb_init.c.o)
                              C:\Users\Lenovo\AppData\Local\arduino\cores\6384da0a6fa2f70a2504de7ae90f6808\core.a(usb.c.o) (pInformation)
C:\Users\Lenovo\AppData\Local\arduino\cores\6384da0a6fa2f70a2504de7ae90f6808\core.a(usb_mem.c.o)
                              C:\Users\Lenovo\AppData\Local\arduino\cores\6384da0a6fa2f70a2504de7ae90f6808\core.a(usb_core.c.o) (UserToPMABufferCopy)
C:\Users\Lenovo\AppData\Local\arduino\cores\6384da0a6fa2f70a2504de7ae90f6808\core.a(usb_regs.c.o)
                              C:\Users\Lenovo\AppData\Local\arduino\cores\6384da0a6fa2f70a2504de7ae90f6808\core.a(usb_core.c.o) (SetEPTxStatus)
C:\Users\Lenovo\AppData\Local\arduino\cores\6384da0a6fa2f70a2504de7ae90f6808\core.a(util.c.o)
                              C:\Users\Lenovo\AppData\Local\arduino\cores\6384da0a6fa2f70a2504de7ae90f6808\core.a(exc.S.o) (__error)
C:\Users\Lenovo\AppData\Local\arduino\cores\6384da0a6fa2f70a2504de7ae90f6808\core.a(main.cpp.o)
                              (main)
C:\Users\Lenovo\AppData\Local\arduino\cores\6384da0a6fa2f70a2504de7ae90f6808\core.a(wirish_digital_f1.cpp.o)
                              C:\Users\Lenovo\AppData\Local\arduino\sketches\0A1F667BE7A1596EA767C94737D7EA1C\sketch\Lavadora.ino.cpp.o (pinMode(unsigned char, WiringPinMode))
C:\Users\Lenovo\AppData\Local\arduino\cores\6384da0a6fa2f70a2504de7ae90f6808\core.a(wirish_digital.cpp.o)
                              C:\Users\Lenovo\AppData\Local\arduino\sketches\0A1F667BE7A1596EA767C94737D7EA1C\sketch\Lavadora.ino.cpp.o (digitalRead(unsigned char))
C:\Users\Lenovo\AppData\Local\arduino\cores\6384da0a6fa2f70a2504de7ae90f6808\core.a(wirish_time.cpp.o)
                              C:\Users\Lenovo\AppData\Local\arduino\sketches\0A1F667BE7A1596EA767C94737D7EA1C\sketch\SevSeg.cpp.o (delayMicroseconds)
C:\Users\Lenovo\AppData\Local\arduino\cores\6384da0a6fa2f70a2504de7ae90f6808\core.a(hooks.c.o)
                              C:\Users\Lenovo\AppData\Local\arduino\cores\6384da0a6fa2f70a2504de7ae90f6808\core.a(wirish_time.cpp.o) (yield)
C:\Users\Lenovo\AppData\Local\arduino\cores\6384da0a6fa2f70a2504de7ae90f6808\core.a(dma.c.o)
                              C:\Users\Lenovo\AppData\Local\arduino\cores\6384da0a6fa2f70a2504de7ae90f6808\core.a(dma_f1.c.o) (_dma_addr_type)
C:\Users\Lenovo\AppData\Local\arduino\cores\6384da0a6fa2f70a2504de7ae90f6808\core.a(gpio.c.o)
                              C:\Users\Lenovo\AppData\Local\arduino\cores\6384da0a6fa2f70a2504de7ae90f6808\core.a(gpio_f1.c.o) (gpio_init)
C:\Users\Lenovo\AppData\Local\arduino\cores\6384da0a6fa2f70a2504de7ae90f6808\core.a(i2c.c.o)
                              C:\Users\Lenovo\AppData\Local\arduino\cores\6384da0a6fa2f70a2504de7ae90f6808\core.a(i2c_f1.c.o) (_i2c_irq_handler)
c:/users/lenovo/appdata/local/arduino15/packages/arduino/tools/arm-none-eabi-gcc/4.8.3-2014q1/bin/../lib/gcc/arm-none-eabi/4.8.3/armv7-m\libgcc.a(_arm_addsubdf3.o)
                              C:\Users\Lenovo\AppData\Local\arduino\cores\6384da0a6fa2f70a2504de7ae90f6808\core.a(Print.cpp.o) (__aeabi_dsub)
c:/users/lenovo/appdata/local/arduino15/packages/arduino/tools/arm-none-eabi-gcc/4.8.3-2014q1/bin/../lib/gcc/arm-none-eabi/4.8.3/armv7-m\libgcc.a(_arm_muldivdf3.o)
                              C:\Users\Lenovo\AppData\Local\arduino\cores\6384da0a6fa2f70a2504de7ae90f6808\core.a(Print.cpp.o) (__aeabi_dmul)
c:/users/lenovo/appdata/local/arduino15/packages/arduino/tools/arm-none-eabi-gcc/4.8.3-2014q1/bin/../lib/gcc/arm-none-eabi/4.8.3/armv7-m\libgcc.a(_arm_cmpdf2.o)
                              C:\Users\Lenovo\AppData\Local\arduino\cores\6384da0a6fa2f70a2504de7ae90f6808\core.a(Print.cpp.o) (__aeabi_dcmplt)
c:/users/lenovo/appdata/local/arduino15/packages/arduino/tools/arm-none-eabi-gcc/4.8.3-2014q1/bin/../lib/gcc/arm-none-eabi/4.8.3/armv7-m\libgcc.a(_arm_fixdfsi.o)
                              C:\Users\Lenovo\AppData\Local\arduino\cores\6384da0a6fa2f70a2504de7ae90f6808\core.a(Print.cpp.o) (__aeabi_d2iz)
c:/users/lenovo/appdata/local/arduino15/packages/arduino/tools/arm-none-eabi-gcc/4.8.3-2014q1/bin/../lib/gcc/arm-none-eabi/4.8.3/armv7-m\libgcc.a(_arm_addsubsf3.o)
                              C:\Users\Lenovo\AppData\Local\arduino\sketches\0A1F667BE7A1596EA767C94737D7EA1C\sketch\SevSeg.cpp.o (__aeabi_fadd)
c:/users/lenovo/appdata/local/arduino15/packages/arduino/tools/arm-none-eabi-gcc/4.8.3-2014q1/bin/../lib/gcc/arm-none-eabi/4.8.3/armv7-m\libgcc.a(_arm_muldivsf3.o)
                              C:\Users\Lenovo\AppData\Local\arduino\sketches\0A1F667BE7A1596EA767C94737D7EA1C\sketch\SevSeg.cpp.o (__aeabi_fmul)
c:/users/lenovo/appdata/local/arduino15/packages/arduino/tools/arm-none-eabi-gcc/4.8.3-2014q1/bin/../lib/gcc/arm-none-eabi/4.8.3/armv7-m\libgcc.a(_arm_cmpsf2.o)
                              C:\Users\Lenovo\AppData\Local\arduino\sketches\0A1F667BE7A1596EA767C94737D7EA1C\sketch\SevSeg.cpp.o (__aeabi_fcmpge)
c:/users/lenovo/appdata/local/arduino15/packages/arduino/tools/arm-none-eabi-gcc/4.8.3-2014q1/bin/../lib/gcc/arm-none-eabi/4.8.3/armv7-m\libgcc.a(_arm_fixsfsi.o)
                              C:\Users\Lenovo\AppData\Local\arduino\sketches\0A1F667BE7A1596EA767C94737D7EA1C\sketch\SevSeg.cpp.o (__aeabi_f2iz)
c:/users/lenovo/appdata/local/arduino15/packages/arduino/tools/arm-none-eabi-gcc/4.8.3-2014q1/bin/../lib/gcc/arm-none-eabi/4.8.3/armv7-m\libgcc.a(_aeabi_ldivmod.o)
                              C:\Users\Lenovo\AppData\Local\arduino\sketches\0A1F667BE7A1596EA767C94737D7EA1C\sketch\SevSeg.cpp.o (__aeabi_ldivmod)
c:/users/lenovo/appdata/local/arduino15/packages/arduino/tools/arm-none-eabi-gcc/4.8.3-2014q1/bin/../lib/gcc/arm-none-eabi/4.8.3/armv7-m\libgcc.a(_aeabi_uldivmod.o)
                              C:\Users\Lenovo\AppData\Local\arduino\cores\6384da0a6fa2f70a2504de7ae90f6808\core.a(Print.cpp.o) (__aeabi_uldivmod)
c:/users/lenovo/appdata/local/arduino15/packages/arduino/tools/arm-none-eabi-gcc/4.8.3-2014q1/bin/../lib/gcc/arm-none-eabi/4.8.3/armv7-m\libgcc.a(_fixdfdi.o)
                              C:\Users\Lenovo\AppData\Local\arduino\cores\6384da0a6fa2f70a2504de7ae90f6808\core.a(Print.cpp.o) (__aeabi_d2lz)
c:/users/lenovo/appdata/local/arduino15/packages/arduino/tools/arm-none-eabi-gcc/4.8.3-2014q1/bin/../lib/gcc/arm-none-eabi/4.8.3/armv7-m\libgcc.a(_fixunsdfdi.o)
                              c:/users/lenovo/appdata/local/arduino15/packages/arduino/tools/arm-none-eabi-gcc/4.8.3-2014q1/bin/../lib/gcc/arm-none-eabi/4.8.3/armv7-m\libgcc.a(_fixdfdi.o) (__aeabi_d2ulz)
c:/users/lenovo/appdata/local/arduino15/packages/arduino/tools/arm-none-eabi-gcc/4.8.3-2014q1/bin/../lib/gcc/arm-none-eabi/4.8.3/armv7-m\libgcc.a(bpabi.o)
                              c:/users/lenovo/appdata/local/arduino15/packages/arduino/tools/arm-none-eabi-gcc/4.8.3-2014q1/bin/../lib/gcc/arm-none-eabi/4.8.3/armv7-m\libgcc.a(_aeabi_ldivmod.o) (__gnu_ldivmod_helper)
c:/users/lenovo/appdata/local/arduino15/packages/arduino/tools/arm-none-eabi-gcc/4.8.3-2014q1/bin/../lib/gcc/arm-none-eabi/4.8.3/armv7-m\libgcc.a(_dvmd_tls.o)
                              c:/users/lenovo/appdata/local/arduino15/packages/arduino/tools/arm-none-eabi-gcc/4.8.3-2014q1/bin/../lib/gcc/arm-none-eabi/4.8.3/armv7-m\libgcc.a(_aeabi_ldivmod.o) (__aeabi_ldiv0)
c:/users/lenovo/appdata/local/arduino15/packages/arduino/tools/arm-none-eabi-gcc/4.8.3-2014q1/bin/../lib/gcc/arm-none-eabi/4.8.3/armv7-m\libgcc.a(_arm_fixunsdfsi.o)
                              c:/users/lenovo/appdata/local/arduino15/packages/arduino/tools/arm-none-eabi-gcc/4.8.3-2014q1/bin/../lib/gcc/arm-none-eabi/4.8.3/armv7-m\libgcc.a(_fixunsdfdi.o) (__aeabi_d2uiz)
c:/users/lenovo/appdata/local/arduino15/packages/arduino/tools/arm-none-eabi-gcc/4.8.3-2014q1/bin/../lib/gcc/arm-none-eabi/4.8.3/armv7-m\libgcc.a(_divdi3.o)
                              c:/users/lenovo/appdata/local/arduino15/packages/arduino/tools/arm-none-eabi-gcc/4.8.3-2014q1/bin/../lib/gcc/arm-none-eabi/4.8.3/armv7-m\libgcc.a(bpabi.o) (__divdi3)
c:/users/lenovo/appdata/local/arduino15/packages/arduino/tools/arm-none-eabi-gcc/4.8.3-2014q1/bin/../lib/gcc/arm-none-eabi/4.8.3/armv7-m\libgcc.a(_udivdi3.o)
                              c:/users/lenovo/appdata/local/arduino15/packages/arduino/tools/arm-none-eabi-gcc/4.8.3-2014q1/bin/../lib/gcc/arm-none-eabi/4.8.3/armv7-m\libgcc.a(bpabi.o) (__udivdi3)
c:/users/lenovo/appdata/local/arduino15/packages/arduino/tools/arm-none-eabi-gcc/4.8.3-2014q1/bin/../lib/gcc/arm-none-eabi/4.8.3/../../../../arm-none-eabi/lib/armv7-m\libc_s.a(lib_a-errno.o)
                              C:\Users\Lenovo\AppData\Local\arduino\sketches\0A1F667BE7A1596EA767C94737D7EA1C\core\wirish\syscalls.c.o (__errno)
c:/users/lenovo/appdata/local/arduino15/packages/arduino/tools/arm-none-eabi-gcc/4.8.3-2014q1/bin/../lib/gcc/arm-none-eabi/4.8.3/../../../../arm-none-eabi/lib/armv7-m\libc_s.a(lib_a-exit.o)
                              c:/users/lenovo/appdata/local/arduino15/packages/arduino/tools/arm-none-eabi-gcc/4.8.3-2014q1/bin/../lib/gcc/arm-none-eabi/4.8.3/../../../../arm-none-eabi/lib/armv7-m/crt0.o (exit)
c:/users/lenovo/appdata/local/arduino15/packages/arduino/tools/arm-none-eabi-gcc/4.8.3-2014q1/bin/../lib/gcc/arm-none-eabi/4.8.3/../../../../arm-none-eabi/lib/armv7-m\libc_s.a(lib_a-impure.o)
                              c:/users/lenovo/appdata/local/arduino15/packages/arduino/tools/arm-none-eabi-gcc/4.8.3-2014q1/bin/../lib/gcc/arm-none-eabi/4.8.3/../../../../arm-none-eabi/lib/armv7-m\libc_s.a(lib_a-exit.o) (_global_impure_ptr)
c:/users/lenovo/appdata/local/arduino15/packages/arduino/tools/arm-none-eabi-gcc/4.8.3-2014q1/bin/../lib/gcc/arm-none-eabi/4.8.3/../../../../arm-none-eabi/lib/armv7-m\libc_s.a(lib_a-init.o)
                              c:/users/lenovo/appdata/local/arduino15/packages/arduino/tools/arm-none-eabi-gcc/4.8.3-2014q1/bin/../lib/gcc/arm-none-eabi/4.8.3/../../../../arm-none-eabi/lib/armv7-m/crt0.o (__libc_init_array)
c:/users/lenovo/appdata/local/arduino15/packages/arduino/tools/arm-none-eabi-gcc/4.8.3-2014q1/bin/../lib/gcc/arm-none-eabi/4.8.3/../../../../arm-none-eabi/lib/armv7-m\libc_s.a(lib_a-memset.o)
                              c:/users/lenovo/appdata/local/arduino15/packages/arduino/tools/arm-none-eabi-gcc/4.8.3-2014q1/bin/../lib/gcc/arm-none-eabi/4.8.3/../../../../arm-none-eabi/lib/armv7-m/crt0.o (memset)
c:/users/lenovo/appdata/local/arduino15/packages/arduino/tools/arm-none-eabi-gcc/4.8.3-2014q1/bin/../lib/gcc/arm-none-eabi/4.8.3/../../../../arm-none-eabi/lib/armv7-m\libc_s.a(lib_a-strcpy.o)
                              C:\Users\Lenovo\AppData\Local\arduino\cores\6384da0a6fa2f70a2504de7ae90f6808\core.a(cxxabi-compat.cpp.o) (strcpy)
c:/users/lenovo/appdata/local/arduino15/packages/arduino/tools/arm-none-eabi-gcc/4.8.3-2014q1/bin/../lib/gcc/arm-none-eabi/4.8.3/../../../../arm-none-eabi/lib/armv7-m\libc_s.a(lib_a-strlen.o)
                              C:\Users\Lenovo\AppData\Local\arduino\cores\6384da0a6fa2f70a2504de7ae90f6808\core.a(Print.cpp.o) (strlen)

Allocating common symbols
Common symbol       size              file

SaveRState          0x2               C:\Users\Lenovo\AppData\Local\arduino\cores\6384da0a6fa2f70a2504de7ae90f6808\core.a(usb.c.o)
SaveState           0x2               C:\Users\Lenovo\AppData\Local\arduino\cores\6384da0a6fa2f70a2504de7ae90f6808\core.a(usb_init.c.o)
pProperty           0x4               C:\Users\Lenovo\AppData\Local\arduino\cores\6384da0a6fa2f70a2504de7ae90f6808\core.a(usb_init.c.o)
EPindex             0x1               C:\Users\Lenovo\AppData\Local\arduino\cores\6384da0a6fa2f70a2504de7ae90f6808\core.a(usb_init.c.o)
SaveTState          0x2               C:\Users\Lenovo\AppData\Local\arduino\cores\6384da0a6fa2f70a2504de7ae90f6808\core.a(usb.c.o)
systick_uptime_millis
                    0x4               C:\Users\Lenovo\AppData\Local\arduino\cores\6384da0a6fa2f70a2504de7ae90f6808\core.a(systick.c.o)
Device_Info         0x1c              C:\Users\Lenovo\AppData\Local\arduino\cores\6384da0a6fa2f70a2504de7ae90f6808\core.a(usb_init.c.o)
pUser_Standard_Requests
                    0x4               C:\Users\Lenovo\AppData\Local\arduino\cores\6384da0a6fa2f70a2504de7ae90f6808\core.a(usb_init.c.o)
StatusInfo          0x2               C:\Users\Lenovo\AppData\Local\arduino\cores\6384da0a6fa2f70a2504de7ae90f6808\core.a(usb_core.c.o)
pInformation        0x4               C:\Users\Lenovo\AppData\Local\arduino\cores\6384da0a6fa2f70a2504de7ae90f6808\core.a(usb_init.c.o)
ResumeS             0x2               C:\Users\Lenovo\AppData\Local\arduino\cores\6384da0a6fa2f70a2504de7ae90f6808\core.a(usb.c.o)
wInterrupt_Mask     0x2               C:\Users\Lenovo\AppData\Local\arduino\cores\6384da0a6fa2f70a2504de7ae90f6808\core.a(usb_init.c.o)

Discarded input sections

 .text          0x00000000        0x0 c:/users/lenovo/appdata/local/arduino15/packages/arduino/tools/arm-none-eabi-gcc/4.8.3-2014q1/bin/../lib/gcc/arm-none-eabi/4.8.3/armv7-m/crti.o
 .data          0x00000000        0x0 c:/users/lenovo/appdata/local/arduino15/packages/arduino/tools/arm-none-eabi-gcc/4.8.3-2014q1/bin/../lib/gcc/arm-none-eabi/4.8.3/armv7-m/crti.o
 .bss           0x00000000        0x0 c:/users/lenovo/appdata/local/arduino15/packages/arduino/tools/arm-none-eabi-gcc/4.8.3-2014q1/bin/../lib/gcc/arm-none-eabi/4.8.3/armv7-m/crti.o
 .data          0x00000000        0x4 c:/users/lenovo/appdata/local/arduino15/packages/arduino/tools/arm-none-eabi-gcc/4.8.3-2014q1/bin/../lib/gcc/arm-none-eabi/4.8.3/armv7-m/crtbegin.o
 .text          0x00000000       0x74 c:/users/lenovo/appdata/local/arduino15/packages/arduino/tools/arm-none-eabi-gcc/4.8.3-2014q1/bin/../lib/gcc/arm-none-eabi/4.8.3/../../../../arm-none-eabi/lib/armv7-m/crt0.o
 .data          0x00000000        0x0 c:/users/lenovo/appdata/local/arduino15/packages/arduino/tools/arm-none-eabi-gcc/4.8.3-2014q1/bin/../lib/gcc/arm-none-eabi/4.8.3/../../../../arm-none-eabi/lib/armv7-m/crt0.o
 .bss           0x00000000        0x0 c:/users/lenovo/appdata/local/arduino15/packages/arduino/tools/arm-none-eabi-gcc/4.8.3-2014q1/bin/../lib/gcc/arm-none-eabi/4.8.3/../../../../arm-none-eabi/lib/armv7-m/crt0.o
 .ARM.extab     0x00000000        0x0 c:/users/lenovo/appdata/local/arduino15/packages/arduino/tools/arm-none-eabi-gcc/4.8.3-2014q1/bin/../lib/gcc/arm-none-eabi/4.8.3/../../../../arm-none-eabi/lib/armv7-m/crt0.o
 .ARM.exidx     0x00000000        0x8 c:/users/lenovo/appdata/local/arduino15/packages/arduino/tools/arm-none-eabi-gcc/4.8.3-2014q1/bin/../lib/gcc/arm-none-eabi/4.8.3/../../../../arm-none-eabi/lib/armv7-m/crt0.o
 .text          0x00000000        0x0 C:\Users\Lenovo\AppData\Local\arduino\sketches\0A1F667BE7A1596EA767C94737D7EA1C\sketch\Lavadora.ino.cpp.o
 .data          0x00000000        0x0 C:\Users\Lenovo\AppData\Local\arduino\sketches\0A1F667BE7A1596EA767C94737D7EA1C\sketch\Lavadora.ino.cpp.o
 .bss           0x00000000        0x0 C:\Users\Lenovo\AppData\Local\arduino\sketches\0A1F667BE7A1596EA767C94737D7EA1C\sketch\Lavadora.ino.cpp.o
 .bss.lastDebounceTimeNivelAgua
                0x00000000        0x4 C:\Users\Lenovo\AppData\Local\arduino\sketches\0A1F667BE7A1596EA767C94737D7EA1C\sketch\Lavadora.ino.cpp.o
 .bss.lastDebounceTimeLavado
                0x00000000        0x4 C:\Users\Lenovo\AppData\Local\arduino\sketches\0A1F667BE7A1596EA767C94737D7EA1C\sketch\Lavadora.ino.cpp.o
 .bss.lastDebounceTimeCentrifugado
                0x00000000        0x4 C:\Users\Lenovo\AppData\Local\arduino\sketches\0A1F667BE7A1596EA767C94737D7EA1C\sketch\Lavadora.ino.cpp.o
 .bss.lastDebounceTimeEnjuague
                0x00000000        0x4 C:\Users\Lenovo\AppData\Local\arduino\sketches\0A1F667BE7A1596EA767C94737D7EA1C\sketch\Lavadora.ino.cpp.o
 .text          0x00000000        0x0 C:\Users\Lenovo\AppData\Local\arduino\sketches\0A1F667BE7A1596EA767C94737D7EA1C\sketch\SevSeg.cpp.o
 .data          0x00000000        0x0 C:\Users\Lenovo\AppData\Local\arduino\sketches\0A1F667BE7A1596EA767C94737D7EA1C\sketch\SevSeg.cpp.o
 .bss           0x00000000        0x0 C:\Users\Lenovo\AppData\Local\arduino\sketches\0A1F667BE7A1596EA767C94737D7EA1C\sketch\SevSeg.cpp.o
 .text._ZN6SevSeg11setSegmentsEPKh
                0x00000000       0x18 C:\Users\Lenovo\AppData\Local\arduino\sketches\0A1F667BE7A1596EA767C94737D7EA1C\sketch\SevSeg.cpp.o
 .text._ZN6SevSeg16setSegmentsDigitEhh
                0x00000000        0xc C:\Users\Lenovo\AppData\Local\arduino\sketches\0A1F667BE7A1596EA767C94737D7EA1C\sketch\SevSeg.cpp.o
 .text._ZN6SevSeg11getSegmentsEPh
                0x00000000       0x1a C:\Users\Lenovo\AppData\Local\arduino\sketches\0A1F667BE7A1596EA767C94737D7EA1C\sketch\SevSeg.cpp.o
 .text._ZN6SevSeg10setNumberFEfab
                0x00000000       0x64 C:\Users\Lenovo\AppData\Local\arduino\sketches\0A1F667BE7A1596EA767C94737D7EA1C\sketch\SevSeg.cpp.o
 .text          0x00000000        0x0 C:\Users\Lenovo\AppData\Local\arduino\sketches\0A1F667BE7A1596EA767C94737D7EA1C\core\board.cpp.o
 .data          0x00000000        0x0 C:\Users\Lenovo\AppData\Local\arduino\sketches\0A1F667BE7A1596EA767C94737D7EA1C\core\board.cpp.o
 .bss           0x00000000        0x0 C:\Users\Lenovo\AppData\Local\arduino\sketches\0A1F667BE7A1596EA767C94737D7EA1C\core\board.cpp.o
 .USER_FLASH    0x00000000       0x1d C:\Users\Lenovo\AppData\Local\arduino\sketches\0A1F667BE7A1596EA767C94737D7EA1C\core\board.cpp.o
 .text          0x00000000        0x0 C:\Users\Lenovo\AppData\Local\arduino\sketches\0A1F667BE7A1596EA767C94737D7EA1C\core\wirish\boards.cpp.o
 .data          0x00000000        0x0 C:\Users\Lenovo\AppData\Local\arduino\sketches\0A1F667BE7A1596EA767C94737D7EA1C\core\wirish\boards.cpp.o
 .bss           0x00000000        0x0 C:\Users\Lenovo\AppData\Local\arduino\sketches\0A1F667BE7A1596EA767C94737D7EA1C\core\wirish\boards.cpp.o
 .text._Z9boardInitv
                0x00000000        0x2 C:\Users\Lenovo\AppData\Local\arduino\sketches\0A1F667BE7A1596EA767C94737D7EA1C\core\wirish\boards.cpp.o
 .text._Z12boardUsesPinh
                0x00000000       0x1c C:\Users\Lenovo\AppData\Local\arduino\sketches\0A1F667BE7A1596EA767C94737D7EA1C\core\wirish\boards.cpp.o
 .text          0x00000000        0x0 C:\Users\Lenovo\AppData\Local\arduino\sketches\0A1F667BE7A1596EA767C94737D7EA1C\core\wirish\boards_setup.cpp.o
 .data          0x00000000        0x0 C:\Users\Lenovo\AppData\Local\arduino\sketches\0A1F667BE7A1596EA767C94737D7EA1C\core\wirish\boards_setup.cpp.o
 .bss           0x00000000        0x0 C:\Users\Lenovo\AppData\Local\arduino\sketches\0A1F667BE7A1596EA767C94737D7EA1C\core\wirish\boards_setup.cpp.o
 .data          0x00000000        0x0 C:\Users\Lenovo\AppData\Local\arduino\sketches\0A1F667BE7A1596EA767C94737D7EA1C\core\wirish\start.S.o
 .bss           0x00000000        0x0 C:\Users\Lenovo\AppData\Local\arduino\sketches\0A1F667BE7A1596EA767C94737D7EA1C\core\wirish\start.S.o
 .ARM.extab     0x00000000        0x0 C:\Users\Lenovo\AppData\Local\arduino\sketches\0A1F667BE7A1596EA767C94737D7EA1C\core\wirish\start.S.o
 .text          0x00000000        0x0 C:\Users\Lenovo\AppData\Local\arduino\sketches\0A1F667BE7A1596EA767C94737D7EA1C\core\wirish\start_c.c.o
 .data          0x00000000        0x0 C:\Users\Lenovo\AppData\Local\arduino\sketches\0A1F667BE7A1596EA767C94737D7EA1C\core\wirish\start_c.c.o
 .bss           0x00000000        0x0 C:\Users\Lenovo\AppData\Local\arduino\sketches\0A1F667BE7A1596EA767C94737D7EA1C\core\wirish\start_c.c.o
 .text          0x00000000        0x0 C:\Users\Lenovo\AppData\Local\arduino\sketches\0A1F667BE7A1596EA767C94737D7EA1C\core\wirish\syscalls.c.o
 .data          0x00000000        0x0 C:\Users\Lenovo\AppData\Local\arduino\sketches\0A1F667BE7A1596EA767C94737D7EA1C\core\wirish\syscalls.c.o
 .bss           0x00000000        0x0 C:\Users\Lenovo\AppData\Local\arduino\sketches\0A1F667BE7A1596EA767C94737D7EA1C\core\wirish\syscalls.c.o
 .text._sbrk    0x00000000       0x44 C:\Users\Lenovo\AppData\Local\arduino\sketches\0A1F667BE7A1596EA767C94737D7EA1C\core\wirish\syscalls.c.o
 .text._open    0x00000000        0x8 C:\Users\Lenovo\AppData\Local\arduino\sketches\0A1F667BE7A1596EA767C94737D7EA1C\core\wirish\syscalls.c.o
 .text._close   0x00000000        0x4 C:\Users\Lenovo\AppData\Local\arduino\sketches\0A1F667BE7A1596EA767C94737D7EA1C\core\wirish\syscalls.c.o
 .text._fstat   0x00000000        0xa C:\Users\Lenovo\AppData\Local\arduino\sketches\0A1F667BE7A1596EA767C94737D7EA1C\core\wirish\syscalls.c.o
 .text._isatty  0x00000000        0x4 C:\Users\Lenovo\AppData\Local\arduino\sketches\0A1F667BE7A1596EA767C94737D7EA1C\core\wirish\syscalls.c.o
 .text.isatty   0x00000000        0x4 C:\Users\Lenovo\AppData\Local\arduino\sketches\0A1F667BE7A1596EA767C94737D7EA1C\core\wirish\syscalls.c.o
 .text._lseek   0x00000000        0x6 C:\Users\Lenovo\AppData\Local\arduino\sketches\0A1F667BE7A1596EA767C94737D7EA1C\core\wirish\syscalls.c.o
 .text.getch    0x00000000        0x4 C:\Users\Lenovo\AppData\Local\arduino\sketches\0A1F667BE7A1596EA767C94737D7EA1C\core\wirish\syscalls.c.o
 .text._read    0x00000000        0xe C:\Users\Lenovo\AppData\Local\arduino\sketches\0A1F667BE7A1596EA767C94737D7EA1C\core\wirish\syscalls.c.o
 .text.putch    0x00000000        0x2 C:\Users\Lenovo\AppData\Local\arduino\sketches\0A1F667BE7A1596EA767C94737D7EA1C\core\wirish\syscalls.c.o
 .text.cgets    0x00000000       0x78 C:\Users\Lenovo\AppData\Local\arduino\sketches\0A1F667BE7A1596EA767C94737D7EA1C\core\wirish\syscalls.c.o
 .text._write   0x00000000       0x1a C:\Users\Lenovo\AppData\Local\arduino\sketches\0A1F667BE7A1596EA767C94737D7EA1C\core\wirish\syscalls.c.o
 .text.fgets    0x00000000        0xc C:\Users\Lenovo\AppData\Local\arduino\sketches\0A1F667BE7A1596EA767C94737D7EA1C\core\wirish\syscalls.c.o
 .bss.pbreak.4444
                0x00000000        0x4 C:\Users\Lenovo\AppData\Local\arduino\sketches\0A1F667BE7A1596EA767C94737D7EA1C\core\wirish\syscalls.c.o
 .group         0x00000000        0x8 C:\Users\Lenovo\AppData\Local\arduino\cores\6384da0a6fa2f70a2504de7ae90f6808\core.a(HardwareSerial.cpp.o)
 .text          0x00000000        0x0 C:\Users\Lenovo\AppData\Local\arduino\cores\6384da0a6fa2f70a2504de7ae90f6808\core.a(HardwareSerial.cpp.o)
 .data          0x00000000        0x0 C:\Users\Lenovo\AppData\Local\arduino\cores\6384da0a6fa2f70a2504de7ae90f6808\core.a(HardwareSerial.cpp.o)
 .bss           0x00000000        0x0 C:\Users\Lenovo\AppData\Local\arduino\cores\6384da0a6fa2f70a2504de7ae90f6808\core.a(HardwareSerial.cpp.o)
 .text._ZN14HardwareSerial5beginEmh
                0x00000000       0x78 C:\Users\Lenovo\AppData\Local\arduino\cores\6384da0a6fa2f70a2504de7ae90f6808\core.a(HardwareSerial.cpp.o)
 .text._ZN14HardwareSerial5beginEm
                0x00000000        0x6 C:\Users\Lenovo\AppData\Local\arduino\cores\6384da0a6fa2f70a2504de7ae90f6808\core.a(HardwareSerial.cpp.o)
 .text._ZN14HardwareSerial3endEv
                0x00000000        0x6 C:\Users\Lenovo\AppData\Local\arduino\cores\6384da0a6fa2f70a2504de7ae90f6808\core.a(HardwareSerial.cpp.o)
 .text._ZN14HardwareSerial17availableForWriteEv
                0x00000000       0x12 C:\Users\Lenovo\AppData\Local\arduino\cores\6384da0a6fa2f70a2504de7ae90f6808\core.a(HardwareSerial.cpp.o)
 .rodata._ZTV6Stream
                0x00000000       0x28 C:\Users\Lenovo\AppData\Local\arduino\cores\6384da0a6fa2f70a2504de7ae90f6808\core.a(HardwareSerial.cpp.o)
 .text          0x00000000        0x0 C:\Users\Lenovo\AppData\Local\arduino\cores\6384da0a6fa2f70a2504de7ae90f6808\core.a(Print.cpp.o)
 .data          0x00000000        0x0 C:\Users\Lenovo\AppData\Local\arduino\cores\6384da0a6fa2f70a2504de7ae90f6808\core.a(Print.cpp.o)
 .bss           0x00000000        0x0 C:\Users\Lenovo\AppData\Local\arduino\cores\6384da0a6fa2f70a2504de7ae90f6808\core.a(Print.cpp.o)
 .text._ZN5Print5printERK6String
                0x00000000       0x10 C:\Users\Lenovo\AppData\Local\arduino\cores\6384da0a6fa2f70a2504de7ae90f6808\core.a(Print.cpp.o)
 .text._ZN5Print5printEc
                0x00000000        0xa C:\Users\Lenovo\AppData\Local\arduino\cores\6384da0a6fa2f70a2504de7ae90f6808\core.a(Print.cpp.o)
 .text._ZN5Print5printEPKc
                0x00000000        0xa C:\Users\Lenovo\AppData\Local\arduino\cores\6384da0a6fa2f70a2504de7ae90f6808\core.a(Print.cpp.o)
 .text._ZN5Print5printEPK19__FlashStringHelper
                0x00000000        0x4 C:\Users\Lenovo\AppData\Local\arduino\cores\6384da0a6fa2f70a2504de7ae90f6808\core.a(Print.cpp.o)
 .text._ZN5Print5printERK9Printable
                0x00000000       0x10 C:\Users\Lenovo\AppData\Local\arduino\cores\6384da0a6fa2f70a2504de7ae90f6808\core.a(Print.cpp.o)
 .text._ZN5Print7printlnEv
                0x00000000       0x18 C:\Users\Lenovo\AppData\Local\arduino\cores\6384da0a6fa2f70a2504de7ae90f6808\core.a(Print.cpp.o)
 .text._ZN5Print7printlnERK6String
                0x00000000       0x14 C:\Users\Lenovo\AppData\Local\arduino\cores\6384da0a6fa2f70a2504de7ae90f6808\core.a(Print.cpp.o)
 .text._ZN5Print7printlnEc
                0x00000000       0x14 C:\Users\Lenovo\AppData\Local\arduino\cores\6384da0a6fa2f70a2504de7ae90f6808\core.a(Print.cpp.o)
 .text._ZN5Print7printlnEPKc
                0x00000000       0x14 C:\Users\Lenovo\AppData\Local\arduino\cores\6384da0a6fa2f70a2504de7ae90f6808\core.a(Print.cpp.o)
 .text._ZN5Print7printlnEPK19__FlashStringHelper
                0x00000000       0x14 C:\Users\Lenovo\AppData\Local\arduino\cores\6384da0a6fa2f70a2504de7ae90f6808\core.a(Print.cpp.o)
 .text._ZN5Print7printlnERK9Printable
                0x00000000       0x14 C:\Users\Lenovo\AppData\Local\arduino\cores\6384da0a6fa2f70a2504de7ae90f6808\core.a(Print.cpp.o)
 .text._ZN5Print11printNumberEyh
                0x00000000       0x84 C:\Users\Lenovo\AppData\Local\arduino\cores\6384da0a6fa2f70a2504de7ae90f6808\core.a(Print.cpp.o)
 .text._ZN5Print5printExi
                0x00000000       0x32 C:\Users\Lenovo\AppData\Local\arduino\cores\6384da0a6fa2f70a2504de7ae90f6808\core.a(Print.cpp.o)
 .text._ZN5Print5printEii
                0x00000000       0x12 C:\Users\Lenovo\AppData\Local\arduino\cores\6384da0a6fa2f70a2504de7ae90f6808\core.a(Print.cpp.o)
 .text._ZN5Print7printlnEii
                0x00000000       0x14 C:\Users\Lenovo\AppData\Local\arduino\cores\6384da0a6fa2f70a2504de7ae90f6808\core.a(Print.cpp.o)
 .text._ZN5Print5printEli
                0x00000000       0x12 C:\Users\Lenovo\AppData\Local\arduino\cores\6384da0a6fa2f70a2504de7ae90f6808\core.a(Print.cpp.o)
 .text._ZN5Print7printlnEli
                0x00000000       0x1c C:\Users\Lenovo\AppData\Local\arduino\cores\6384da0a6fa2f70a2504de7ae90f6808\core.a(Print.cpp.o)
 .text._ZN5Print7printlnExi
                0x00000000       0x1a C:\Users\Lenovo\AppData\Local\arduino\cores\6384da0a6fa2f70a2504de7ae90f6808\core.a(Print.cpp.o)
 .text._ZN5Print5printEyi
                0x00000000        0xa C:\Users\Lenovo\AppData\Local\arduino\cores\6384da0a6fa2f70a2504de7ae90f6808\core.a(Print.cpp.o)
 .text._ZN5Print5printEhi
                0x00000000       0x14 C:\Users\Lenovo\AppData\Local\arduino\cores\6384da0a6fa2f70a2504de7ae90f6808\core.a(Print.cpp.o)
 .text._ZN5Print7printlnEhi
                0x00000000       0x14 C:\Users\Lenovo\AppData\Local\arduino\cores\6384da0a6fa2f70a2504de7ae90f6808\core.a(Print.cpp.o)
 .text._ZN5Print5printEji
                0x00000000       0x14 C:\Users\Lenovo\AppData\Local\arduino\cores\6384da0a6fa2f70a2504de7ae90f6808\core.a(Print.cpp.o)
 .text._ZN5Print7printlnEji
                0x00000000       0x14 C:\Users\Lenovo\AppData\Local\arduino\cores\6384da0a6fa2f70a2504de7ae90f6808\core.a(Print.cpp.o)
 .text._ZN5Print5printEmi
                0x00000000       0x14 C:\Users\Lenovo\AppData\Local\arduino\cores\6384da0a6fa2f70a2504de7ae90f6808\core.a(Print.cpp.o)
 .text._ZN5Print7printlnEmi
                0x00000000       0x1e C:\Users\Lenovo\AppData\Local\arduino\cores\6384da0a6fa2f70a2504de7ae90f6808\core.a(Print.cpp.o)
 .text._ZN5Print7printlnEyi
                0x00000000       0x1c C:\Users\Lenovo\AppData\Local\arduino\cores\6384da0a6fa2f70a2504de7ae90f6808\core.a(Print.cpp.o)
 .text._ZN5Print10printFloatEdh
                0x00000000      0x158 C:\Users\Lenovo\AppData\Local\arduino\cores\6384da0a6fa2f70a2504de7ae90f6808\core.a(Print.cpp.o)
 .text._ZN5Print5printEdi
                0x00000000        0xa C:\Users\Lenovo\AppData\Local\arduino\cores\6384da0a6fa2f70a2504de7ae90f6808\core.a(Print.cpp.o)
 .text._ZN5Print7printlnEdi
                0x00000000       0x1c C:\Users\Lenovo\AppData\Local\arduino\cores\6384da0a6fa2f70a2504de7ae90f6808\core.a(Print.cpp.o)
 .rodata._ZTV5Print
                0x00000000       0x18 C:\Users\Lenovo\AppData\Local\arduino\cores\6384da0a6fa2f70a2504de7ae90f6808\core.a(Print.cpp.o)
 .rodata.str1.1
                0x00000000       0x11 C:\Users\Lenovo\AppData\Local\arduino\cores\6384da0a6fa2f70a2504de7ae90f6808\core.a(Print.cpp.o)
 .text          0x00000000        0x0 C:\Users\Lenovo\AppData\Local\arduino\cores\6384da0a6fa2f70a2504de7ae90f6808\core.a(cxxabi-compat.cpp.o)
 .data          0x00000000        0x0 C:\Users\Lenovo\AppData\Local\arduino\cores\6384da0a6fa2f70a2504de7ae90f6808\core.a(cxxabi-compat.cpp.o)
 .bss           0x00000000        0x0 C:\Users\Lenovo\AppData\Local\arduino\cores\6384da0a6fa2f70a2504de7ae90f6808\core.a(cxxabi-compat.cpp.o)
 .text.__cxa_pure_virtual
                0x00000000        0x2 C:\Users\Lenovo\AppData\Local\arduino\cores\6384da0a6fa2f70a2504de7ae90f6808\core.a(cxxabi-compat.cpp.o)
 .text.__cxa_demangle
                0x00000000        0xc C:\Users\Lenovo\AppData\Local\arduino\cores\6384da0a6fa2f70a2504de7ae90f6808\core.a(cxxabi-compat.cpp.o)
 .text          0x00000000        0x0 C:\Users\Lenovo\AppData\Local\arduino\cores\6384da0a6fa2f70a2504de7ae90f6808\core.a(adc.c.o)
 .data          0x00000000        0x0 C:\Users\Lenovo\AppData\Local\arduino\cores\6384da0a6fa2f70a2504de7ae90f6808\core.a(adc.c.o)
 .bss           0x00000000        0x0 C:\Users\Lenovo\AppData\Local\arduino\cores\6384da0a6fa2f70a2504de7ae90f6808\core.a(adc.c.o)
 .text.adc_read
                0x00000000       0x20 C:\Users\Lenovo\AppData\Local\arduino\cores\6384da0a6fa2f70a2504de7ae90f6808\core.a(adc.c.o)
 .text          0x00000000        0x0 C:\Users\Lenovo\AppData\Local\arduino\cores\6384da0a6fa2f70a2504de7ae90f6808\core.a(adc_f1.c.o)
 .data          0x00000000        0x0 C:\Users\Lenovo\AppData\Local\arduino\cores\6384da0a6fa2f70a2504de7ae90f6808\core.a(adc_f1.c.o)
 .bss           0x00000000        0x0 C:\Users\Lenovo\AppData\Local\arduino\cores\6384da0a6fa2f70a2504de7ae90f6808\core.a(adc_f1.c.o)
 .text.adc_enable_irq
                0x00000000       0x30 C:\Users\Lenovo\AppData\Local\arduino\cores\6384da0a6fa2f70a2504de7ae90f6808\core.a(adc_f1.c.o)
 .text.adc_attach_interrupt
                0x00000000        0xa C:\Users\Lenovo\AppData\Local\arduino\cores\6384da0a6fa2f70a2504de7ae90f6808\core.a(adc_f1.c.o)
 .text.adc_config_gpio
                0x00000000        0xa C:\Users\Lenovo\AppData\Local\arduino\cores\6384da0a6fa2f70a2504de7ae90f6808\core.a(adc_f1.c.o)
 .text          0x00000000        0x0 C:\Users\Lenovo\AppData\Local\arduino\cores\6384da0a6fa2f70a2504de7ae90f6808\core.a(dma_f1.c.o)
 .data          0x00000000        0x0 C:\Users\Lenovo\AppData\Local\arduino\cores\6384da0a6fa2f70a2504de7ae90f6808\core.a(dma_f1.c.o)
 .bss           0x00000000        0x0 C:\Users\Lenovo\AppData\Local\arduino\cores\6384da0a6fa2f70a2504de7ae90f6808\core.a(dma_f1.c.o)
 .text.dma_set_priority
                0x00000000       0x18 C:\Users\Lenovo\AppData\Local\arduino\cores\6384da0a6fa2f70a2504de7ae90f6808\core.a(dma_f1.c.o)
 .text.dma_set_num_transfers
                0x00000000       0x10 C:\Users\Lenovo\AppData\Local\arduino\cores\6384da0a6fa2f70a2504de7ae90f6808\core.a(dma_f1.c.o)
 .text.dma_attach_interrupt
                0x00000000       0x40 C:\Users\Lenovo\AppData\Local\arduino\cores\6384da0a6fa2f70a2504de7ae90f6808\core.a(dma_f1.c.o)
 .text.dma_detach_interrupt
                0x00000000       0x60 C:\Users\Lenovo\AppData\Local\arduino\cores\6384da0a6fa2f70a2504de7ae90f6808\core.a(dma_f1.c.o)
 .text.dma_enable
                0x00000000       0x18 C:\Users\Lenovo\AppData\Local\arduino\cores\6384da0a6fa2f70a2504de7ae90f6808\core.a(dma_f1.c.o)
 .text.dma_disable
                0x00000000       0x18 C:\Users\Lenovo\AppData\Local\arduino\cores\6384da0a6fa2f70a2504de7ae90f6808\core.a(dma_f1.c.o)
 .text.dma_tube_cfg
                0x00000000      0x15c C:\Users\Lenovo\AppData\Local\arduino\cores\6384da0a6fa2f70a2504de7ae90f6808\core.a(dma_f1.c.o)
 .text.dma_get_irq_cause
                0x00000000       0x3c C:\Users\Lenovo\AppData\Local\arduino\cores\6384da0a6fa2f70a2504de7ae90f6808\core.a(dma_f1.c.o)
 .text.dma_set_mem_addr
                0x00000000       0x10 C:\Users\Lenovo\AppData\Local\arduino\cores\6384da0a6fa2f70a2504de7ae90f6808\core.a(dma_f1.c.o)
 .text.dma_set_per_addr
                0x00000000       0x10 C:\Users\Lenovo\AppData\Local\arduino\cores\6384da0a6fa2f70a2504de7ae90f6808\core.a(dma_f1.c.o)
 .text.dma_setup_transfer
                0x00000000       0x36 C:\Users\Lenovo\AppData\Local\arduino\cores\6384da0a6fa2f70a2504de7ae90f6808\core.a(dma_f1.c.o)
 .bss.dma2Ch4_5
                0x00000000        0x4 C:\Users\Lenovo\AppData\Local\arduino\cores\6384da0a6fa2f70a2504de7ae90f6808\core.a(dma_f1.c.o)
 .data          0x00000000        0x0 C:\Users\Lenovo\AppData\Local\arduino\cores\6384da0a6fa2f70a2504de7ae90f6808\core.a(exc.S.o)
 .bss           0x00000000        0x0 C:\Users\Lenovo\AppData\Local\arduino\cores\6384da0a6fa2f70a2504de7ae90f6808\core.a(exc.S.o)
 .text          0x00000000        0x0 C:\Users\Lenovo\AppData\Local\arduino\cores\6384da0a6fa2f70a2504de7ae90f6808\core.a(exti.c.o)
 .data          0x00000000        0x0 C:\Users\Lenovo\AppData\Local\arduino\cores\6384da0a6fa2f70a2504de7ae90f6808\core.a(exti.c.o)
 .bss           0x00000000        0x0 C:\Users\Lenovo\AppData\Local\arduino\cores\6384da0a6fa2f70a2504de7ae90f6808\core.a(exti.c.o)
 .text.exti_attach_callback
                0x00000000       0xac C:\Users\Lenovo\AppData\Local\arduino\cores\6384da0a6fa2f70a2504de7ae90f6808\core.a(exti.c.o)
 .text.exti_attach_interrupt
                0x00000000       0x10 C:\Users\Lenovo\AppData\Local\arduino\cores\6384da0a6fa2f70a2504de7ae90f6808\core.a(exti.c.o)
 .text.exti_detach_interrupt
                0x00000000       0x28 C:\Users\Lenovo\AppData\Local\arduino\cores\6384da0a6fa2f70a2504de7ae90f6808\core.a(exti.c.o)
 .text.exti_do_select
                0x00000000       0x1a C:\Users\Lenovo\AppData\Local\arduino\cores\6384da0a6fa2f70a2504de7ae90f6808\core.a(exti.c.o)
 .text          0x00000000        0x0 C:\Users\Lenovo\AppData\Local\arduino\cores\6384da0a6fa2f70a2504de7ae90f6808\core.a(exti_f1.c.o)
 .data          0x00000000        0x0 C:\Users\Lenovo\AppData\Local\arduino\cores\6384da0a6fa2f70a2504de7ae90f6808\core.a(exti_f1.c.o)
 .bss           0x00000000        0x0 C:\Users\Lenovo\AppData\Local\arduino\cores\6384da0a6fa2f70a2504de7ae90f6808\core.a(exti_f1.c.o)
 .text.exti_select
                0x00000000       0x18 C:\Users\Lenovo\AppData\Local\arduino\cores\6384da0a6fa2f70a2504de7ae90f6808\core.a(exti_f1.c.o)
 .text          0x00000000        0x0 C:\Users\Lenovo\AppData\Local\arduino\cores\6384da0a6fa2f70a2504de7ae90f6808\core.a(flash.c.o)
 .data          0x00000000        0x0 C:\Users\Lenovo\AppData\Local\arduino\cores\6384da0a6fa2f70a2504de7ae90f6808\core.a(flash.c.o)
 .bss           0x00000000        0x0 C:\Users\Lenovo\AppData\Local\arduino\cores\6384da0a6fa2f70a2504de7ae90f6808\core.a(flash.c.o)
 .text          0x00000000        0x0 C:\Users\Lenovo\AppData\Local\arduino\cores\6384da0a6fa2f70a2504de7ae90f6808\core.a(gpio_f1.c.o)
 .data          0x00000000        0x0 C:\Users\Lenovo\AppData\Local\arduino\cores\6384da0a6fa2f70a2504de7ae90f6808\core.a(gpio_f1.c.o)
 .bss           0x00000000        0x0 C:\Users\Lenovo\AppData\Local\arduino\cores\6384da0a6fa2f70a2504de7ae90f6808\core.a(gpio_f1.c.o)
 .text.gpio_get_mode
                0x00000000       0x2a C:\Users\Lenovo\AppData\Local\arduino\cores\6384da0a6fa2f70a2504de7ae90f6808\core.a(gpio_f1.c.o)
 .text.afio_is_remapped
                0x00000000       0x20 C:\Users\Lenovo\AppData\Local\arduino\cores\6384da0a6fa2f70a2504de7ae90f6808\core.a(gpio_f1.c.o)
 .rodata.GPIOA  0x00000000        0x4 C:\Users\Lenovo\AppData\Local\arduino\cores\6384da0a6fa2f70a2504de7ae90f6808\core.a(gpio_f1.c.o)
 .rodata.GPIOC  0x00000000        0x4 C:\Users\Lenovo\AppData\Local\arduino\cores\6384da0a6fa2f70a2504de7ae90f6808\core.a(gpio_f1.c.o)
 .rodata.GPIOD  0x00000000        0x4 C:\Users\Lenovo\AppData\Local\arduino\cores\6384da0a6fa2f70a2504de7ae90f6808\core.a(gpio_f1.c.o)
 .text          0x00000000        0x0 C:\Users\Lenovo\AppData\Local\arduino\cores\6384da0a6fa2f70a2504de7ae90f6808\core.a(i2c_f1.c.o)
 .data          0x00000000        0x0 C:\Users\Lenovo\AppData\Local\arduino\cores\6384da0a6fa2f70a2504de7ae90f6808\core.a(i2c_f1.c.o)
 .bss           0x00000000        0x0 C:\Users\Lenovo\AppData\Local\arduino\cores\6384da0a6fa2f70a2504de7ae90f6808\core.a(i2c_f1.c.o)
 .text.i2c_config_gpios
                0x00000000       0x58 C:\Users\Lenovo\AppData\Local\arduino\cores\6384da0a6fa2f70a2504de7ae90f6808\core.a(i2c_f1.c.o)
 .text.i2c_master_release_bus
                0x00000000       0x4c C:\Users\Lenovo\AppData\Local\arduino\cores\6384da0a6fa2f70a2504de7ae90f6808\core.a(i2c_f1.c.o)
 .text._i2c_irq_priority_fixup
                0x00000000        0xa C:\Users\Lenovo\AppData\Local\arduino\cores\6384da0a6fa2f70a2504de7ae90f6808\core.a(i2c_f1.c.o)
 .rodata.I2C1   0x00000000        0x4 C:\Users\Lenovo\AppData\Local\arduino\cores\6384da0a6fa2f70a2504de7ae90f6808\core.a(i2c_f1.c.o)
 .rodata.I2C2   0x00000000        0x4 C:\Users\Lenovo\AppData\Local\arduino\cores\6384da0a6fa2f70a2504de7ae90f6808\core.a(i2c_f1.c.o)
 .text          0x00000000        0x0 C:\Users\Lenovo\AppData\Local\arduino\cores\6384da0a6fa2f70a2504de7ae90f6808\core.a(nvic.c.o)
 .data          0x00000000        0x0 C:\Users\Lenovo\AppData\Local\arduino\cores\6384da0a6fa2f70a2504de7ae90f6808\core.a(nvic.c.o)
 .bss           0x00000000        0x0 C:\Users\Lenovo\AppData\Local\arduino\cores\6384da0a6fa2f70a2504de7ae90f6808\core.a(nvic.c.o)
 .text.nvic_set_vector_table
                0x00000000       0x14 C:\Users\Lenovo\AppData\Local\arduino\cores\6384da0a6fa2f70a2504de7ae90f6808\core.a(nvic.c.o)
 .text.nvic_sys_reset
                0x00000000       0x1c C:\Users\Lenovo\AppData\Local\arduino\cores\6384da0a6fa2f70a2504de7ae90f6808\core.a(nvic.c.o)
 .text          0x00000000        0x0 C:\Users\Lenovo\AppData\Local\arduino\cores\6384da0a6fa2f70a2504de7ae90f6808\core.a(rcc.c.o)
 .data          0x00000000        0x0 C:\Users\Lenovo\AppData\Local\arduino\cores\6384da0a6fa2f70a2504de7ae90f6808\core.a(rcc.c.o)
 .bss           0x00000000        0x0 C:\Users\Lenovo\AppData\Local\arduino\cores\6384da0a6fa2f70a2504de7ae90f6808\core.a(rcc.c.o)
 .text.rcc_is_clk_on
                0x00000000       0x1e C:\Users\Lenovo\AppData\Local\arduino\cores\6384da0a6fa2f70a2504de7ae90f6808\core.a(rcc.c.o)
 .text          0x00000000        0x0 C:\Users\Lenovo\AppData\Local\arduino\cores\6384da0a6fa2f70a2504de7ae90f6808\core.a(rcc_f1.c.o)
 .data          0x00000000        0x0 C:\Users\Lenovo\AppData\Local\arduino\cores\6384da0a6fa2f70a2504de7ae90f6808\core.a(rcc_f1.c.o)
 .bss           0x00000000        0x0 C:\Users\Lenovo\AppData\Local\arduino\cores\6384da0a6fa2f70a2504de7ae90f6808\core.a(rcc_f1.c.o)
 .text.rcc_clk_init
                0x00000000       0x3c C:\Users\Lenovo\AppData\Local\arduino\cores\6384da0a6fa2f70a2504de7ae90f6808\core.a(rcc_f1.c.o)
 .data          0x00000000        0x0 C:\Users\Lenovo\AppData\Local\arduino\cores\6384da0a6fa2f70a2504de7ae90f6808\core.a(isrs.S.o)
 .bss           0x00000000        0x0 C:\Users\Lenovo\AppData\Local\arduino\cores\6384da0a6fa2f70a2504de7ae90f6808\core.a(isrs.S.o)
 .text          0x00000000        0x0 C:\Users\Lenovo\AppData\Local\arduino\cores\6384da0a6fa2f70a2504de7ae90f6808\core.a(vector_table.S.o)
 .data          0x00000000        0x0 C:\Users\Lenovo\AppData\Local\arduino\cores\6384da0a6fa2f70a2504de7ae90f6808\core.a(vector_table.S.o)
 .bss           0x00000000        0x0 C:\Users\Lenovo\AppData\Local\arduino\cores\6384da0a6fa2f70a2504de7ae90f6808\core.a(vector_table.S.o)
 .text          0x00000000        0x0 C:\Users\Lenovo\AppData\Local\arduino\cores\6384da0a6fa2f70a2504de7ae90f6808\core.a(systick.c.o)
 .data          0x00000000        0x0 C:\Users\Lenovo\AppData\Local\arduino\cores\6384da0a6fa2f70a2504de7ae90f6808\core.a(systick.c.o)
 .bss           0x00000000        0x0 C:\Users\Lenovo\AppData\Local\arduino\cores\6384da0a6fa2f70a2504de7ae90f6808\core.a(systick.c.o)
 .text.systick_disable
                0x00000000        0xc C:\Users\Lenovo\AppData\Local\arduino\cores\6384da0a6fa2f70a2504de7ae90f6808\core.a(systick.c.o)
 .text.systick_enable
                0x00000000        0xc C:\Users\Lenovo\AppData\Local\arduino\cores\6384da0a6fa2f70a2504de7ae90f6808\core.a(systick.c.o)
 .text.systick_attach_callback
                0x00000000        0xc C:\Users\Lenovo\AppData\Local\arduino\cores\6384da0a6fa2f70a2504de7ae90f6808\core.a(systick.c.o)
 .text          0x00000000        0x0 C:\Users\Lenovo\AppData\Local\arduino\cores\6384da0a6fa2f70a2504de7ae90f6808\core.a(timer.c.o)
 .data          0x00000000        0x0 C:\Users\Lenovo\AppData\Local\arduino\cores\6384da0a6fa2f70a2504de7ae90f6808\core.a(timer.c.o)
 .bss           0x00000000        0x0 C:\Users\Lenovo\AppData\Local\arduino\cores\6384da0a6fa2f70a2504de7ae90f6808\core.a(timer.c.o)
 .text.timer_disable
                0x00000000       0x12 C:\Users\Lenovo\AppData\Local\arduino\cores\6384da0a6fa2f70a2504de7ae90f6808\core.a(timer.c.o)
 .text.timer_attach_interrupt
                0x00000000       0xe0 C:\Users\Lenovo\AppData\Local\arduino\cores\6384da0a6fa2f70a2504de7ae90f6808\core.a(timer.c.o)
 .text.get_direction
                0x00000000        0xe C:\Users\Lenovo\AppData\Local\arduino\cores\6384da0a6fa2f70a2504de7ae90f6808\core.a(timer.c.o)
 .rodata.TIMER1
                0x00000000        0x4 C:\Users\Lenovo\AppData\Local\arduino\cores\6384da0a6fa2f70a2504de7ae90f6808\core.a(timer.c.o)
 .rodata.TIMER2
                0x00000000        0x4 C:\Users\Lenovo\AppData\Local\arduino\cores\6384da0a6fa2f70a2504de7ae90f6808\core.a(timer.c.o)
 .rodata.TIMER3
                0x00000000        0x4 C:\Users\Lenovo\AppData\Local\arduino\cores\6384da0a6fa2f70a2504de7ae90f6808\core.a(timer.c.o)
 .rodata.TIMER4
                0x00000000        0x4 C:\Users\Lenovo\AppData\Local\arduino\cores\6384da0a6fa2f70a2504de7ae90f6808\core.a(timer.c.o)
 .text          0x00000000        0x0 C:\Users\Lenovo\AppData\Local\arduino\cores\6384da0a6fa2f70a2504de7ae90f6808\core.a(usart.c.o)
 .data          0x00000000        0x0 C:\Users\Lenovo\AppData\Local\arduino\cores\6384da0a6fa2f70a2504de7ae90f6808\core.a(usart.c.o)
 .bss           0x00000000        0x0 C:\Users\Lenovo\AppData\Local\arduino\cores\6384da0a6fa2f70a2504de7ae90f6808\core.a(usart.c.o)
 .text.usart_init
                0x00000000       0x4c C:\Users\Lenovo\AppData\Local\arduino\cores\6384da0a6fa2f70a2504de7ae90f6808\core.a(usart.c.o)
 .text.usart_enable
                0x00000000       0x14 C:\Users\Lenovo\AppData\Local\arduino\cores\6384da0a6fa2f70a2504de7ae90f6808\core.a(usart.c.o)
 .text.usart_disable
                0x00000000       0x38 C:\Users\Lenovo\AppData\Local\arduino\cores\6384da0a6fa2f70a2504de7ae90f6808\core.a(usart.c.o)
 .text.usart_rx
                0x00000000       0x58 C:\Users\Lenovo\AppData\Local\arduino\cores\6384da0a6fa2f70a2504de7ae90f6808\core.a(usart.c.o)
 .text.usart_putudec
                0x00000000       0x44 C:\Users\Lenovo\AppData\Local\arduino\cores\6384da0a6fa2f70a2504de7ae90f6808\core.a(usart.c.o)
 .text          0x00000000        0x0 C:\Users\Lenovo\AppData\Local\arduino\cores\6384da0a6fa2f70a2504de7ae90f6808\core.a(usart_f1.c.o)
 .data          0x00000000        0x0 C:\Users\Lenovo\AppData\Local\arduino\cores\6384da0a6fa2f70a2504de7ae90f6808\core.a(usart_f1.c.o)
 .bss           0x00000000        0x0 C:\Users\Lenovo\AppData\Local\arduino\cores\6384da0a6fa2f70a2504de7ae90f6808\core.a(usart_f1.c.o)
 .text.usart_config_gpios_async
                0x00000000       0x4a C:\Users\Lenovo\AppData\Local\arduino\cores\6384da0a6fa2f70a2504de7ae90f6808\core.a(usart_f1.c.o)
 .text.usart_set_baud_rate
                0x00000000       0x3c C:\Users\Lenovo\AppData\Local\arduino\cores\6384da0a6fa2f70a2504de7ae90f6808\core.a(usart_f1.c.o)
 .text.usart_foreach
                0x00000000       0x24 C:\Users\Lenovo\AppData\Local\arduino\cores\6384da0a6fa2f70a2504de7ae90f6808\core.a(usart_f1.c.o)
 .text          0x00000000        0x0 C:\Users\Lenovo\AppData\Local\arduino\cores\6384da0a6fa2f70a2504de7ae90f6808\core.a(usart_private.c.o)
 .data          0x00000000        0x0 C:\Users\Lenovo\AppData\Local\arduino\cores\6384da0a6fa2f70a2504de7ae90f6808\core.a(usart_private.c.o)
 .bss           0x00000000        0x0 C:\Users\Lenovo\AppData\Local\arduino\cores\6384da0a6fa2f70a2504de7ae90f6808\core.a(usart_private.c.o)
 .text._usart_clock_freq
                0x00000000       0x24 C:\Users\Lenovo\AppData\Local\arduino\cores\6384da0a6fa2f70a2504de7ae90f6808\core.a(usart_private.c.o)
 .text          0x00000000        0x0 C:\Users\Lenovo\AppData\Local\arduino\cores\6384da0a6fa2f70a2504de7ae90f6808\core.a(usb.c.o)
 .data          0x00000000        0x0 C:\Users\Lenovo\AppData\Local\arduino\cores\6384da0a6fa2f70a2504de7ae90f6808\core.a(usb.c.o)
 .bss           0x00000000        0x0 C:\Users\Lenovo\AppData\Local\arduino\cores\6384da0a6fa2f70a2504de7ae90f6808\core.a(usb.c.o)
 .text.usb_init_usblib
                0x00000000       0x48 C:\Users\Lenovo\AppData\Local\arduino\cores\6384da0a6fa2f70a2504de7ae90f6808\core.a(usb.c.o)
 .text.usb_power_off
                0x00000000       0x14 C:\Users\Lenovo\AppData\Local\arduino\cores\6384da0a6fa2f70a2504de7ae90f6808\core.a(usb.c.o)
 .text          0x00000000        0x0 C:\Users\Lenovo\AppData\Local\arduino\cores\6384da0a6fa2f70a2504de7ae90f6808\core.a(usb_cdcacm.c.o)
 .data          0x00000000        0x0 C:\Users\Lenovo\AppData\Local\arduino\cores\6384da0a6fa2f70a2504de7ae90f6808\core.a(usb_cdcacm.c.o)
 .bss           0x00000000        0x0 C:\Users\Lenovo\AppData\Local\arduino\cores\6384da0a6fa2f70a2504de7ae90f6808\core.a(usb_cdcacm.c.o)
 .text.usbSetConfiguration
                0x00000000       0x1c C:\Users\Lenovo\AppData\Local\arduino\cores\6384da0a6fa2f70a2504de7ae90f6808\core.a(usb_cdcacm.c.o)
 .text.usbSetDeviceAddress
                0x00000000       0x10 C:\Users\Lenovo\AppData\Local\arduino\cores\6384da0a6fa2f70a2504de7ae90f6808\core.a(usb_cdcacm.c.o)
 .text.vcomDataTxCb
                0x00000000       0xa0 C:\Users\Lenovo\AppData\Local\arduino\cores\6384da0a6fa2f70a2504de7ae90f6808\core.a(usb_cdcacm.c.o)
 .text.vcomDataRxCb
                0x00000000       0x7c C:\Users\Lenovo\AppData\Local\arduino\cores\6384da0a6fa2f70a2504de7ae90f6808\core.a(usb_cdcacm.c.o)
 .text.usb_cdcacm_set_hooks
                0x00000000       0x1c C:\Users\Lenovo\AppData\Local\arduino\cores\6384da0a6fa2f70a2504de7ae90f6808\core.a(usb_cdcacm.c.o)
 .text.usb_cdcacm_enable
                0x00000000       0x38 C:\Users\Lenovo\AppData\Local\arduino\cores\6384da0a6fa2f70a2504de7ae90f6808\core.a(usb_cdcacm.c.o)
 .text.usb_cdcacm_disable
                0x00000000       0x20 C:\Users\Lenovo\AppData\Local\arduino\cores\6384da0a6fa2f70a2504de7ae90f6808\core.a(usb_cdcacm.c.o)
 .text.usb_cdcacm_tx
                0x00000000       0x60 C:\Users\Lenovo\AppData\Local\arduino\cores\6384da0a6fa2f70a2504de7ae90f6808\core.a(usb_cdcacm.c.o)
 .text.usb_cdcacm_putc
                0x00000000       0x1a C:\Users\Lenovo\AppData\Local\arduino\cores\6384da0a6fa2f70a2504de7ae90f6808\core.a(usb_cdcacm.c.o)
 .text.usb_cdcacm_data_available
                0x00000000       0x18 C:\Users\Lenovo\AppData\Local\arduino\cores\6384da0a6fa2f70a2504de7ae90f6808\core.a(usb_cdcacm.c.o)
 .text.usb_cdcacm_is_transmitting
                0x00000000       0x14 C:\Users\Lenovo\AppData\Local\arduino\cores\6384da0a6fa2f70a2504de7ae90f6808\core.a(usb_cdcacm.c.o)
 .text.usb_cdcacm_get_pending
                0x00000000       0x18 C:\Users\Lenovo\AppData\Local\arduino\cores\6384da0a6fa2f70a2504de7ae90f6808\core.a(usb_cdcacm.c.o)
 .text.usb_cdcacm_tx_available
                0x00000000        0xc C:\Users\Lenovo\AppData\Local\arduino\cores\6384da0a6fa2f70a2504de7ae90f6808\core.a(usb_cdcacm.c.o)
 .text.usb_cdcacm_peek
                0x00000000       0x38 C:\Users\Lenovo\AppData\Local\arduino\cores\6384da0a6fa2f70a2504de7ae90f6808\core.a(usb_cdcacm.c.o)
 .text.usb_cdcacm_rx
                0x00000000       0x34 C:\Users\Lenovo\AppData\Local\arduino\cores\6384da0a6fa2f70a2504de7ae90f6808\core.a(usb_cdcacm.c.o)
 .text.usb_cdcacm_peek_ex
                0x00000000       0x3c C:\Users\Lenovo\AppData\Local\arduino\cores\6384da0a6fa2f70a2504de7ae90f6808\core.a(usb_cdcacm.c.o)
 .text.usb_cdcacm_peek_char
                0x00000000       0x24 C:\Users\Lenovo\AppData\Local\arduino\cores\6384da0a6fa2f70a2504de7ae90f6808\core.a(usb_cdcacm.c.o)
 .text.usb_cdcacm_get_dtr
                0x00000000       0x10 C:\Users\Lenovo\AppData\Local\arduino\cores\6384da0a6fa2f70a2504de7ae90f6808\core.a(usb_cdcacm.c.o)
 .text.usb_cdcacm_get_rts
                0x00000000       0x10 C:\Users\Lenovo\AppData\Local\arduino\cores\6384da0a6fa2f70a2504de7ae90f6808\core.a(usb_cdcacm.c.o)
 .text.usb_cdcacm_get_line_coding
                0x00000000       0x18 C:\Users\Lenovo\AppData\Local\arduino\cores\6384da0a6fa2f70a2504de7ae90f6808\core.a(usb_cdcacm.c.o)
 .text.usb_cdcacm_get_baud
                0x00000000        0xc C:\Users\Lenovo\AppData\Local\arduino\cores\6384da0a6fa2f70a2504de7ae90f6808\core.a(usb_cdcacm.c.o)
 .text.usb_cdcacm_get_stop_bits
                0x00000000        0xc C:\Users\Lenovo\AppData\Local\arduino\cores\6384da0a6fa2f70a2504de7ae90f6808\core.a(usb_cdcacm.c.o)
 .text.usb_cdcacm_get_parity
                0x00000000        0xc C:\Users\Lenovo\AppData\Local\arduino\cores\6384da0a6fa2f70a2504de7ae90f6808\core.a(usb_cdcacm.c.o)
 .text.usb_cdcacm_get_n_data_bits
                0x00000000        0xc C:\Users\Lenovo\AppData\Local\arduino\cores\6384da0a6fa2f70a2504de7ae90f6808\core.a(usb_cdcacm.c.o)
 .bss.vcomBufferTx
                0x00000000      0x100 C:\Users\Lenovo\AppData\Local\arduino\cores\6384da0a6fa2f70a2504de7ae90f6808\core.a(usb_cdcacm.c.o)
 .data.ep_int_in
                0x00000000       0x1c C:\Users\Lenovo\AppData\Local\arduino\cores\6384da0a6fa2f70a2504de7ae90f6808\core.a(usb_cdcacm.c.o)
 .bss.rx_hook   0x00000000        0x4 C:\Users\Lenovo\AppData\Local\arduino\cores\6384da0a6fa2f70a2504de7ae90f6808\core.a(usb_cdcacm.c.o)
 .bss.vcomBufferRx
                0x00000000      0x100 C:\Users\Lenovo\AppData\Local\arduino\cores\6384da0a6fa2f70a2504de7ae90f6808\core.a(usb_cdcacm.c.o)
 .data.ep_int_out
                0x00000000       0x1c C:\Users\Lenovo\AppData\Local\arduino\cores\6384da0a6fa2f70a2504de7ae90f6808\core.a(usb_cdcacm.c.o)
 .data.User_Standard_Requests
                0x00000000       0x24 C:\Users\Lenovo\AppData\Local\arduino\cores\6384da0a6fa2f70a2504de7ae90f6808\core.a(usb_cdcacm.c.o)
 .text          0x00000000        0x0 C:\Users\Lenovo\AppData\Local\arduino\cores\6384da0a6fa2f70a2504de7ae90f6808\core.a(usb_reg_map.c.o)
 .data          0x00000000        0x0 C:\Users\Lenovo\AppData\Local\arduino\cores\6384da0a6fa2f70a2504de7ae90f6808\core.a(usb_reg_map.c.o)
 .bss           0x00000000        0x0 C:\Users\Lenovo\AppData\Local\arduino\cores\6384da0a6fa2f70a2504de7ae90f6808\core.a(usb_reg_map.c.o)
 .text          0x00000000        0x0 C:\Users\Lenovo\AppData\Local\arduino\cores\6384da0a6fa2f70a2504de7ae90f6808\core.a(usb_core.c.o)
 .data          0x00000000        0x0 C:\Users\Lenovo\AppData\Local\arduino\cores\6384da0a6fa2f70a2504de7ae90f6808\core.a(usb_core.c.o)
 .bss           0x00000000        0x0 C:\Users\Lenovo\AppData\Local\arduino\cores\6384da0a6fa2f70a2504de7ae90f6808\core.a(usb_core.c.o)
 .text          0x00000000        0x0 C:\Users\Lenovo\AppData\Local\arduino\cores\6384da0a6fa2f70a2504de7ae90f6808\core.a(usb_init.c.o)
 .data          0x00000000        0x0 C:\Users\Lenovo\AppData\Local\arduino\cores\6384da0a6fa2f70a2504de7ae90f6808\core.a(usb_init.c.o)
 .bss           0x00000000        0x0 C:\Users\Lenovo\AppData\Local\arduino\cores\6384da0a6fa2f70a2504de7ae90f6808\core.a(usb_init.c.o)
 .text.USB_Init
                0x00000000       0x38 C:\Users\Lenovo\AppData\Local\arduino\cores\6384da0a6fa2f70a2504de7ae90f6808\core.a(usb_init.c.o)
 .text          0x00000000        0x0 C:\Users\Lenovo\AppData\Local\arduino\cores\6384da0a6fa2f70a2504de7ae90f6808\core.a(usb_mem.c.o)
 .data          0x00000000        0x0 C:\Users\Lenovo\AppData\Local\arduino\cores\6384da0a6fa2f70a2504de7ae90f6808\core.a(usb_mem.c.o)
 .bss           0x00000000        0x0 C:\Users\Lenovo\AppData\Local\arduino\cores\6384da0a6fa2f70a2504de7ae90f6808\core.a(usb_mem.c.o)
 .text          0x00000000        0x0 C:\Users\Lenovo\AppData\Local\arduino\cores\6384da0a6fa2f70a2504de7ae90f6808\core.a(usb_regs.c.o)
 .data          0x00000000        0x0 C:\Users\Lenovo\AppData\Local\arduino\cores\6384da0a6fa2f70a2504de7ae90f6808\core.a(usb_regs.c.o)
 .bss           0x00000000        0x0 C:\Users\Lenovo\AppData\Local\arduino\cores\6384da0a6fa2f70a2504de7ae90f6808\core.a(usb_regs.c.o)
 .text.SetCNTR  0x00000000        0xc C:\Users\Lenovo\AppData\Local\arduino\cores\6384da0a6fa2f70a2504de7ae90f6808\core.a(usb_regs.c.o)
 .text.GetCNTR  0x00000000        0xc C:\Users\Lenovo\AppData\Local\arduino\cores\6384da0a6fa2f70a2504de7ae90f6808\core.a(usb_regs.c.o)
 .text.SetISTR  0x00000000        0xc C:\Users\Lenovo\AppData\Local\arduino\cores\6384da0a6fa2f70a2504de7ae90f6808\core.a(usb_regs.c.o)
 .text.GetISTR  0x00000000        0xc C:\Users\Lenovo\AppData\Local\arduino\cores\6384da0a6fa2f70a2504de7ae90f6808\core.a(usb_regs.c.o)
 .text.GetFNR   0x00000000        0xc C:\Users\Lenovo\AppData\Local\arduino\cores\6384da0a6fa2f70a2504de7ae90f6808\core.a(usb_regs.c.o)
 .text.SetDADDR
                0x00000000        0xc C:\Users\Lenovo\AppData\Local\arduino\cores\6384da0a6fa2f70a2504de7ae90f6808\core.a(usb_regs.c.o)
 .text.GetDADDR
                0x00000000        0xc C:\Users\Lenovo\AppData\Local\arduino\cores\6384da0a6fa2f70a2504de7ae90f6808\core.a(usb_regs.c.o)
 .text.SetBTABLE
                0x00000000       0x10 C:\Users\Lenovo\AppData\Local\arduino\cores\6384da0a6fa2f70a2504de7ae90f6808\core.a(usb_regs.c.o)
 .text.GetBTABLE
                0x00000000        0xc C:\Users\Lenovo\AppData\Local\arduino\cores\6384da0a6fa2f70a2504de7ae90f6808\core.a(usb_regs.c.o)
 .text.SetENDPOINT
                0x00000000        0xe C:\Users\Lenovo\AppData\Local\arduino\cores\6384da0a6fa2f70a2504de7ae90f6808\core.a(usb_regs.c.o)
 .text.GetENDPOINT
                0x00000000       0x10 C:\Users\Lenovo\AppData\Local\arduino\cores\6384da0a6fa2f70a2504de7ae90f6808\core.a(usb_regs.c.o)
 .text.SetEPType
                0x00000000       0x1c C:\Users\Lenovo\AppData\Local\arduino\cores\6384da0a6fa2f70a2504de7ae90f6808\core.a(usb_regs.c.o)
 .text.GetEPType
                0x00000000       0x12 C:\Users\Lenovo\AppData\Local\arduino\cores\6384da0a6fa2f70a2504de7ae90f6808\core.a(usb_regs.c.o)
 .text.SetEPRxStatus
                0x00000000       0x2a C:\Users\Lenovo\AppData\Local\arduino\cores\6384da0a6fa2f70a2504de7ae90f6808\core.a(usb_regs.c.o)
 .text.SetDouBleBuffEPStall
                0x00000000       0x24 C:\Users\Lenovo\AppData\Local\arduino\cores\6384da0a6fa2f70a2504de7ae90f6808\core.a(usb_regs.c.o)
 .text.GetEPTxStatus
                0x00000000       0x12 C:\Users\Lenovo\AppData\Local\arduino\cores\6384da0a6fa2f70a2504de7ae90f6808\core.a(usb_regs.c.o)
 .text.GetEPRxStatus
                0x00000000       0x12 C:\Users\Lenovo\AppData\Local\arduino\cores\6384da0a6fa2f70a2504de7ae90f6808\core.a(usb_regs.c.o)
 .text.SetEPTxValid
                0x00000000       0x1e C:\Users\Lenovo\AppData\Local\arduino\cores\6384da0a6fa2f70a2504de7ae90f6808\core.a(usb_regs.c.o)
 .text.SetEPRxValid
                0x00000000       0x1e C:\Users\Lenovo\AppData\Local\arduino\cores\6384da0a6fa2f70a2504de7ae90f6808\core.a(usb_regs.c.o)
 .text.SetEP_KIND
                0x00000000       0x1e C:\Users\Lenovo\AppData\Local\arduino\cores\6384da0a6fa2f70a2504de7ae90f6808\core.a(usb_regs.c.o)
 .text.ClearEP_KIND
                0x00000000       0x1c C:\Users\Lenovo\AppData\Local\arduino\cores\6384da0a6fa2f70a2504de7ae90f6808\core.a(usb_regs.c.o)
 .text.Clear_Status_Out
                0x00000000       0x1c C:\Users\Lenovo\AppData\Local\arduino\cores\6384da0a6fa2f70a2504de7ae90f6808\core.a(usb_regs.c.o)
 .text.Set_Status_Out
                0x00000000       0x1e C:\Users\Lenovo\AppData\Local\arduino\cores\6384da0a6fa2f70a2504de7ae90f6808\core.a(usb_regs.c.o)
 .text.SetEPDoubleBuff
                0x00000000       0x1e C:\Users\Lenovo\AppData\Local\arduino\cores\6384da0a6fa2f70a2504de7ae90f6808\core.a(usb_regs.c.o)
 .text.ClearEPDoubleBuff
                0x00000000       0x1c C:\Users\Lenovo\AppData\Local\arduino\cores\6384da0a6fa2f70a2504de7ae90f6808\core.a(usb_regs.c.o)
 .text.GetTxStallStatus
                0x00000000       0x1a C:\Users\Lenovo\AppData\Local\arduino\cores\6384da0a6fa2f70a2504de7ae90f6808\core.a(usb_regs.c.o)
 .text.GetRxStallStatus
                0x00000000       0x1a C:\Users\Lenovo\AppData\Local\arduino\cores\6384da0a6fa2f70a2504de7ae90f6808\core.a(usb_regs.c.o)
 .text.ClearEP_CTR_RX
                0x00000000       0x18 C:\Users\Lenovo\AppData\Local\arduino\cores\6384da0a6fa2f70a2504de7ae90f6808\core.a(usb_regs.c.o)
 .text.ClearEP_CTR_TX
                0x00000000       0x1c C:\Users\Lenovo\AppData\Local\arduino\cores\6384da0a6fa2f70a2504de7ae90f6808\core.a(usb_regs.c.o)
 .text.ToggleDTOG_RX
                0x00000000       0x20 C:\Users\Lenovo\AppData\Local\arduino\cores\6384da0a6fa2f70a2504de7ae90f6808\core.a(usb_regs.c.o)
 .text.ToggleDTOG_TX
                0x00000000       0x20 C:\Users\Lenovo\AppData\Local\arduino\cores\6384da0a6fa2f70a2504de7ae90f6808\core.a(usb_regs.c.o)
 .text.SetEPAddress
                0x00000000       0x1e C:\Users\Lenovo\AppData\Local\arduino\cores\6384da0a6fa2f70a2504de7ae90f6808\core.a(usb_regs.c.o)
 .text.GetEPAddress
                0x00000000       0x12 C:\Users\Lenovo\AppData\Local\arduino\cores\6384da0a6fa2f70a2504de7ae90f6808\core.a(usb_regs.c.o)
 .text.SetEPTxAddr
                0x00000000       0x20 C:\Users\Lenovo\AppData\Local\arduino\cores\6384da0a6fa2f70a2504de7ae90f6808\core.a(usb_regs.c.o)
 .text.SetEPRxAddr
                0x00000000       0x20 C:\Users\Lenovo\AppData\Local\arduino\cores\6384da0a6fa2f70a2504de7ae90f6808\core.a(usb_regs.c.o)
 .text.SetEPCountRxReg
                0x00000000       0x26 C:\Users\Lenovo\AppData\Local\arduino\cores\6384da0a6fa2f70a2504de7ae90f6808\core.a(usb_regs.c.o)
 .text.GetEPTxCount
                0x00000000       0x20 C:\Users\Lenovo\AppData\Local\arduino\cores\6384da0a6fa2f70a2504de7ae90f6808\core.a(usb_regs.c.o)
 .text.GetEPRxCount
                0x00000000       0x20 C:\Users\Lenovo\AppData\Local\arduino\cores\6384da0a6fa2f70a2504de7ae90f6808\core.a(usb_regs.c.o)
 .text.SetEPDblBuffAddr
                0x00000000       0x38 C:\Users\Lenovo\AppData\Local\arduino\cores\6384da0a6fa2f70a2504de7ae90f6808\core.a(usb_regs.c.o)
 .text.SetEPDblBuf0Addr
                0x00000000       0x20 C:\Users\Lenovo\AppData\Local\arduino\cores\6384da0a6fa2f70a2504de7ae90f6808\core.a(usb_regs.c.o)
 .text.SetEPDblBuf1Addr
                0x00000000       0x20 C:\Users\Lenovo\AppData\Local\arduino\cores\6384da0a6fa2f70a2504de7ae90f6808\core.a(usb_regs.c.o)
 .text.GetEPDblBuf0Addr
                0x00000000       0x1c C:\Users\Lenovo\AppData\Local\arduino\cores\6384da0a6fa2f70a2504de7ae90f6808\core.a(usb_regs.c.o)
 .text.GetEPDblBuf1Addr
                0x00000000       0x1c C:\Users\Lenovo\AppData\Local\arduino\cores\6384da0a6fa2f70a2504de7ae90f6808\core.a(usb_regs.c.o)
 .text.SetEPDblBuffCount
                0x00000000       0xa8 C:\Users\Lenovo\AppData\Local\arduino\cores\6384da0a6fa2f70a2504de7ae90f6808\core.a(usb_regs.c.o)
 .text.SetEPDblBuf0Count
                0x00000000       0x5c C:\Users\Lenovo\AppData\Local\arduino\cores\6384da0a6fa2f70a2504de7ae90f6808\core.a(usb_regs.c.o)
 .text.SetEPDblBuf1Count
                0x00000000       0x5c C:\Users\Lenovo\AppData\Local\arduino\cores\6384da0a6fa2f70a2504de7ae90f6808\core.a(usb_regs.c.o)
 .text.GetEPDblBuf0Count
                0x00000000       0x20 C:\Users\Lenovo\AppData\Local\arduino\cores\6384da0a6fa2f70a2504de7ae90f6808\core.a(usb_regs.c.o)
 .text.GetEPDblBuf1Count
                0x00000000       0x20 C:\Users\Lenovo\AppData\Local\arduino\cores\6384da0a6fa2f70a2504de7ae90f6808\core.a(usb_regs.c.o)
 .text.GetEPDblBufDir
                0x00000000       0x44 C:\Users\Lenovo\AppData\Local\arduino\cores\6384da0a6fa2f70a2504de7ae90f6808\core.a(usb_regs.c.o)
 .text.FreeUserBuffer
                0x00000000       0x3a C:\Users\Lenovo\AppData\Local\arduino\cores\6384da0a6fa2f70a2504de7ae90f6808\core.a(usb_regs.c.o)
 .text.ToWord   0x00000000        0x6 C:\Users\Lenovo\AppData\Local\arduino\cores\6384da0a6fa2f70a2504de7ae90f6808\core.a(usb_regs.c.o)
 .text.ByteSwap
                0x00000000        0xa C:\Users\Lenovo\AppData\Local\arduino\cores\6384da0a6fa2f70a2504de7ae90f6808\core.a(usb_regs.c.o)
 .text          0x00000000        0x0 C:\Users\Lenovo\AppData\Local\arduino\cores\6384da0a6fa2f70a2504de7ae90f6808\core.a(util.c.o)
 .data          0x00000000        0x0 C:\Users\Lenovo\AppData\Local\arduino\cores\6384da0a6fa2f70a2504de7ae90f6808\core.a(util.c.o)
 .bss           0x00000000        0x0 C:\Users\Lenovo\AppData\Local\arduino\cores\6384da0a6fa2f70a2504de7ae90f6808\core.a(util.c.o)
 .text.usart_putc
                0x00000000       0x1c C:\Users\Lenovo\AppData\Local\arduino\cores\6384da0a6fa2f70a2504de7ae90f6808\core.a(util.c.o)
 .text.usart_putstr
                0x00000000       0x16 C:\Users\Lenovo\AppData\Local\arduino\cores\6384da0a6fa2f70a2504de7ae90f6808\core.a(util.c.o)
 .text._fail    0x00000000       0x64 C:\Users\Lenovo\AppData\Local\arduino\cores\6384da0a6fa2f70a2504de7ae90f6808\core.a(util.c.o)
 .text.__assert_func
                0x00000000        0x8 C:\Users\Lenovo\AppData\Local\arduino\cores\6384da0a6fa2f70a2504de7ae90f6808\core.a(util.c.o)
 .text.abort    0x00000000       0x1c C:\Users\Lenovo\AppData\Local\arduino\cores\6384da0a6fa2f70a2504de7ae90f6808\core.a(util.c.o)
 .rodata.str1.1
                0x00000000       0x42 C:\Users\Lenovo\AppData\Local\arduino\cores\6384da0a6fa2f70a2504de7ae90f6808\core.a(util.c.o)
 .text          0x00000000        0x0 C:\Users\Lenovo\AppData\Local\arduino\cores\6384da0a6fa2f70a2504de7ae90f6808\core.a(main.cpp.o)
 .data          0x00000000        0x0 C:\Users\Lenovo\AppData\Local\arduino\cores\6384da0a6fa2f70a2504de7ae90f6808\core.a(main.cpp.o)
 .bss           0x00000000        0x0 C:\Users\Lenovo\AppData\Local\arduino\cores\6384da0a6fa2f70a2504de7ae90f6808\core.a(main.cpp.o)
 .text          0x00000000        0x0 C:\Users\Lenovo\AppData\Local\arduino\cores\6384da0a6fa2f70a2504de7ae90f6808\core.a(wirish_digital_f1.cpp.o)
 .data          0x00000000        0x0 C:\Users\Lenovo\AppData\Local\arduino\cores\6384da0a6fa2f70a2504de7ae90f6808\core.a(wirish_digital_f1.cpp.o)
 .bss           0x00000000        0x0 C:\Users\Lenovo\AppData\Local\arduino\cores\6384da0a6fa2f70a2504de7ae90f6808\core.a(wirish_digital_f1.cpp.o)
 .text          0x00000000        0x0 C:\Users\Lenovo\AppData\Local\arduino\cores\6384da0a6fa2f70a2504de7ae90f6808\core.a(wirish_digital.cpp.o)
 .data          0x00000000        0x0 C:\Users\Lenovo\AppData\Local\arduino\cores\6384da0a6fa2f70a2504de7ae90f6808\core.a(wirish_digital.cpp.o)
 .bss           0x00000000        0x0 C:\Users\Lenovo\AppData\Local\arduino\cores\6384da0a6fa2f70a2504de7ae90f6808\core.a(wirish_digital.cpp.o)
 .text          0x00000000        0x0 C:\Users\Lenovo\AppData\Local\arduino\cores\6384da0a6fa2f70a2504de7ae90f6808\core.a(wirish_time.cpp.o)
 .data          0x00000000        0x0 C:\Users\Lenovo\AppData\Local\arduino\cores\6384da0a6fa2f70a2504de7ae90f6808\core.a(wirish_time.cpp.o)
 .bss           0x00000000        0x0 C:\Users\Lenovo\AppData\Local\arduino\cores\6384da0a6fa2f70a2504de7ae90f6808\core.a(wirish_time.cpp.o)
 .text.micros   0x00000000       0x2c C:\Users\Lenovo\AppData\Local\arduino\cores\6384da0a6fa2f70a2504de7ae90f6808\core.a(wirish_time.cpp.o)
 .text.delay    0x00000000       0x2a C:\Users\Lenovo\AppData\Local\arduino\cores\6384da0a6fa2f70a2504de7ae90f6808\core.a(wirish_time.cpp.o)
 .text          0x00000000        0x0 C:\Users\Lenovo\AppData\Local\arduino\cores\6384da0a6fa2f70a2504de7ae90f6808\core.a(hooks.c.o)
 .data          0x00000000        0x0 C:\Users\Lenovo\AppData\Local\arduino\cores\6384da0a6fa2f70a2504de7ae90f6808\core.a(hooks.c.o)
 .bss           0x00000000        0x0 C:\Users\Lenovo\AppData\Local\arduino\cores\6384da0a6fa2f70a2504de7ae90f6808\core.a(hooks.c.o)
 .text.__empty  0x00000000        0x2 C:\Users\Lenovo\AppData\Local\arduino\cores\6384da0a6fa2f70a2504de7ae90f6808\core.a(hooks.c.o)
 .text          0x00000000        0x0 C:\Users\Lenovo\AppData\Local\arduino\cores\6384da0a6fa2f70a2504de7ae90f6808\core.a(dma.c.o)
 .data          0x00000000        0x0 C:\Users\Lenovo\AppData\Local\arduino\cores\6384da0a6fa2f70a2504de7ae90f6808\core.a(dma.c.o)
 .bss           0x00000000        0x0 C:\Users\Lenovo\AppData\Local\arduino\cores\6384da0a6fa2f70a2504de7ae90f6808\core.a(dma.c.o)
 .text.dma_init
                0x00000000        0x6 C:\Users\Lenovo\AppData\Local\arduino\cores\6384da0a6fa2f70a2504de7ae90f6808\core.a(dma.c.o)
 .text._dma_addr_type
                0x00000000       0x28 C:\Users\Lenovo\AppData\Local\arduino\cores\6384da0a6fa2f70a2504de7ae90f6808\core.a(dma.c.o)
 .text          0x00000000        0x0 C:\Users\Lenovo\AppData\Local\arduino\cores\6384da0a6fa2f70a2504de7ae90f6808\core.a(gpio.c.o)
 .data          0x00000000        0x0 C:\Users\Lenovo\AppData\Local\arduino\cores\6384da0a6fa2f70a2504de7ae90f6808\core.a(gpio.c.o)
 .bss           0x00000000        0x0 C:\Users\Lenovo\AppData\Local\arduino\cores\6384da0a6fa2f70a2504de7ae90f6808\core.a(gpio.c.o)
 .text          0x00000000        0x0 C:\Users\Lenovo\AppData\Local\arduino\cores\6384da0a6fa2f70a2504de7ae90f6808\core.a(i2c.c.o)
 .data          0x00000000        0x0 C:\Users\Lenovo\AppData\Local\arduino\cores\6384da0a6fa2f70a2504de7ae90f6808\core.a(i2c.c.o)
 .bss           0x00000000        0x0 C:\Users\Lenovo\AppData\Local\arduino\cores\6384da0a6fa2f70a2504de7ae90f6808\core.a(i2c.c.o)
 .text.nvic_irq_enable
                0x00000000       0x1c C:\Users\Lenovo\AppData\Local\arduino\cores\6384da0a6fa2f70a2504de7ae90f6808\core.a(i2c.c.o)
 .text.delay_us.part.0.constprop.6
                0x00000000        0xa C:\Users\Lenovo\AppData\Local\arduino\cores\6384da0a6fa2f70a2504de7ae90f6808\core.a(i2c.c.o)
 .text.i2c_bus_reset
                0x00000000       0xc2 C:\Users\Lenovo\AppData\Local\arduino\cores\6384da0a6fa2f70a2504de7ae90f6808\core.a(i2c.c.o)
 .text.i2c_init
                0x00000000       0x1e C:\Users\Lenovo\AppData\Local\arduino\cores\6384da0a6fa2f70a2504de7ae90f6808\core.a(i2c.c.o)
 .text.wait_for_state_change
                0x00000000       0x98 C:\Users\Lenovo\AppData\Local\arduino\cores\6384da0a6fa2f70a2504de7ae90f6808\core.a(i2c.c.o)
 .text.i2c_master_xfer
                0x00000000       0xcc C:\Users\Lenovo\AppData\Local\arduino\cores\6384da0a6fa2f70a2504de7ae90f6808\core.a(i2c.c.o)
 .text.i2c_set_ccr_trise
                0x00000000       0x54 C:\Users\Lenovo\AppData\Local\arduino\cores\6384da0a6fa2f70a2504de7ae90f6808\core.a(i2c.c.o)
 .text.i2c_master_enable
                0x00000000      0x1b4 C:\Users\Lenovo\AppData\Local\arduino\cores\6384da0a6fa2f70a2504de7ae90f6808\core.a(i2c.c.o)
 .text.i2c_slave_enable
                0x00000000        0x8 C:\Users\Lenovo\AppData\Local\arduino\cores\6384da0a6fa2f70a2504de7ae90f6808\core.a(i2c.c.o)
 .text.i2c_slave_attach_recv_handler
                0x00000000        0xa C:\Users\Lenovo\AppData\Local\arduino\cores\6384da0a6fa2f70a2504de7ae90f6808\core.a(i2c.c.o)
 .text.i2c_slave_attach_transmit_handler
                0x00000000        0xa C:\Users\Lenovo\AppData\Local\arduino\cores\6384da0a6fa2f70a2504de7ae90f6808\core.a(i2c.c.o)
 .text          0x00000000      0x370 c:/users/lenovo/appdata/local/arduino15/packages/arduino/tools/arm-none-eabi-gcc/4.8.3-2014q1/bin/../lib/gcc/arm-none-eabi/4.8.3/armv7-m\libgcc.a(_arm_addsubdf3.o)
 .data          0x00000000        0x0 c:/users/lenovo/appdata/local/arduino15/packages/arduino/tools/arm-none-eabi-gcc/4.8.3-2014q1/bin/../lib/gcc/arm-none-eabi/4.8.3/armv7-m\libgcc.a(_arm_addsubdf3.o)
 .bss           0x00000000        0x0 c:/users/lenovo/appdata/local/arduino15/packages/arduino/tools/arm-none-eabi-gcc/4.8.3-2014q1/bin/../lib/gcc/arm-none-eabi/4.8.3/armv7-m\libgcc.a(_arm_addsubdf3.o)
 .text          0x00000000      0x424 c:/users/lenovo/appdata/local/arduino15/packages/arduino/tools/arm-none-eabi-gcc/4.8.3-2014q1/bin/../lib/gcc/arm-none-eabi/4.8.3/armv7-m\libgcc.a(_arm_muldivdf3.o)
 .data          0x00000000        0x0 c:/users/lenovo/appdata/local/arduino15/packages/arduino/tools/arm-none-eabi-gcc/4.8.3-2014q1/bin/../lib/gcc/arm-none-eabi/4.8.3/armv7-m\libgcc.a(_arm_muldivdf3.o)
 .bss           0x00000000        0x0 c:/users/lenovo/appdata/local/arduino15/packages/arduino/tools/arm-none-eabi-gcc/4.8.3-2014q1/bin/../lib/gcc/arm-none-eabi/4.8.3/armv7-m\libgcc.a(_arm_muldivdf3.o)
 .text          0x00000000      0x110 c:/users/lenovo/appdata/local/arduino15/packages/arduino/tools/arm-none-eabi-gcc/4.8.3-2014q1/bin/../lib/gcc/arm-none-eabi/4.8.3/armv7-m\libgcc.a(_arm_cmpdf2.o)
 .data          0x00000000        0x0 c:/users/lenovo/appdata/local/arduino15/packages/arduino/tools/arm-none-eabi-gcc/4.8.3-2014q1/bin/../lib/gcc/arm-none-eabi/4.8.3/armv7-m\libgcc.a(_arm_cmpdf2.o)
 .bss           0x00000000        0x0 c:/users/lenovo/appdata/local/arduino15/packages/arduino/tools/arm-none-eabi-gcc/4.8.3-2014q1/bin/../lib/gcc/arm-none-eabi/4.8.3/armv7-m\libgcc.a(_arm_cmpdf2.o)
 .text          0x00000000       0x50 c:/users/lenovo/appdata/local/arduino15/packages/arduino/tools/arm-none-eabi-gcc/4.8.3-2014q1/bin/../lib/gcc/arm-none-eabi/4.8.3/armv7-m\libgcc.a(_arm_fixdfsi.o)
 .data          0x00000000        0x0 c:/users/lenovo/appdata/local/arduino15/packages/arduino/tools/arm-none-eabi-gcc/4.8.3-2014q1/bin/../lib/gcc/arm-none-eabi/4.8.3/armv7-m\libgcc.a(_arm_fixdfsi.o)
 .bss           0x00000000        0x0 c:/users/lenovo/appdata/local/arduino15/packages/arduino/tools/arm-none-eabi-gcc/4.8.3-2014q1/bin/../lib/gcc/arm-none-eabi/4.8.3/armv7-m\libgcc.a(_arm_fixdfsi.o)
 .text          0x00000000      0x21c c:/users/lenovo/appdata/local/arduino15/packages/arduino/tools/arm-none-eabi-gcc/4.8.3-2014q1/bin/../lib/gcc/arm-none-eabi/4.8.3/armv7-m\libgcc.a(_arm_addsubsf3.o)
 .data          0x00000000        0x0 c:/users/lenovo/appdata/local/arduino15/packages/arduino/tools/arm-none-eabi-gcc/4.8.3-2014q1/bin/../lib/gcc/arm-none-eabi/4.8.3/armv7-m\libgcc.a(_arm_addsubsf3.o)
 .bss           0x00000000        0x0 c:/users/lenovo/appdata/local/arduino15/packages/arduino/tools/arm-none-eabi-gcc/4.8.3-2014q1/bin/../lib/gcc/arm-none-eabi/4.8.3/armv7-m\libgcc.a(_arm_addsubsf3.o)
 .text          0x00000000      0x2a0 c:/users/lenovo/appdata/local/arduino15/packages/arduino/tools/arm-none-eabi-gcc/4.8.3-2014q1/bin/../lib/gcc/arm-none-eabi/4.8.3/armv7-m\libgcc.a(_arm_muldivsf3.o)
 .data          0x00000000        0x0 c:/users/lenovo/appdata/local/arduino15/packages/arduino/tools/arm-none-eabi-gcc/4.8.3-2014q1/bin/../lib/gcc/arm-none-eabi/4.8.3/armv7-m\libgcc.a(_arm_muldivsf3.o)
 .bss           0x00000000        0x0 c:/users/lenovo/appdata/local/arduino15/packages/arduino/tools/arm-none-eabi-gcc/4.8.3-2014q1/bin/../lib/gcc/arm-none-eabi/4.8.3/armv7-m\libgcc.a(_arm_muldivsf3.o)
 .text          0x00000000       0xec c:/users/lenovo/appdata/local/arduino15/packages/arduino/tools/arm-none-eabi-gcc/4.8.3-2014q1/bin/../lib/gcc/arm-none-eabi/4.8.3/armv7-m\libgcc.a(_arm_cmpsf2.o)
 .data          0x00000000        0x0 c:/users/lenovo/appdata/local/arduino15/packages/arduino/tools/arm-none-eabi-gcc/4.8.3-2014q1/bin/../lib/gcc/arm-none-eabi/4.8.3/armv7-m\libgcc.a(_arm_cmpsf2.o)
 .bss           0x00000000        0x0 c:/users/lenovo/appdata/local/arduino15/packages/arduino/tools/arm-none-eabi-gcc/4.8.3-2014q1/bin/../lib/gcc/arm-none-eabi/4.8.3/armv7-m\libgcc.a(_arm_cmpsf2.o)
 .text          0x00000000       0x4c c:/users/lenovo/appdata/local/arduino15/packages/arduino/tools/arm-none-eabi-gcc/4.8.3-2014q1/bin/../lib/gcc/arm-none-eabi/4.8.3/armv7-m\libgcc.a(_arm_fixsfsi.o)
 .data          0x00000000        0x0 c:/users/lenovo/appdata/local/arduino15/packages/arduino/tools/arm-none-eabi-gcc/4.8.3-2014q1/bin/../lib/gcc/arm-none-eabi/4.8.3/armv7-m\libgcc.a(_arm_fixsfsi.o)
 .bss           0x00000000        0x0 c:/users/lenovo/appdata/local/arduino15/packages/arduino/tools/arm-none-eabi-gcc/4.8.3-2014q1/bin/../lib/gcc/arm-none-eabi/4.8.3/armv7-m\libgcc.a(_arm_fixsfsi.o)
 .data          0x00000000        0x0 c:/users/lenovo/appdata/local/arduino15/packages/arduino/tools/arm-none-eabi-gcc/4.8.3-2014q1/bin/../lib/gcc/arm-none-eabi/4.8.3/armv7-m\libgcc.a(_aeabi_ldivmod.o)
 .bss           0x00000000        0x0 c:/users/lenovo/appdata/local/arduino15/packages/arduino/tools/arm-none-eabi-gcc/4.8.3-2014q1/bin/../lib/gcc/arm-none-eabi/4.8.3/armv7-m\libgcc.a(_aeabi_ldivmod.o)
 .text          0x00000000       0x2c c:/users/lenovo/appdata/local/arduino15/packages/arduino/tools/arm-none-eabi-gcc/4.8.3-2014q1/bin/../lib/gcc/arm-none-eabi/4.8.3/armv7-m\libgcc.a(_aeabi_uldivmod.o)
 .data          0x00000000        0x0 c:/users/lenovo/appdata/local/arduino15/packages/arduino/tools/arm-none-eabi-gcc/4.8.3-2014q1/bin/../lib/gcc/arm-none-eabi/4.8.3/armv7-m\libgcc.a(_aeabi_uldivmod.o)
 .bss           0x00000000        0x0 c:/users/lenovo/appdata/local/arduino15/packages/arduino/tools/arm-none-eabi-gcc/4.8.3-2014q1/bin/../lib/gcc/arm-none-eabi/4.8.3/armv7-m\libgcc.a(_aeabi_uldivmod.o)
 .text          0x00000000       0x30 c:/users/lenovo/appdata/local/arduino15/packages/arduino/tools/arm-none-eabi-gcc/4.8.3-2014q1/bin/../lib/gcc/arm-none-eabi/4.8.3/armv7-m\libgcc.a(_fixdfdi.o)
 .data          0x00000000        0x0 c:/users/lenovo/appdata/local/arduino15/packages/arduino/tools/arm-none-eabi-gcc/4.8.3-2014q1/bin/../lib/gcc/arm-none-eabi/4.8.3/armv7-m\libgcc.a(_fixdfdi.o)
 .bss           0x00000000        0x0 c:/users/lenovo/appdata/local/arduino15/packages/arduino/tools/arm-none-eabi-gcc/4.8.3-2014q1/bin/../lib/gcc/arm-none-eabi/4.8.3/armv7-m\libgcc.a(_fixdfdi.o)
 .text          0x00000000       0x44 c:/users/lenovo/appdata/local/arduino15/packages/arduino/tools/arm-none-eabi-gcc/4.8.3-2014q1/bin/../lib/gcc/arm-none-eabi/4.8.3/armv7-m\libgcc.a(_fixunsdfdi.o)
 .data          0x00000000        0x0 c:/users/lenovo/appdata/local/arduino15/packages/arduino/tools/arm-none-eabi-gcc/4.8.3-2014q1/bin/../lib/gcc/arm-none-eabi/4.8.3/armv7-m\libgcc.a(_fixunsdfdi.o)
 .bss           0x00000000        0x0 c:/users/lenovo/appdata/local/arduino15/packages/arduino/tools/arm-none-eabi-gcc/4.8.3-2014q1/bin/../lib/gcc/arm-none-eabi/4.8.3/armv7-m\libgcc.a(_fixunsdfdi.o)
 .data          0x00000000        0x0 c:/users/lenovo/appdata/local/arduino15/packages/arduino/tools/arm-none-eabi-gcc/4.8.3-2014q1/bin/../lib/gcc/arm-none-eabi/4.8.3/armv7-m\libgcc.a(bpabi.o)
 .bss           0x00000000        0x0 c:/users/lenovo/appdata/local/arduino15/packages/arduino/tools/arm-none-eabi-gcc/4.8.3-2014q1/bin/../lib/gcc/arm-none-eabi/4.8.3/armv7-m\libgcc.a(bpabi.o)
 .data          0x00000000        0x0 c:/users/lenovo/appdata/local/arduino15/packages/arduino/tools/arm-none-eabi-gcc/4.8.3-2014q1/bin/../lib/gcc/arm-none-eabi/4.8.3/armv7-m\libgcc.a(_dvmd_tls.o)
 .bss           0x00000000        0x0 c:/users/lenovo/appdata/local/arduino15/packages/arduino/tools/arm-none-eabi-gcc/4.8.3-2014q1/bin/../lib/gcc/arm-none-eabi/4.8.3/armv7-m\libgcc.a(_dvmd_tls.o)
 .text          0x00000000       0x40 c:/users/lenovo/appdata/local/arduino15/packages/arduino/tools/arm-none-eabi-gcc/4.8.3-2014q1/bin/../lib/gcc/arm-none-eabi/4.8.3/armv7-m\libgcc.a(_arm_fixunsdfsi.o)
 .data          0x00000000        0x0 c:/users/lenovo/appdata/local/arduino15/packages/arduino/tools/arm-none-eabi-gcc/4.8.3-2014q1/bin/../lib/gcc/arm-none-eabi/4.8.3/armv7-m\libgcc.a(_arm_fixunsdfsi.o)
 .bss           0x00000000        0x0 c:/users/lenovo/appdata/local/arduino15/packages/arduino/tools/arm-none-eabi-gcc/4.8.3-2014q1/bin/../lib/gcc/arm-none-eabi/4.8.3/armv7-m\libgcc.a(_arm_fixunsdfsi.o)
 .data          0x00000000        0x0 c:/users/lenovo/appdata/local/arduino15/packages/arduino/tools/arm-none-eabi-gcc/4.8.3-2014q1/bin/../lib/gcc/arm-none-eabi/4.8.3/armv7-m\libgcc.a(_divdi3.o)
 .bss           0x00000000        0x0 c:/users/lenovo/appdata/local/arduino15/packages/arduino/tools/arm-none-eabi-gcc/4.8.3-2014q1/bin/../lib/gcc/arm-none-eabi/4.8.3/armv7-m\libgcc.a(_divdi3.o)
 .ARM.extab     0x00000000        0x0 c:/users/lenovo/appdata/local/arduino15/packages/arduino/tools/arm-none-eabi-gcc/4.8.3-2014q1/bin/../lib/gcc/arm-none-eabi/4.8.3/armv7-m\libgcc.a(_divdi3.o)
 .data          0x00000000        0x0 c:/users/lenovo/appdata/local/arduino15/packages/arduino/tools/arm-none-eabi-gcc/4.8.3-2014q1/bin/../lib/gcc/arm-none-eabi/4.8.3/armv7-m\libgcc.a(_udivdi3.o)
 .bss           0x00000000        0x0 c:/users/lenovo/appdata/local/arduino15/packages/arduino/tools/arm-none-eabi-gcc/4.8.3-2014q1/bin/../lib/gcc/arm-none-eabi/4.8.3/armv7-m\libgcc.a(_udivdi3.o)
 .ARM.extab     0x00000000        0x0 c:/users/lenovo/appdata/local/arduino15/packages/arduino/tools/arm-none-eabi-gcc/4.8.3-2014q1/bin/../lib/gcc/arm-none-eabi/4.8.3/armv7-m\libgcc.a(_udivdi3.o)
 .text          0x00000000        0x0 c:/users/lenovo/appdata/local/arduino15/packages/arduino/tools/arm-none-eabi-gcc/4.8.3-2014q1/bin/../lib/gcc/arm-none-eabi/4.8.3/../../../../arm-none-eabi/lib/armv7-m\libc_s.a(lib_a-errno.o)
 .data          0x00000000        0x0 c:/users/lenovo/appdata/local/arduino15/packages/arduino/tools/arm-none-eabi-gcc/4.8.3-2014q1/bin/../lib/gcc/arm-none-eabi/4.8.3/../../../../arm-none-eabi/lib/armv7-m\libc_s.a(lib_a-errno.o)
 .bss           0x00000000        0x0 c:/users/lenovo/appdata/local/arduino15/packages/arduino/tools/arm-none-eabi-gcc/4.8.3-2014q1/bin/../lib/gcc/arm-none-eabi/4.8.3/../../../../arm-none-eabi/lib/armv7-m\libc_s.a(lib_a-errno.o)
 .text.__errno  0x00000000        0xc c:/users/lenovo/appdata/local/arduino15/packages/arduino/tools/arm-none-eabi-gcc/4.8.3-2014q1/bin/../lib/gcc/arm-none-eabi/4.8.3/../../../../arm-none-eabi/lib/armv7-m\libc_s.a(lib_a-errno.o)
 .text          0x00000000        0x0 c:/users/lenovo/appdata/local/arduino15/packages/arduino/tools/arm-none-eabi-gcc/4.8.3-2014q1/bin/../lib/gcc/arm-none-eabi/4.8.3/../../../../arm-none-eabi/lib/armv7-m\libc_s.a(lib_a-exit.o)
 .data          0x00000000        0x0 c:/users/lenovo/appdata/local/arduino15/packages/arduino/tools/arm-none-eabi-gcc/4.8.3-2014q1/bin/../lib/gcc/arm-none-eabi/4.8.3/../../../../arm-none-eabi/lib/armv7-m\libc_s.a(lib_a-exit.o)
 .bss           0x00000000        0x0 c:/users/lenovo/appdata/local/arduino15/packages/arduino/tools/arm-none-eabi-gcc/4.8.3-2014q1/bin/../lib/gcc/arm-none-eabi/4.8.3/../../../../arm-none-eabi/lib/armv7-m\libc_s.a(lib_a-exit.o)
 .text          0x00000000        0x0 c:/users/lenovo/appdata/local/arduino15/packages/arduino/tools/arm-none-eabi-gcc/4.8.3-2014q1/bin/../lib/gcc/arm-none-eabi/4.8.3/../../../../arm-none-eabi/lib/armv7-m\libc_s.a(lib_a-impure.o)
 .data          0x00000000        0x0 c:/users/lenovo/appdata/local/arduino15/packages/arduino/tools/arm-none-eabi-gcc/4.8.3-2014q1/bin/../lib/gcc/arm-none-eabi/4.8.3/../../../../arm-none-eabi/lib/armv7-m\libc_s.a(lib_a-impure.o)
 .bss           0x00000000        0x0 c:/users/lenovo/appdata/local/arduino15/packages/arduino/tools/arm-none-eabi-gcc/4.8.3-2014q1/bin/../lib/gcc/arm-none-eabi/4.8.3/../../../../arm-none-eabi/lib/armv7-m\libc_s.a(lib_a-impure.o)
 .data._impure_ptr
                0x00000000        0x4 c:/users/lenovo/appdata/local/arduino15/packages/arduino/tools/arm-none-eabi-gcc/4.8.3-2014q1/bin/../lib/gcc/arm-none-eabi/4.8.3/../../../../arm-none-eabi/lib/armv7-m\libc_s.a(lib_a-impure.o)
 .text          0x00000000        0x0 c:/users/lenovo/appdata/local/arduino15/packages/arduino/tools/arm-none-eabi-gcc/4.8.3-2014q1/bin/../lib/gcc/arm-none-eabi/4.8.3/../../../../arm-none-eabi/lib/armv7-m\libc_s.a(lib_a-init.o)
 .data          0x00000000        0x0 c:/users/lenovo/appdata/local/arduino15/packages/arduino/tools/arm-none-eabi-gcc/4.8.3-2014q1/bin/../lib/gcc/arm-none-eabi/4.8.3/../../../../arm-none-eabi/lib/armv7-m\libc_s.a(lib_a-init.o)
 .bss           0x00000000        0x0 c:/users/lenovo/appdata/local/arduino15/packages/arduino/tools/arm-none-eabi-gcc/4.8.3-2014q1/bin/../lib/gcc/arm-none-eabi/4.8.3/../../../../arm-none-eabi/lib/armv7-m\libc_s.a(lib_a-init.o)
 .text          0x00000000        0x0 c:/users/lenovo/appdata/local/arduino15/packages/arduino/tools/arm-none-eabi-gcc/4.8.3-2014q1/bin/../lib/gcc/arm-none-eabi/4.8.3/../../../../arm-none-eabi/lib/armv7-m\libc_s.a(lib_a-memset.o)
 .data          0x00000000        0x0 c:/users/lenovo/appdata/local/arduino15/packages/arduino/tools/arm-none-eabi-gcc/4.8.3-2014q1/bin/../lib/gcc/arm-none-eabi/4.8.3/../../../../arm-none-eabi/lib/armv7-m\libc_s.a(lib_a-memset.o)
 .bss           0x00000000        0x0 c:/users/lenovo/appdata/local/arduino15/packages/arduino/tools/arm-none-eabi-gcc/4.8.3-2014q1/bin/../lib/gcc/arm-none-eabi/4.8.3/../../../../arm-none-eabi/lib/armv7-m\libc_s.a(lib_a-memset.o)
 .text.memset   0x00000000       0x10 c:/users/lenovo/appdata/local/arduino15/packages/arduino/tools/arm-none-eabi-gcc/4.8.3-2014q1/bin/../lib/gcc/arm-none-eabi/4.8.3/../../../../arm-none-eabi/lib/armv7-m\libc_s.a(lib_a-memset.o)
 .text          0x00000000        0x0 c:/users/lenovo/appdata/local/arduino15/packages/arduino/tools/arm-none-eabi-gcc/4.8.3-2014q1/bin/../lib/gcc/arm-none-eabi/4.8.3/../../../../arm-none-eabi/lib/armv7-m\libc_s.a(lib_a-strcpy.o)
 .data          0x00000000        0x0 c:/users/lenovo/appdata/local/arduino15/packages/arduino/tools/arm-none-eabi-gcc/4.8.3-2014q1/bin/../lib/gcc/arm-none-eabi/4.8.3/../../../../arm-none-eabi/lib/armv7-m\libc_s.a(lib_a-strcpy.o)
 .bss           0x00000000        0x0 c:/users/lenovo/appdata/local/arduino15/packages/arduino/tools/arm-none-eabi-gcc/4.8.3-2014q1/bin/../lib/gcc/arm-none-eabi/4.8.3/../../../../arm-none-eabi/lib/armv7-m\libc_s.a(lib_a-strcpy.o)
 .text.strcpy   0x00000000       0x10 c:/users/lenovo/appdata/local/arduino15/packages/arduino/tools/arm-none-eabi-gcc/4.8.3-2014q1/bin/../lib/gcc/arm-none-eabi/4.8.3/../../../../arm-none-eabi/lib/armv7-m\libc_s.a(lib_a-strcpy.o)
 .text          0x00000000        0x0 c:/users/lenovo/appdata/local/arduino15/packages/arduino/tools/arm-none-eabi-gcc/4.8.3-2014q1/bin/../lib/gcc/arm-none-eabi/4.8.3/../../../../arm-none-eabi/lib/armv7-m\libc_s.a(lib_a-strlen.o)
 .data          0x00000000        0x0 c:/users/lenovo/appdata/local/arduino15/packages/arduino/tools/arm-none-eabi-gcc/4.8.3-2014q1/bin/../lib/gcc/arm-none-eabi/4.8.3/../../../../arm-none-eabi/lib/armv7-m\libc_s.a(lib_a-strlen.o)
 .bss           0x00000000        0x0 c:/users/lenovo/appdata/local/arduino15/packages/arduino/tools/arm-none-eabi-gcc/4.8.3-2014q1/bin/../lib/gcc/arm-none-eabi/4.8.3/../../../../arm-none-eabi/lib/armv7-m\libc_s.a(lib_a-strlen.o)
 .text          0x00000000        0x0 c:/users/lenovo/appdata/local/arduino15/packages/arduino/tools/arm-none-eabi-gcc/4.8.3-2014q1/bin/../lib/gcc/arm-none-eabi/4.8.3/armv7-m/crtend.o
 .data          0x00000000        0x0 c:/users/lenovo/appdata/local/arduino15/packages/arduino/tools/arm-none-eabi-gcc/4.8.3-2014q1/bin/../lib/gcc/arm-none-eabi/4.8.3/armv7-m/crtend.o
 .bss           0x00000000        0x0 c:/users/lenovo/appdata/local/arduino15/packages/arduino/tools/arm-none-eabi-gcc/4.8.3-2014q1/bin/../lib/gcc/arm-none-eabi/4.8.3/armv7-m/crtend.o
 .eh_frame      0x00000000        0x4 c:/users/lenovo/appdata/local/arduino15/packages/arduino/tools/arm-none-eabi-gcc/4.8.3-2014q1/bin/../lib/gcc/arm-none-eabi/4.8.3/armv7-m/crtend.o
 .jcr           0x00000000        0x4 c:/users/lenovo/appdata/local/arduino15/packages/arduino/tools/arm-none-eabi-gcc/4.8.3-2014q1/bin/../lib/gcc/arm-none-eabi/4.8.3/armv7-m/crtend.o
 .text          0x00000000        0x0 c:/users/lenovo/appdata/local/arduino15/packages/arduino/tools/arm-none-eabi-gcc/4.8.3-2014q1/bin/../lib/gcc/arm-none-eabi/4.8.3/armv7-m/crtn.o
 .data          0x00000000        0x0 c:/users/lenovo/appdata/local/arduino15/packages/arduino/tools/arm-none-eabi-gcc/4.8.3-2014q1/bin/../lib/gcc/arm-none-eabi/4.8.3/armv7-m/crtn.o
 .bss           0x00000000        0x0 c:/users/lenovo/appdata/local/arduino15/packages/arduino/tools/arm-none-eabi-gcc/4.8.3-2014q1/bin/../lib/gcc/arm-none-eabi/4.8.3/armv7-m/crtn.o

Memory Configuration

Name             Origin             Length             Attributes
ram              0x20000000         0x00005000         xrw
rom              0x08000000         0x00020000         xr
*default*        0x00000000         0xffffffff

Linker script and memory map

LOAD c:/users/lenovo/appdata/local/arduino15/packages/arduino/tools/arm-none-eabi-gcc/4.8.3-2014q1/bin/../lib/gcc/arm-none-eabi/4.8.3/armv7-m/crti.o
LOAD c:/users/lenovo/appdata/local/arduino15/packages/arduino/tools/arm-none-eabi-gcc/4.8.3-2014q1/bin/../lib/gcc/arm-none-eabi/4.8.3/armv7-m/crtbegin.o
LOAD c:/users/lenovo/appdata/local/arduino15/packages/arduino/tools/arm-none-eabi-gcc/4.8.3-2014q1/bin/../lib/gcc/arm-none-eabi/4.8.3/../../../../arm-none-eabi/lib/armv7-m/crt0.o
LOAD c:/users/lenovo/appdata/local/arduino15/packages/arduino/tools/arm-none-eabi-gcc/4.8.3-2014q1/bin/../lib/gcc/arm-none-eabi/4.8.3/armv7-m\libgcc.a
START GROUP
LOAD C:\Users\Lenovo\AppData\Local\arduino\sketches\0A1F667BE7A1596EA767C94737D7EA1C\sketch\Lavadora.ino.cpp.o
LOAD C:\Users\Lenovo\AppData\Local\arduino\sketches\0A1F667BE7A1596EA767C94737D7EA1C\sketch\SevSeg.cpp.o
LOAD C:\Users\Lenovo\AppData\Local\arduino\sketches\0A1F667BE7A1596EA767C94737D7EA1C\core\board.cpp.o
LOAD C:\Users\Lenovo\AppData\Local\arduino\sketches\0A1F667BE7A1596EA767C94737D7EA1C\core\wirish\boards.cpp.o
LOAD C:\Users\Lenovo\AppData\Local\arduino\sketches\0A1F667BE7A1596EA767C94737D7EA1C\core\wirish\boards_setup.cpp.o
LOAD C:\Users\Lenovo\AppData\Local\arduino\sketches\0A1F667BE7A1596EA767C94737D7EA1C\core\wirish\start.S.o
LOAD C:\Users\Lenovo\AppData\Local\arduino\sketches\0A1F667BE7A1596EA767C94737D7EA1C\core\wirish\start_c.c.o
LOAD C:\Users\Lenovo\AppData\Local\arduino\sketches\0A1F667BE7A1596EA767C94737D7EA1C\core\wirish\syscalls.c.o
LOAD C:\Users\Lenovo\AppData\Local\arduino\cores\6384da0a6fa2f70a2504de7ae90f6808\core.a
END GROUP
LOAD c:/users/lenovo/appdata/local/arduino15/packages/arduino/tools/arm-none-eabi-gcc/4.8.3-2014q1/bin/../lib/gcc/arm-none-eabi/4.8.3/../../../../arm-none-eabi/lib/armv7-m\libstdc++_s.a
LOAD c:/users/lenovo/appdata/local/arduino15/packages/arduino/tools/arm-none-eabi-gcc/4.8.3-2014q1/bin/../lib/gcc/arm-none-eabi/4.8.3/../../../../arm-none-eabi/lib/armv7-m\libm.a
START GROUP
LOAD c:/users/lenovo/appdata/local/arduino15/packages/arduino/tools/arm-none-eabi-gcc/4.8.3-2014q1/bin/../lib/gcc/arm-none-eabi/4.8.3/armv7-m\libgcc.a
LOAD c:/users/lenovo/appdata/local/arduino15/packages/arduino/tools/arm-none-eabi-gcc/4.8.3-2014q1/bin/../lib/gcc/arm-none-eabi/4.8.3/../../../../arm-none-eabi/lib/armv7-m\libc_s.a
END GROUP
START GROUP
LOAD c:/users/lenovo/appdata/local/arduino15/packages/arduino/tools/arm-none-eabi-gcc/4.8.3-2014q1/bin/../lib/gcc/arm-none-eabi/4.8.3/armv7-m\libgcc.a
LOAD c:/users/lenovo/appdata/local/arduino15/packages/arduino/tools/arm-none-eabi-gcc/4.8.3-2014q1/bin/../lib/gcc/arm-none-eabi/4.8.3/../../../../arm-none-eabi/lib/armv7-m\libc_s.a
END GROUP
LOAD c:/users/lenovo/appdata/local/arduino15/packages/arduino/tools/arm-none-eabi-gcc/4.8.3-2014q1/bin/../lib/gcc/arm-none-eabi/4.8.3/armv7-m/crtend.o
LOAD c:/users/lenovo/appdata/local/arduino15/packages/arduino/tools/arm-none-eabi-gcc/4.8.3-2014q1/bin/../lib/gcc/arm-none-eabi/4.8.3/armv7-m/crtn.o
START GROUP
LOAD c:/users/lenovo/appdata/local/arduino15/packages/arduino/tools/arm-none-eabi-gcc/4.8.3-2014q1/bin/../lib/gcc/arm-none-eabi/4.8.3/armv7-m\libgcc.a
LOAD c:/users/lenovo/appdata/local/arduino15/packages/arduino/tools/arm-none-eabi-gcc/4.8.3-2014q1/bin/../lib/gcc/arm-none-eabi/4.8.3/../../../../arm-none-eabi/lib/armv7-m\libc.a
LOAD c:/users/lenovo/appdata/local/arduino15/packages/arduino/tools/arm-none-eabi-gcc/4.8.3-2014q1/bin/../lib/gcc/arm-none-eabi/4.8.3/../../../../arm-none-eabi/lib/armv7-m\libm.a
END GROUP
START GROUP
LOAD c:/users/lenovo/appdata/local/arduino15/packages/arduino/tools/arm-none-eabi-gcc/4.8.3-2014q1/bin/../lib/gcc/arm-none-eabi/4.8.3/../../../../arm-none-eabi/lib/armv7-m\libnosys.a
END GROUP
                0x20005000                PROVIDE (__msp_init, (ORIGIN (ram) + 0x5000))
                0x080014fc                PROVIDE (__exc_reset, __start__)

.text           0x08000000     0x3bd4
                0x08000000                __text_start__ = .
 *(.stm32.interrupt_vector)
 .stm32.interrupt_vector
                0x08000000       0xec C:\Users\Lenovo\AppData\Local\arduino\cores\6384da0a6fa2f70a2504de7ae90f6808\core.a(vector_table.S.o)
                0x08000000                __stm32_vector_table
 *(.text .text.* .gnu.linkonce.t.*)
 .text          0x080000ec       0x54 c:/users/lenovo/appdata/local/arduino15/packages/arduino/tools/arm-none-eabi-gcc/4.8.3-2014q1/bin/../lib/gcc/arm-none-eabi/4.8.3/armv7-m/crtbegin.o
 .text._Z10apagarTodov
                0x08000140      0x124 C:\Users\Lenovo\AppData\Local\arduino\sketches\0A1F667BE7A1596EA767C94737D7EA1C\sketch\Lavadora.ino.cpp.o
                0x08000140                apagarTodo()
 .text._Z5setupv
                0x08000264      0x178 C:\Users\Lenovo\AppData\Local\arduino\sketches\0A1F667BE7A1596EA767C94737D7EA1C\sketch\Lavadora.ino.cpp.o
                0x08000264                setup()
 .text._Z8debounceiRbRm
                0x080003dc       0x38 C:\Users\Lenovo\AppData\Local\arduino\sketches\0A1F667BE7A1596EA767C94737D7EA1C\sketch\Lavadora.ino.cpp.o
                0x080003dc                debounce(int, bool&, unsigned long&)
 .text._Z20manejarBotonEncenderv
                0x08000414       0x40 C:\Users\Lenovo\AppData\Local\arduino\sketches\0A1F667BE7A1596EA767C94737D7EA1C\sketch\Lavadora.ino.cpp.o
                0x08000414                manejarBotonEncender()
 .text._Z13ajustarTiempov
                0x08000454       0x60 C:\Users\Lenovo\AppData\Local\arduino\sketches\0A1F667BE7A1596EA767C94737D7EA1C\sketch\Lavadora.ino.cpp.o
                0x08000454                ajustarTiempo()
 .text._Z20configurarTipoLavadoi
                0x080004b4      0x168 C:\Users\Lenovo\AppData\Local\arduino\sketches\0A1F667BE7A1596EA767C94737D7EA1C\sketch\Lavadora.ino.cpp.o
                0x080004b4                configurarTipoLavado(int)
 .text._Z22configurarCantidadRopai
                0x0800061c       0xe0 C:\Users\Lenovo\AppData\Local\arduino\sketches\0A1F667BE7A1596EA767C94737D7EA1C\sketch\Lavadora.ino.cpp.o
                0x0800061c                configurarCantidadRopa(int)
 .text._Z18cambiarTemperaturav
                0x080006fc       0x98 C:\Users\Lenovo\AppData\Local\arduino\sketches\0A1F667BE7A1596EA767C94737D7EA1C\sketch\Lavadora.ino.cpp.o
                0x080006fc                cambiarTemperatura()
 .text._Z19configurarNivelAguai
                0x08000794       0xb8 C:\Users\Lenovo\AppData\Local\arduino\sketches\0A1F667BE7A1596EA767C94737D7EA1C\sketch\Lavadora.ino.cpp.o
                0x08000794                configurarNivelAgua(int)
 .text._Z21configurarNivelLavadoi
                0x0800084c       0xc0 C:\Users\Lenovo\AppData\Local\arduino\sketches\0A1F667BE7A1596EA767C94737D7EA1C\sketch\Lavadora.ino.cpp.o
                0x0800084c                configurarNivelLavado(int)
 .text._Z18configurarEnjuaguei
                0x0800090c       0xc0 C:\Users\Lenovo\AppData\Local\arduino\sketches\0A1F667BE7A1596EA767C94737D7EA1C\sketch\Lavadora.ino.cpp.o
                0x0800090c                configurarEnjuague(int)
 .text._Z22configurarCentrifugadoi
                0x080009cc       0xc0 C:\Users\Lenovo\AppData\Local\arduino\sketches\0A1F667BE7A1596EA767C94737D7EA1C\sketch\Lavadora.ino.cpp.o
                0x080009cc                configurarCentrifugado(int)
 .text._Z14manejarBotonesv
                0x08000a8c      0x218 C:\Users\Lenovo\AppData\Local\arduino\sketches\0A1F667BE7A1596EA767C94737D7EA1C\sketch\Lavadora.ino.cpp.o
                0x08000a8c                manejarBotones()
 .text._Z13mostrarTiempov
                0x08000ca4       0x34 C:\Users\Lenovo\AppData\Local\arduino\sketches\0A1F667BE7A1596EA767C94737D7EA1C\sketch\Lavadora.ino.cpp.o
                0x08000ca4                mostrarTiempo()
 .text._Z22actualizarTemporizadorv
                0x08000cd8       0xcc C:\Users\Lenovo\AppData\Local\arduino\sketches\0A1F667BE7A1596EA767C94737D7EA1C\sketch\Lavadora.ino.cpp.o
                0x08000cd8                actualizarTemporizador()
 .text._Z4loopv
                0x08000da4       0x4c C:\Users\Lenovo\AppData\Local\arduino\sketches\0A1F667BE7A1596EA767C94737D7EA1C\sketch\Lavadora.ino.cpp.o
                0x08000da4                loop()
 .text.startup._GLOBAL__sub_I_sevseg
                0x08000df0        0xc C:\Users\Lenovo\AppData\Local\arduino\sketches\0A1F667BE7A1596EA767C94737D7EA1C\sketch\Lavadora.ino.cpp.o
 .text._ZN6SevSegC2Ev
                0x08000dfc       0x1a C:\Users\Lenovo\AppData\Local\arduino\sketches\0A1F667BE7A1596EA767C94737D7EA1C\sketch\SevSeg.cpp.o
                0x08000dfc                SevSeg::SevSeg()
                0x08000dfc                SevSeg::SevSeg()
 .text._ZN6SevSeg9segmentOnEh
                0x08000e16       0x34 C:\Users\Lenovo\AppData\Local\arduino\sketches\0A1F667BE7A1596EA767C94737D7EA1C\sketch\SevSeg.cpp.o
                0x08000e16                SevSeg::segmentOn(unsigned char)
 .text._ZN6SevSeg10segmentOffEh
                0x08000e4a       0x2e C:\Users\Lenovo\AppData\Local\arduino\sketches\0A1F667BE7A1596EA767C94737D7EA1C\sketch\SevSeg.cpp.o
                0x08000e4a                SevSeg::segmentOff(unsigned char)
 .text._ZN6SevSeg7digitOnEh
                0x08000e78       0x30 C:\Users\Lenovo\AppData\Local\arduino\sketches\0A1F667BE7A1596EA767C94737D7EA1C\sketch\SevSeg.cpp.o
                0x08000e78                SevSeg::digitOn(unsigned char)
 .text._ZN6SevSeg8digitOffEh
                0x08000ea8       0x2e C:\Users\Lenovo\AppData\Local\arduino\sketches\0A1F667BE7A1596EA767C94737D7EA1C\sketch\SevSeg.cpp.o
                0x08000ea8                SevSeg::digitOff(unsigned char)
 *fill*         0x08000ed6        0x2 
 .text._ZN6SevSeg14refreshDisplayEv
                0x08000ed8      0x11c C:\Users\Lenovo\AppData\Local\arduino\sketches\0A1F667BE7A1596EA767C94737D7EA1C\sketch\SevSeg.cpp.o
                0x08000ed8                SevSeg::refreshDisplay()
 .text._ZN6SevSeg13setBrightnessEs
                0x08000ff4       0x54 C:\Users\Lenovo\AppData\Local\arduino\sketches\0A1F667BE7A1596EA767C94737D7EA1C\sketch\SevSeg.cpp.o
                0x08000ff4                SevSeg::setBrightness(short)
 .text._ZN6SevSeg8setCharsEPKc
                0x08001048       0xa4 C:\Users\Lenovo\AppData\Local\arduino\sketches\0A1F667BE7A1596EA767C94737D7EA1C\sketch\SevSeg.cpp.o
                0x08001048                SevSeg::setChars(char const*)
 .text._ZN6SevSeg5blankEv
                0x080010ec       0x2c C:\Users\Lenovo\AppData\Local\arduino\sketches\0A1F667BE7A1596EA767C94737D7EA1C\sketch\SevSeg.cpp.o
                0x080010ec                SevSeg::blank()
 .text._ZN6SevSeg5beginEhhPKhS1_bbbb
                0x08001118       0xdc C:\Users\Lenovo\AppData\Local\arduino\sketches\0A1F667BE7A1596EA767C94737D7EA1C\sketch\SevSeg.cpp.o
                0x08001118                SevSeg::begin(unsigned char, unsigned char, unsigned char const*, unsigned char const*, bool, bool, bool, bool)
 .text._ZN6SevSeg10findDigitsElabPh
                0x080011f4       0xa4 C:\Users\Lenovo\AppData\Local\arduino\sketches\0A1F667BE7A1596EA767C94737D7EA1C\sketch\SevSeg.cpp.o
                0x080011f4                SevSeg::findDigits(long, signed char, bool, unsigned char*)
 .text._ZN6SevSeg13setDigitCodesEPKha
                0x08001298       0x34 C:\Users\Lenovo\AppData\Local\arduino\sketches\0A1F667BE7A1596EA767C94737D7EA1C\sketch\SevSeg.cpp.o
                0x08001298                SevSeg::setDigitCodes(unsigned char const*, signed char)
 .text._ZN6SevSeg9setNewNumElab
                0x080012cc       0x1c C:\Users\Lenovo\AppData\Local\arduino\sketches\0A1F667BE7A1596EA767C94737D7EA1C\sketch\SevSeg.cpp.o
                0x080012cc                SevSeg::setNewNum(long, signed char, bool)
 .text._ZN6SevSeg9setNumberElab
                0x080012e8        0x4 C:\Users\Lenovo\AppData\Local\arduino\sketches\0A1F667BE7A1596EA767C94737D7EA1C\sketch\SevSeg.cpp.o
                0x080012e8                SevSeg::setNumber(long, signed char, bool)
 .text._Z9boardInitv
                0x080012ec       0x30 C:\Users\Lenovo\AppData\Local\arduino\sketches\0A1F667BE7A1596EA767C94737D7EA1C\core\board.cpp.o
                0x080012ec                boardInit()
 .text.startup._GLOBAL__sub_I__Z9boardInitv
                0x0800131c       0x48 C:\Users\Lenovo\AppData\Local\arduino\sketches\0A1F667BE7A1596EA767C94737D7EA1C\core\board.cpp.o
 .text._ZL18adc_default_configP7adc_dev
                0x08001364       0x1c C:\Users\Lenovo\AppData\Local\arduino\sketches\0A1F667BE7A1596EA767C94737D7EA1C\core\wirish\boards.cpp.o
 .text._ZL20timer_default_configP9timer_dev
                0x08001380       0x9e C:\Users\Lenovo\AppData\Local\arduino\sketches\0A1F667BE7A1596EA767C94737D7EA1C\core\wirish\boards.cpp.o
 *fill*         0x0800141e        0x2 
 .text._Z4initv
                0x08001420       0xa8 C:\Users\Lenovo\AppData\Local\arduino\sketches\0A1F667BE7A1596EA767C94737D7EA1C\core\wirish\boards.cpp.o
                0x08001420                init()
 .text._ZN6wirish4priv15board_reset_pllEv
                0x080014c8        0x2 C:\Users\Lenovo\AppData\Local\arduino\sketches\0A1F667BE7A1596EA767C94737D7EA1C\core\wirish\boards_setup.cpp.o
                0x080014c8                wirish::priv::board_reset_pll()
 .text._ZN6wirish4priv28board_setup_clock_prescalersEv
                0x080014ca       0x26 C:\Users\Lenovo\AppData\Local\arduino\sketches\0A1F667BE7A1596EA767C94737D7EA1C\core\wirish\boards_setup.cpp.o
                0x080014ca                wirish::priv::board_setup_clock_prescalers()
 .text._ZN6wirish4priv16board_setup_gpioEv
                0x080014f0        0x4 C:\Users\Lenovo\AppData\Local\arduino\sketches\0A1F667BE7A1596EA767C94737D7EA1C\core\wirish\boards_setup.cpp.o
                0x080014f0                wirish::priv::board_setup_gpio()
 .text._ZN6wirish4priv15board_setup_usbEv
                0x080014f4        0x2 C:\Users\Lenovo\AppData\Local\arduino\sketches\0A1F667BE7A1596EA767C94737D7EA1C\core\wirish\boards_setup.cpp.o
                0x080014f4                wirish::priv::board_setup_usb()
 .text._ZN6wirish4priv11series_initEv
                0x080014f6        0x4 C:\Users\Lenovo\AppData\Local\arduino\sketches\0A1F667BE7A1596EA767C94737D7EA1C\core\wirish\boards_setup.cpp.o
                0x080014f6                wirish::priv::series_init()
 *fill*         0x080014fa        0x2 
 .text          0x080014fc       0x10 C:\Users\Lenovo\AppData\Local\arduino\sketches\0A1F667BE7A1596EA767C94737D7EA1C\core\wirish\start.S.o
                0x080014fc                __start__
 .text.start_c  0x0800150c       0x64 C:\Users\Lenovo\AppData\Local\arduino\sketches\0A1F667BE7A1596EA767C94737D7EA1C\core\wirish\start_c.c.o
                0x0800150c                start_c
 .text._exit    0x08001570        0x2 C:\Users\Lenovo\AppData\Local\arduino\sketches\0A1F667BE7A1596EA767C94737D7EA1C\core\wirish\syscalls.c.o
                0x08001570                _exit
 .text.rb_full_count
                0x08001572       0x22 C:\Users\Lenovo\AppData\Local\arduino\cores\6384da0a6fa2f70a2504de7ae90f6808\core.a(HardwareSerial.cpp.o)
 .text._ZN14HardwareSerial4readEv
                0x08001594       0x3a C:\Users\Lenovo\AppData\Local\arduino\cores\6384da0a6fa2f70a2504de7ae90f6808\core.a(HardwareSerial.cpp.o)
                0x08001594                HardwareSerial::read()
 .text._ZN14HardwareSerial9availableEv
                0x080015ce        0xc C:\Users\Lenovo\AppData\Local\arduino\cores\6384da0a6fa2f70a2504de7ae90f6808\core.a(HardwareSerial.cpp.o)
                0x080015ce                HardwareSerial::available()
 .text._ZN14HardwareSerial4peekEv
                0x080015da       0x22 C:\Users\Lenovo\AppData\Local\arduino\cores\6384da0a6fa2f70a2504de7ae90f6808\core.a(HardwareSerial.cpp.o)
                0x080015da                HardwareSerial::peek()
 .text._ZN14HardwareSerial5flushEv
                0x080015fc       0x1a C:\Users\Lenovo\AppData\Local\arduino\cores\6384da0a6fa2f70a2504de7ae90f6808\core.a(HardwareSerial.cpp.o)
                0x080015fc                HardwareSerial::flush()
 .text._ZN14HardwareSerial5writeEh
                0x08001616       0x1e C:\Users\Lenovo\AppData\Local\arduino\cores\6384da0a6fa2f70a2504de7ae90f6808\core.a(HardwareSerial.cpp.o)
                0x08001616                HardwareSerial::write(unsigned char)
 .text._ZN14HardwareSerialC2EP9usart_devhh
                0x08001634       0x1c C:\Users\Lenovo\AppData\Local\arduino\cores\6384da0a6fa2f70a2504de7ae90f6808\core.a(HardwareSerial.cpp.o)
                0x08001634                HardwareSerial::HardwareSerial(usart_dev*, unsigned char, unsigned char)
                0x08001634                HardwareSerial::HardwareSerial(usart_dev*, unsigned char, unsigned char)
 .text._ZN5Print5writeEPKvm
                0x08001650       0x20 C:\Users\Lenovo\AppData\Local\arduino\cores\6384da0a6fa2f70a2504de7ae90f6808\core.a(Print.cpp.o)
                0x08001650                Print::write(void const*, unsigned long)
 .text._ZN5Print5writeEPKc
                0x08001670       0x1e C:\Users\Lenovo\AppData\Local\arduino\cores\6384da0a6fa2f70a2504de7ae90f6808\core.a(Print.cpp.o)
                0x08001670                Print::write(char const*)
 .text.adc_init
                0x0800168e       0x14 C:\Users\Lenovo\AppData\Local\arduino\cores\6384da0a6fa2f70a2504de7ae90f6808\core.a(adc.c.o)
                0x0800168e                adc_init
 .text.adc_set_extsel
                0x080016a2       0x12 C:\Users\Lenovo\AppData\Local\arduino\cores\6384da0a6fa2f70a2504de7ae90f6808\core.a(adc.c.o)
                0x080016a2                adc_set_extsel
 .text.adc_set_sample_rate
                0x080016b4       0x30 C:\Users\Lenovo\AppData\Local\arduino\cores\6384da0a6fa2f70a2504de7ae90f6808\core.a(adc.c.o)
                0x080016b4                adc_set_sample_rate
 .text.__irq_adc
                0x080016e4       0x50 C:\Users\Lenovo\AppData\Local\arduino\cores\6384da0a6fa2f70a2504de7ae90f6808\core.a(adc_f1.c.o)
                0x080016e4                __irq_adc
 .text.adc_calibrate
                0x08001734       0x24 C:\Users\Lenovo\AppData\Local\arduino\cores\6384da0a6fa2f70a2504de7ae90f6808\core.a(adc_f1.c.o)
                0x08001734                adc_calibrate
 .text.adc_set_prescaler
                0x08001758        0x8 C:\Users\Lenovo\AppData\Local\arduino\cores\6384da0a6fa2f70a2504de7ae90f6808\core.a(adc_f1.c.o)
                0x08001758                adc_set_prescaler
 .text.adc_foreach
                0x08001760       0x1c C:\Users\Lenovo\AppData\Local\arduino\cores\6384da0a6fa2f70a2504de7ae90f6808\core.a(adc_f1.c.o)
                0x08001760                adc_foreach
 .text.adc_enable_single_swstart
                0x0800177c       0x36 C:\Users\Lenovo\AppData\Local\arduino\cores\6384da0a6fa2f70a2504de7ae90f6808\core.a(adc_f1.c.o)
                0x0800177c                adc_enable_single_swstart
 .text.dma_irq_handler
                0x080017b2       0x1c C:\Users\Lenovo\AppData\Local\arduino\cores\6384da0a6fa2f70a2504de7ae90f6808\core.a(dma_f1.c.o)
 *fill*         0x080017ce        0x2 
 .text.__irq_dma1_channel1
                0x080017d0       0x10 C:\Users\Lenovo\AppData\Local\arduino\cores\6384da0a6fa2f70a2504de7ae90f6808\core.a(dma_f1.c.o)
                0x080017d0                __irq_dma1_channel1
 .text.__irq_dma1_channel2
                0x080017e0       0x10 C:\Users\Lenovo\AppData\Local\arduino\cores\6384da0a6fa2f70a2504de7ae90f6808\core.a(dma_f1.c.o)
                0x080017e0                __irq_dma1_channel2
 .text.__irq_dma1_channel3
                0x080017f0       0x10 C:\Users\Lenovo\AppData\Local\arduino\cores\6384da0a6fa2f70a2504de7ae90f6808\core.a(dma_f1.c.o)
                0x080017f0                __irq_dma1_channel3
 .text.__irq_dma1_channel4
                0x08001800       0x10 C:\Users\Lenovo\AppData\Local\arduino\cores\6384da0a6fa2f70a2504de7ae90f6808\core.a(dma_f1.c.o)
                0x08001800                __irq_dma1_channel4
 .text.__irq_dma1_channel5
                0x08001810       0x10 C:\Users\Lenovo\AppData\Local\arduino\cores\6384da0a6fa2f70a2504de7ae90f6808\core.a(dma_f1.c.o)
                0x08001810                __irq_dma1_channel5
 .text.__irq_dma1_channel6
                0x08001820       0x10 C:\Users\Lenovo\AppData\Local\arduino\cores\6384da0a6fa2f70a2504de7ae90f6808\core.a(dma_f1.c.o)
                0x08001820                __irq_dma1_channel6
 .text.__irq_dma1_channel7
                0x08001830       0x10 C:\Users\Lenovo\AppData\Local\arduino\cores\6384da0a6fa2f70a2504de7ae90f6808\core.a(dma_f1.c.o)
                0x08001830                __irq_dma1_channel7
 .text          0x08001840       0x60 C:\Users\Lenovo\AppData\Local\arduino\cores\6384da0a6fa2f70a2504de7ae90f6808\core.a(exc.S.o)
                0x08001840                __exc_nmi
                0x08001844                __exc_hardfault
                0x08001848                __exc_memmanage
                0x0800184c                __exc_busfault
                0x08001850                __exc_usagefault
 .text.dispatch_single_exti
                0x080018a0       0x2c C:\Users\Lenovo\AppData\Local\arduino\cores\6384da0a6fa2f70a2504de7ae90f6808\core.a(exti.c.o)
                0x080018a0                dispatch_single_exti
 .text.dispatch_extis
                0x080018cc       0x4c C:\Users\Lenovo\AppData\Local\arduino\cores\6384da0a6fa2f70a2504de7ae90f6808\core.a(exti.c.o)
                0x080018cc                dispatch_extis
 .text.__irq_exti0
                0x08001918        0x6 C:\Users\Lenovo\AppData\Local\arduino\cores\6384da0a6fa2f70a2504de7ae90f6808\core.a(exti.c.o)
                0x08001918                __irq_exti0
 .text.__irq_exti1
                0x0800191e        0x6 C:\Users\Lenovo\AppData\Local\arduino\cores\6384da0a6fa2f70a2504de7ae90f6808\core.a(exti.c.o)
                0x0800191e                __irq_exti1
 .text.__irq_exti2
                0x08001924        0x6 C:\Users\Lenovo\AppData\Local\arduino\cores\6384da0a6fa2f70a2504de7ae90f6808\core.a(exti.c.o)
                0x08001924                __irq_exti2
 .text.__irq_exti3
                0x0800192a        0x6 C:\Users\Lenovo\AppData\Local\arduino\cores\6384da0a6fa2f70a2504de7ae90f6808\core.a(exti.c.o)
                0x0800192a                __irq_exti3
 .text.__irq_exti4
                0x08001930        0x6 C:\Users\Lenovo\AppData\Local\arduino\cores\6384da0a6fa2f70a2504de7ae90f6808\core.a(exti.c.o)
                0x08001930                __irq_exti4
 .text.__irq_exti9_5
                0x08001936        0x8 C:\Users\Lenovo\AppData\Local\arduino\cores\6384da0a6fa2f70a2504de7ae90f6808\core.a(exti.c.o)
                0x08001936                __irq_exti9_5
 .text.__irq_exti15_10
                0x0800193e        0x8 C:\Users\Lenovo\AppData\Local\arduino\cores\6384da0a6fa2f70a2504de7ae90f6808\core.a(exti.c.o)
                0x0800193e                __irq_exti15_10
 *fill*         0x08001946        0x2 
 .text.flash_set_latency
                0x08001948       0x14 C:\Users\Lenovo\AppData\Local\arduino\cores\6384da0a6fa2f70a2504de7ae90f6808\core.a(flash.c.o)
                0x08001948                flash_set_latency
 .text.gpio_init_all
                0x0800195c       0x30 C:\Users\Lenovo\AppData\Local\arduino\cores\6384da0a6fa2f70a2504de7ae90f6808\core.a(gpio_f1.c.o)
                0x0800195c                gpio_init_all
 .text.gpio_set_mode
                0x0800198c       0x50 C:\Users\Lenovo\AppData\Local\arduino\cores\6384da0a6fa2f70a2504de7ae90f6808\core.a(gpio_f1.c.o)
                0x0800198c                gpio_set_mode
 .text.afio_init
                0x080019dc       0x12 C:\Users\Lenovo\AppData\Local\arduino\cores\6384da0a6fa2f70a2504de7ae90f6808\core.a(gpio_f1.c.o)
                0x080019dc                afio_init
 *fill*         0x080019ee        0x2 
 .text.afio_remap
                0x080019f0       0x20 C:\Users\Lenovo\AppData\Local\arduino\cores\6384da0a6fa2f70a2504de7ae90f6808\core.a(gpio_f1.c.o)
                0x080019f0                afio_remap
 .text.__irq_i2c1_ev
                0x08001a10        0xc C:\Users\Lenovo\AppData\Local\arduino\cores\6384da0a6fa2f70a2504de7ae90f6808\core.a(i2c_f1.c.o)
                0x08001a10                __irq_i2c1_ev
 .text.__irq_i2c2_ev
                0x08001a1c        0xc C:\Users\Lenovo\AppData\Local\arduino\cores\6384da0a6fa2f70a2504de7ae90f6808\core.a(i2c_f1.c.o)
                0x08001a1c                __irq_i2c2_ev
 .text.__irq_i2c1_er
                0x08001a28        0xc C:\Users\Lenovo\AppData\Local\arduino\cores\6384da0a6fa2f70a2504de7ae90f6808\core.a(i2c_f1.c.o)
                0x08001a28                __irq_i2c1_er
 .text.__irq_i2c2_er
                0x08001a34        0xc C:\Users\Lenovo\AppData\Local\arduino\cores\6384da0a6fa2f70a2504de7ae90f6808\core.a(i2c_f1.c.o)
                0x08001a34                __irq_i2c2_er
 .text.nvic_irq_set_priority
                0x08001a40       0x28 C:\Users\Lenovo\AppData\Local\arduino\cores\6384da0a6fa2f70a2504de7ae90f6808\core.a(nvic.c.o)
                0x08001a40                nvic_irq_set_priority
 .text.nvic_init
                0x08001a68       0x30 C:\Users\Lenovo\AppData\Local\arduino\cores\6384da0a6fa2f70a2504de7ae90f6808\core.a(nvic.c.o)
                0x08001a68                nvic_init
 .text.rcc_dev_clk
                0x08001a98        0xc C:\Users\Lenovo\AppData\Local\arduino\cores\6384da0a6fa2f70a2504de7ae90f6808\core.a(rcc.c.o)
                0x08001a98                rcc_dev_clk
 .text.rcc_switch_sysclk
                0x08001aa4       0x20 C:\Users\Lenovo\AppData\Local\arduino\cores\6384da0a6fa2f70a2504de7ae90f6808\core.a(rcc.c.o)
                0x08001aa4                rcc_switch_sysclk
 .text.rcc_turn_on_clk
                0x08001ac4       0x1a C:\Users\Lenovo\AppData\Local\arduino\cores\6384da0a6fa2f70a2504de7ae90f6808\core.a(rcc.c.o)
                0x08001ac4                rcc_turn_on_clk
 .text.rcc_turn_off_clk
                0x08001ade       0x1c C:\Users\Lenovo\AppData\Local\arduino\cores\6384da0a6fa2f70a2504de7ae90f6808\core.a(rcc.c.o)
                0x08001ade                rcc_turn_off_clk
 .text.rcc_is_clk_ready
                0x08001afa       0x18 C:\Users\Lenovo\AppData\Local\arduino\cores\6384da0a6fa2f70a2504de7ae90f6808\core.a(rcc.c.o)
                0x08001afa                rcc_is_clk_ready
 *fill*         0x08001b12        0x2 
 .text.rcc_configure_pll
                0x08001b14       0x18 C:\Users\Lenovo\AppData\Local\arduino\cores\6384da0a6fa2f70a2504de7ae90f6808\core.a(rcc_f1.c.o)
                0x08001b14                rcc_configure_pll
 .text.rcc_clk_enable
                0x08001b2c       0x30 C:\Users\Lenovo\AppData\Local\arduino\cores\6384da0a6fa2f70a2504de7ae90f6808\core.a(rcc_f1.c.o)
                0x08001b2c                rcc_clk_enable
 .text.rcc_reset_dev
                0x08001b5c       0x34 C:\Users\Lenovo\AppData\Local\arduino\cores\6384da0a6fa2f70a2504de7ae90f6808\core.a(rcc_f1.c.o)
                0x08001b5c                rcc_reset_dev
 .text.rcc_set_prescaler
                0x08001b90       0x20 C:\Users\Lenovo\AppData\Local\arduino\cores\6384da0a6fa2f70a2504de7ae90f6808\core.a(rcc_f1.c.o)
                0x08001b90                rcc_set_prescaler
 .text.rcc_clk_disable
                0x08001bb0       0x30 C:\Users\Lenovo\AppData\Local\arduino\cores\6384da0a6fa2f70a2504de7ae90f6808\core.a(rcc_f1.c.o)
                0x08001bb0                rcc_clk_disable
 .text          0x08001be0        0x2 C:\Users\Lenovo\AppData\Local\arduino\cores\6384da0a6fa2f70a2504de7ae90f6808\core.a(isrs.S.o)
                0x08001be0                __stm32reservedexception9
                0x08001be0                __exc_debug_monitor
                0x08001be0                __exc_svc
                0x08001be0                __irq_can_rx1
                0x08001be0                __irq_spi2
                0x08001be0                __irq_can_sce
                0x08001be0                __irq_pvd
                0x08001be0                __irq_tamper
                0x08001be0                __default_handler
                0x08001be0                __irq_wwdg
                0x08001be0                __stm32reservedexception10
                0x08001be0                __irq_flash
                0x08001be0                __stm32reservedexception13
                0x08001be0                __irq_rtc
                0x08001be0                __irq_spi1
                0x08001be0                __stm32reservedexception7
                0x08001be0                __irq_usb_hp_can_tx
                0x08001be0                __irq_rtcalarm
                0x08001be0                __stm32reservedexception8
                0x08001be0                __exc_pendsv
                0x08001be0                __irq_usbwakeup
                0x08001be0                __irq_rcc
 *fill*         0x08001be2        0x2 
 .text.systick_init
                0x08001be4       0x10 C:\Users\Lenovo\AppData\Local\arduino\cores\6384da0a6fa2f70a2504de7ae90f6808\core.a(systick.c.o)
                0x08001be4                systick_init
 .text.__exc_systick
                0x08001bf4       0x1c C:\Users\Lenovo\AppData\Local\arduino\cores\6384da0a6fa2f70a2504de7ae90f6808\core.a(systick.c.o)
                0x08001bf4                __exc_systick
 .text.timer_oc_set_mode
                0x08001c10       0x3a C:\Users\Lenovo\AppData\Local\arduino\cores\6384da0a6fa2f70a2504de7ae90f6808\core.a(timer.c.o)
 .text.dispatch_general
                0x08001c4a       0x66 C:\Users\Lenovo\AppData\Local\arduino\cores\6384da0a6fa2f70a2504de7ae90f6808\core.a(timer.c.o)
 .text.timer_cc_enable
                0x08001cb0       0x1c C:\Users\Lenovo\AppData\Local\arduino\cores\6384da0a6fa2f70a2504de7ae90f6808\core.a(timer.c.o)
 .text.timer_foreach
                0x08001ccc       0x28 C:\Users\Lenovo\AppData\Local\arduino\cores\6384da0a6fa2f70a2504de7ae90f6808\core.a(timer.c.o)
                0x08001ccc                timer_foreach
 .text.timer_init
                0x08001cf4       0x14 C:\Users\Lenovo\AppData\Local\arduino\cores\6384da0a6fa2f70a2504de7ae90f6808\core.a(timer.c.o)
                0x08001cf4                timer_init
 .text.timer_has_cc_channel
                0x08001d08       0x30 C:\Users\Lenovo\AppData\Local\arduino\cores\6384da0a6fa2f70a2504de7ae90f6808\core.a(timer.c.o)
                0x08001d08                timer_has_cc_channel
 .text.timer_detach_interrupt
                0x08001d38       0x1e C:\Users\Lenovo\AppData\Local\arduino\cores\6384da0a6fa2f70a2504de7ae90f6808\core.a(timer.c.o)
                0x08001d38                timer_detach_interrupt
 .text.input_capture_mode
                0x08001d56       0x1a C:\Users\Lenovo\AppData\Local\arduino\cores\6384da0a6fa2f70a2504de7ae90f6808\core.a(timer.c.o)
                0x08001d56                input_capture_mode
 .text.timer_set_mode
                0x08001d70       0x8c C:\Users\Lenovo\AppData\Local\arduino\cores\6384da0a6fa2f70a2504de7ae90f6808\core.a(timer.c.o)
                0x08001d70                timer_set_mode
 .text.__irq_tim1_brk
                0x08001dfc       0x24 C:\Users\Lenovo\AppData\Local\arduino\cores\6384da0a6fa2f70a2504de7ae90f6808\core.a(timer.c.o)
                0x08001dfc                __irq_tim1_brk
 .text.__irq_tim1_up
                0x08001e20       0x24 C:\Users\Lenovo\AppData\Local\arduino\cores\6384da0a6fa2f70a2504de7ae90f6808\core.a(timer.c.o)
                0x08001e20                __irq_tim1_up
 .text.__irq_tim1_trg_com
                0x08001e44       0x34 C:\Users\Lenovo\AppData\Local\arduino\cores\6384da0a6fa2f70a2504de7ae90f6808\core.a(timer.c.o)
                0x08001e44                __irq_tim1_trg_com
 .text.__irq_tim1_cc
                0x08001e78       0x50 C:\Users\Lenovo\AppData\Local\arduino\cores\6384da0a6fa2f70a2504de7ae90f6808\core.a(timer.c.o)
                0x08001e78                __irq_tim1_cc
 .text.__irq_tim2
                0x08001ec8        0xc C:\Users\Lenovo\AppData\Local\arduino\cores\6384da0a6fa2f70a2504de7ae90f6808\core.a(timer.c.o)
                0x08001ec8                __irq_tim2
 .text.__irq_tim3
                0x08001ed4        0xc C:\Users\Lenovo\AppData\Local\arduino\cores\6384da0a6fa2f70a2504de7ae90f6808\core.a(timer.c.o)
                0x08001ed4                __irq_tim3
 .text.__irq_tim4
                0x08001ee0        0xc C:\Users\Lenovo\AppData\Local\arduino\cores\6384da0a6fa2f70a2504de7ae90f6808\core.a(timer.c.o)
                0x08001ee0                __irq_tim4
 .text.usart_tx
                0x08001eec       0x9c C:\Users\Lenovo\AppData\Local\arduino\cores\6384da0a6fa2f70a2504de7ae90f6808\core.a(usart.c.o)
                0x08001eec                usart_tx
 .text.usart_irq
                0x08001f88       0xc8 C:\Users\Lenovo\AppData\Local\arduino\cores\6384da0a6fa2f70a2504de7ae90f6808\core.a(usart_f1.c.o)
 .text.__irq_usart1
                0x08002050       0x18 C:\Users\Lenovo\AppData\Local\arduino\cores\6384da0a6fa2f70a2504de7ae90f6808\core.a(usart_f1.c.o)
                0x08002050                __irq_usart1
 .text.__irq_usart2
                0x08002068       0x18 C:\Users\Lenovo\AppData\Local\arduino\cores\6384da0a6fa2f70a2504de7ae90f6808\core.a(usart_f1.c.o)
                0x08002068                __irq_usart2
 .text.__irq_usart3
                0x08002080       0x18 C:\Users\Lenovo\AppData\Local\arduino\cores\6384da0a6fa2f70a2504de7ae90f6808\core.a(usart_f1.c.o)
                0x08002080                __irq_usart3
 .text.usb_resume
                0x08002098       0xb4 C:\Users\Lenovo\AppData\Local\arduino\cores\6384da0a6fa2f70a2504de7ae90f6808\core.a(usb.c.o)
 .text.__irq_usb_lp_can_rx0
                0x0800214c      0x1c8 C:\Users\Lenovo\AppData\Local\arduino\cores\6384da0a6fa2f70a2504de7ae90f6808\core.a(usb.c.o)
                0x0800214c                __irq_usb_lp_can_rx0
 .text.usb_set_ep_rx_stat
                0x08002314       0x22 C:\Users\Lenovo\AppData\Local\arduino\cores\6384da0a6fa2f70a2504de7ae90f6808\core.a(usb_cdcacm.c.o)
 *fill*         0x08002336        0x2 
 .text.vcomGetSetLineCoding
                0x08002338       0x18 C:\Users\Lenovo\AppData\Local\arduino\cores\6384da0a6fa2f70a2504de7ae90f6808\core.a(usb_cdcacm.c.o)
 .text.usbDataSetup
                0x08002350       0x54 C:\Users\Lenovo\AppData\Local\arduino\cores\6384da0a6fa2f70a2504de7ae90f6808\core.a(usb_cdcacm.c.o)
 .text.usbNoDataSetup
                0x080023a4       0x50 C:\Users\Lenovo\AppData\Local\arduino\cores\6384da0a6fa2f70a2504de7ae90f6808\core.a(usb_cdcacm.c.o)
 .text.usbGetInterfaceSetting
                0x080023f4       0x10 C:\Users\Lenovo\AppData\Local\arduino\cores\6384da0a6fa2f70a2504de7ae90f6808\core.a(usb_cdcacm.c.o)
 .text.usbGetStringDescriptor
                0x08002404       0x20 C:\Users\Lenovo\AppData\Local\arduino\cores\6384da0a6fa2f70a2504de7ae90f6808\core.a(usb_cdcacm.c.o)
 .text.usbGetConfigDescriptor
                0x08002424        0xc C:\Users\Lenovo\AppData\Local\arduino\cores\6384da0a6fa2f70a2504de7ae90f6808\core.a(usb_cdcacm.c.o)
 .text.usbGetDeviceDescriptor
                0x08002430        0xc C:\Users\Lenovo\AppData\Local\arduino\cores\6384da0a6fa2f70a2504de7ae90f6808\core.a(usb_cdcacm.c.o)
 .text.usbInit  0x0800243c       0x44 C:\Users\Lenovo\AppData\Local\arduino\cores\6384da0a6fa2f70a2504de7ae90f6808\core.a(usb_cdcacm.c.o)
 .text.usbReset
                0x08002480      0x160 C:\Users\Lenovo\AppData\Local\arduino\cores\6384da0a6fa2f70a2504de7ae90f6808\core.a(usb_cdcacm.c.o)
 .text.usb_set_ep_rx_count
                0x080025e0       0x4c C:\Users\Lenovo\AppData\Local\arduino\cores\6384da0a6fa2f70a2504de7ae90f6808\core.a(usb_reg_map.c.o)
                0x080025e0                usb_set_ep_rx_count
 .text.Standard_GetConfiguration
                0x0800262c       0x24 C:\Users\Lenovo\AppData\Local\arduino\cores\6384da0a6fa2f70a2504de7ae90f6808\core.a(usb_core.c.o)
                0x0800262c                Standard_GetConfiguration
 .text.Standard_GetInterface
                0x08002650       0x24 C:\Users\Lenovo\AppData\Local\arduino\cores\6384da0a6fa2f70a2504de7ae90f6808\core.a(usb_core.c.o)
                0x08002650                Standard_GetInterface
 .text.Standard_GetStatus
                0x08002674       0x90 C:\Users\Lenovo\AppData\Local\arduino\cores\6384da0a6fa2f70a2504de7ae90f6808\core.a(usb_core.c.o)
                0x08002674                Standard_GetStatus
 .text.DataStageIn
                0x08002704       0xa8 C:\Users\Lenovo\AppData\Local\arduino\cores\6384da0a6fa2f70a2504de7ae90f6808\core.a(usb_core.c.o)
 .text.Standard_SetConfiguration
                0x080027ac       0x38 C:\Users\Lenovo\AppData\Local\arduino\cores\6384da0a6fa2f70a2504de7ae90f6808\core.a(usb_core.c.o)
                0x080027ac                Standard_SetConfiguration
 .text.Standard_SetInterface
                0x080027e4       0x48 C:\Users\Lenovo\AppData\Local\arduino\cores\6384da0a6fa2f70a2504de7ae90f6808\core.a(usb_core.c.o)
                0x080027e4                Standard_SetInterface
 .text.Standard_ClearFeature
                0x0800282c       0xd0 C:\Users\Lenovo\AppData\Local\arduino\cores\6384da0a6fa2f70a2504de7ae90f6808\core.a(usb_core.c.o)
                0x0800282c                Standard_ClearFeature
 .text.Standard_SetEndPointFeature
                0x080028fc       0x84 C:\Users\Lenovo\AppData\Local\arduino\cores\6384da0a6fa2f70a2504de7ae90f6808\core.a(usb_core.c.o)
                0x080028fc                Standard_SetEndPointFeature
 .text.Standard_SetDeviceFeature
                0x08002980       0x24 C:\Users\Lenovo\AppData\Local\arduino\cores\6384da0a6fa2f70a2504de7ae90f6808\core.a(usb_core.c.o)
                0x08002980                Standard_SetDeviceFeature
 .text.Standard_GetDescriptorData
                0x080029a4       0x1c C:\Users\Lenovo\AppData\Local\arduino\cores\6384da0a6fa2f70a2504de7ae90f6808\core.a(usb_core.c.o)
                0x080029a4                Standard_GetDescriptorData
 .text.Post0_Process
                0x080029c0       0x40 C:\Users\Lenovo\AppData\Local\arduino\cores\6384da0a6fa2f70a2504de7ae90f6808\core.a(usb_core.c.o)
                0x080029c0                Post0_Process
 .text.Setup0_Process
                0x08002a00      0x2d0 C:\Users\Lenovo\AppData\Local\arduino\cores\6384da0a6fa2f70a2504de7ae90f6808\core.a(usb_core.c.o)
                0x08002a00                Setup0_Process
 .text.Out0_Process
                0x08002cd0       0xc8 C:\Users\Lenovo\AppData\Local\arduino\cores\6384da0a6fa2f70a2504de7ae90f6808\core.a(usb_core.c.o)
                0x08002cd0                Out0_Process
 .text.SetDeviceAddress
                0x08002d98       0x38 C:\Users\Lenovo\AppData\Local\arduino\cores\6384da0a6fa2f70a2504de7ae90f6808\core.a(usb_core.c.o)
                0x08002d98                SetDeviceAddress
 .text.In0_Process
                0x08002dd0       0x5c C:\Users\Lenovo\AppData\Local\arduino\cores\6384da0a6fa2f70a2504de7ae90f6808\core.a(usb_core.c.o)
                0x08002dd0                In0_Process
 .text.NOP_Process
                0x08002e2c        0x2 C:\Users\Lenovo\AppData\Local\arduino\cores\6384da0a6fa2f70a2504de7ae90f6808\core.a(usb_core.c.o)
                0x08002e2c                NOP_Process
 .text.UserToPMABufferCopy
                0x08002e2e       0x30 C:\Users\Lenovo\AppData\Local\arduino\cores\6384da0a6fa2f70a2504de7ae90f6808\core.a(usb_mem.c.o)
                0x08002e2e                UserToPMABufferCopy
 .text.PMAToUserBufferCopy
                0x08002e5e       0x32 C:\Users\Lenovo\AppData\Local\arduino\cores\6384da0a6fa2f70a2504de7ae90f6808\core.a(usb_mem.c.o)
                0x08002e5e                PMAToUserBufferCopy
 .text.SetEPTxStatus
                0x08002e90       0x2a C:\Users\Lenovo\AppData\Local\arduino\cores\6384da0a6fa2f70a2504de7ae90f6808\core.a(usb_regs.c.o)
                0x08002e90                SetEPTxStatus
 .text.ClearDTOG_RX
                0x08002eba       0x20 C:\Users\Lenovo\AppData\Local\arduino\cores\6384da0a6fa2f70a2504de7ae90f6808\core.a(usb_regs.c.o)
                0x08002eba                ClearDTOG_RX
 .text.ClearDTOG_TX
                0x08002eda       0x20 C:\Users\Lenovo\AppData\Local\arduino\cores\6384da0a6fa2f70a2504de7ae90f6808\core.a(usb_regs.c.o)
                0x08002eda                ClearDTOG_TX
 *fill*         0x08002efa        0x2 
 .text.GetEPTxAddr
                0x08002efc       0x1c C:\Users\Lenovo\AppData\Local\arduino\cores\6384da0a6fa2f70a2504de7ae90f6808\core.a(usb_regs.c.o)
                0x08002efc                GetEPTxAddr
 .text.GetEPRxAddr
                0x08002f18       0x1c C:\Users\Lenovo\AppData\Local\arduino\cores\6384da0a6fa2f70a2504de7ae90f6808\core.a(usb_regs.c.o)
                0x08002f18                GetEPRxAddr
 .text.SetEPTxCount
                0x08002f34       0x1c C:\Users\Lenovo\AppData\Local\arduino\cores\6384da0a6fa2f70a2504de7ae90f6808\core.a(usb_regs.c.o)
                0x08002f34                SetEPTxCount
 .text.SetEPRxCount
                0x08002f50       0x40 C:\Users\Lenovo\AppData\Local\arduino\cores\6384da0a6fa2f70a2504de7ae90f6808\core.a(usb_regs.c.o)
                0x08002f50                SetEPRxCount
 .text.throb    0x08002f90       0x4c C:\Users\Lenovo\AppData\Local\arduino\cores\6384da0a6fa2f70a2504de7ae90f6808\core.a(util.c.o)
                0x08002f90                throb
 .text.__error  0x08002fdc       0x14 C:\Users\Lenovo\AppData\Local\arduino\cores\6384da0a6fa2f70a2504de7ae90f6808\core.a(util.c.o)
                0x08002fdc                __error
 .text.startup._Z7premainv
                0x08002ff0        0x4 C:\Users\Lenovo\AppData\Local\arduino\cores\6384da0a6fa2f70a2504de7ae90f6808\core.a(main.cpp.o)
                0x08002ff0                premain()
 .text.startup.main
                0x08002ff4        0xc C:\Users\Lenovo\AppData\Local\arduino\cores\6384da0a6fa2f70a2504de7ae90f6808\core.a(main.cpp.o)
                0x08002ff4                main
 .text._Z7pinModeh13WiringPinMode
                0x08003000       0x84 C:\Users\Lenovo\AppData\Local\arduino\cores\6384da0a6fa2f70a2504de7ae90f6808\core.a(wirish_digital_f1.cpp.o)
                0x08003000                pinMode(unsigned char, WiringPinMode)
 .text._Z11digitalReadh
                0x08003084       0x2c C:\Users\Lenovo\AppData\Local\arduino\cores\6384da0a6fa2f70a2504de7ae90f6808\core.a(wirish_digital.cpp.o)
                0x08003084                digitalRead(unsigned char)
 .text._Z12digitalWritehh
                0x080030b0       0x2c C:\Users\Lenovo\AppData\Local\arduino\cores\6384da0a6fa2f70a2504de7ae90f6808\core.a(wirish_digital.cpp.o)
                0x080030b0                digitalWrite(unsigned char, unsigned char)
 .text.delayMicroseconds
                0x080030dc       0x10 C:\Users\Lenovo\AppData\Local\arduino\cores\6384da0a6fa2f70a2504de7ae90f6808\core.a(wirish_time.cpp.o)
                0x080030dc                delayMicroseconds
 .text.gpio_init
                0x080030ec       0x14 C:\Users\Lenovo\AppData\Local\arduino\cores\6384da0a6fa2f70a2504de7ae90f6808\core.a(gpio.c.o)
                0x080030ec                gpio_init
 .text.i2c_disable_irq
                0x08003100        0xc C:\Users\Lenovo\AppData\Local\arduino\cores\6384da0a6fa2f70a2504de7ae90f6808\core.a(i2c.c.o)
 .text._i2c_irq_handler
                0x0800310c      0x3d8 C:\Users\Lenovo\AppData\Local\arduino\cores\6384da0a6fa2f70a2504de7ae90f6808\core.a(i2c.c.o)
                0x0800310c                _i2c_irq_handler
 .text._i2c_irq_error_handler
                0x080034e4       0x74 C:\Users\Lenovo\AppData\Local\arduino\cores\6384da0a6fa2f70a2504de7ae90f6808\core.a(i2c.c.o)
                0x080034e4                _i2c_irq_error_handler
 .text          0x08003558       0x38 c:/users/lenovo/appdata/local/arduino15/packages/arduino/tools/arm-none-eabi-gcc/4.8.3-2014q1/bin/../lib/gcc/arm-none-eabi/4.8.3/armv7-m\libgcc.a(_aeabi_ldivmod.o)
                0x08003558                __aeabi_ldivmod
 .text          0x08003590       0x60 c:/users/lenovo/appdata/local/arduino15/packages/arduino/tools/arm-none-eabi-gcc/4.8.3-2014q1/bin/../lib/gcc/arm-none-eabi/4.8.3/armv7-m\libgcc.a(bpabi.o)
                0x08003590                __gnu_ldivmod_helper
                0x080035c0                __gnu_uldivmod_helper
 .text          0x080035f0        0x4 c:/users/lenovo/appdata/local/arduino15/packages/arduino/tools/arm-none-eabi-gcc/4.8.3-2014q1/bin/../lib/gcc/arm-none-eabi/4.8.3/armv7-m\libgcc.a(_dvmd_tls.o)
                0x080035f0                __aeabi_idiv0
                0x080035f0                __aeabi_ldiv0
 .text          0x080035f4      0x2a0 c:/users/lenovo/appdata/local/arduino15/packages/arduino/tools/arm-none-eabi-gcc/4.8.3-2014q1/bin/../lib/gcc/arm-none-eabi/4.8.3/armv7-m\libgcc.a(_divdi3.o)
                0x080035f4                __divdi3
 .text          0x08003894      0x290 c:/users/lenovo/appdata/local/arduino15/packages/arduino/tools/arm-none-eabi-gcc/4.8.3-2014q1/bin/../lib/gcc/arm-none-eabi/4.8.3/armv7-m\libgcc.a(_udivdi3.o)
                0x08003894                __udivdi3
 .text.exit     0x08003b24       0x28 c:/users/lenovo/appdata/local/arduino15/packages/arduino/tools/arm-none-eabi-gcc/4.8.3-2014q1/bin/../lib/gcc/arm-none-eabi/4.8.3/../../../../arm-none-eabi/lib/armv7-m\libc_s.a(lib_a-exit.o)
                0x08003b24                exit
 .text.__libc_init_array
                0x08003b4c       0x4c c:/users/lenovo/appdata/local/arduino15/packages/arduino/tools/arm-none-eabi-gcc/4.8.3-2014q1/bin/../lib/gcc/arm-none-eabi/4.8.3/../../../../arm-none-eabi/lib/armv7-m\libc_s.a(lib_a-init.o)
                0x08003b4c                __libc_init_array
 .text.strlen   0x08003b98       0x10 c:/users/lenovo/appdata/local/arduino15/packages/arduino/tools/arm-none-eabi-gcc/4.8.3-2014q1/bin/../lib/gcc/arm-none-eabi/4.8.3/../../../../arm-none-eabi/lib/armv7-m\libc_s.a(lib_a-strlen.o)
                0x08003b98                strlen
 *(.plt)
 *(.gnu.warning)
 *(.glue_7t)
 .glue_7t       0x00000000        0x0 linker stubs
 *(.glue_7)
 .glue_7        0x00000000        0x0 linker stubs
 *(.vfp11_veneer)
 .vfp11_veneer  0x00000000        0x0 linker stubs
 *(.ARM.extab* .gnu.linkonce.armextab.*)
 *(.gcc_except_table)
 *(.eh_frame_hdr)
 *(.eh_frame)
 .eh_frame      0x08003ba8        0x0 c:/users/lenovo/appdata/local/arduino15/packages/arduino/tools/arm-none-eabi-gcc/4.8.3-2014q1/bin/../lib/gcc/arm-none-eabi/4.8.3/armv7-m/crtbegin.o
                0x08003ba8                . = ALIGN (0x4)
 *(.init)
 .init          0x08003ba8        0x4 c:/users/lenovo/appdata/local/arduino15/packages/arduino/tools/arm-none-eabi-gcc/4.8.3-2014q1/bin/../lib/gcc/arm-none-eabi/4.8.3/armv7-m/crti.o
                0x08003ba8                _init
 .init          0x08003bac        0x8 c:/users/lenovo/appdata/local/arduino15/packages/arduino/tools/arm-none-eabi-gcc/4.8.3-2014q1/bin/../lib/gcc/arm-none-eabi/4.8.3/armv7-m/crtn.o
                0x08003bb4                . = ALIGN (0x4)
                0x08003bb4                __preinit_array_start = .
 *(.preinit_array)
                0x08003bb4                __preinit_array_end = .
                0x08003bb4                . = ALIGN (0x4)
                0x08003bb4                __init_array_start = .
 *(SORT(.init_array.*))
 .init_array.00101
                0x08003bb4        0x4 C:\Users\Lenovo\AppData\Local\arduino\cores\6384da0a6fa2f70a2504de7ae90f6808\core.a(main.cpp.o)
 *(.init_array)
 .init_array    0x08003bb8        0x4 c:/users/lenovo/appdata/local/arduino15/packages/arduino/tools/arm-none-eabi-gcc/4.8.3-2014q1/bin/../lib/gcc/arm-none-eabi/4.8.3/armv7-m/crtbegin.o
 .init_array    0x08003bbc        0x4 C:\Users\Lenovo\AppData\Local\arduino\sketches\0A1F667BE7A1596EA767C94737D7EA1C\sketch\Lavadora.ino.cpp.o
 .init_array    0x08003bc0        0x4 C:\Users\Lenovo\AppData\Local\arduino\sketches\0A1F667BE7A1596EA767C94737D7EA1C\core\board.cpp.o
                0x08003bc4                __init_array_end = .
                0x08003bc4                . = ALIGN (0x4)
 *crtbegin.o(.ctors)
 *(EXCLUDE_FILE(*crtend.o) .ctors)
 *(SORT(.ctors.*))
 *crtend.o(.ctors)
                0x08003bc4                . = ALIGN (0x4)
 *(.fini)
 .fini          0x08003bc4        0x4 c:/users/lenovo/appdata/local/arduino15/packages/arduino/tools/arm-none-eabi-gcc/4.8.3-2014q1/bin/../lib/gcc/arm-none-eabi/4.8.3/armv7-m/crti.o
                0x08003bc4                _fini
 .fini          0x08003bc8        0x8 c:/users/lenovo/appdata/local/arduino15/packages/arduino/tools/arm-none-eabi-gcc/4.8.3-2014q1/bin/../lib/gcc/arm-none-eabi/4.8.3/armv7-m/crtn.o
                0x08003bd0                . = ALIGN (0x4)
                0x08003bd0                __fini_array_start = .
 *(.fini_array)
 .fini_array    0x08003bd0        0x4 c:/users/lenovo/appdata/local/arduino15/packages/arduino/tools/arm-none-eabi-gcc/4.8.3-2014q1/bin/../lib/gcc/arm-none-eabi/4.8.3/armv7-m/crtbegin.o
 *(SORT(.fini_array.*))
                0x08003bd4                __fini_array_end = .
 *crtbegin.o(.dtors)
 *(EXCLUDE_FILE(*crtend.o) .dtors)
 *(SORT(.dtors.*))
 *crtend.o(.dtors)

.v4_bx          0x08003bd4        0x0
 .v4_bx         0x00000000        0x0 linker stubs

.iplt           0x08003bd4        0x0
 .iplt          0x00000000        0x0 c:/users/lenovo/appdata/local/arduino15/packages/arduino/tools/arm-none-eabi-gcc/4.8.3-2014q1/bin/../lib/gcc/arm-none-eabi/4.8.3/armv7-m/crtbegin.o

.text.align     0x08003bd4        0x4
                0x08003bd8                . = ALIGN (0x8)
 *fill*         0x08003bd4        0x4 
                0x08003bd8                __text_end__ = .
                0x08003bd8                __exidx_start = .

.ARM.exidx      0x08003bd8        0x8
 *(.ARM.exidx* .gnu.linkonce.armexidx.*)
 .ARM.exidx     0x08003bd8        0x8 C:\Users\Lenovo\AppData\Local\arduino\sketches\0A1F667BE7A1596EA767C94737D7EA1C\core\wirish\start.S.o
 .ARM.exidx     0x08003be0        0x0 c:/users/lenovo/appdata/local/arduino15/packages/arduino/tools/arm-none-eabi-gcc/4.8.3-2014q1/bin/../lib/gcc/arm-none-eabi/4.8.3/armv7-m\libgcc.a(_divdi3.o)
                                  0x8 (size before relaxing)
 .ARM.exidx     0x08003be0        0x0 c:/users/lenovo/appdata/local/arduino15/packages/arduino/tools/arm-none-eabi-gcc/4.8.3-2014q1/bin/../lib/gcc/arm-none-eabi/4.8.3/armv7-m\libgcc.a(_udivdi3.o)
                                  0x8 (size before relaxing)
                0x08003be0                __exidx_end = .

.data           0x20000000      0x478 load address 0x08003be0
                0x20000000                __data_start__ = .
                0x20000000        0x4 LONG 0x0
                0x20000008                . = ALIGN (0x8)
 *fill*         0x20000004        0x4 
 *(.got.plt)
 *(.got)
 *(.data .data.* .gnu.linkonce.d.*)
 .data.prevEstadoTemperatura
                0x20000008        0x1 C:\Users\Lenovo\AppData\Local\arduino\sketches\0A1F667BE7A1596EA767C94737D7EA1C\sketch\Lavadora.ino.cpp.o
                0x20000008                prevEstadoTemperatura
 .data.prevEstadoEncender
                0x20000009        0x1 C:\Users\Lenovo\AppData\Local\arduino\sketches\0A1F667BE7A1596EA767C94737D7EA1C\sketch\Lavadora.ino.cpp.o
                0x20000009                prevEstadoEncender
 .data.prevEstadoIniciar
                0x2000000a        0x1 C:\Users\Lenovo\AppData\Local\arduino\sketches\0A1F667BE7A1596EA767C94737D7EA1C\sketch\Lavadora.ino.cpp.o
                0x2000000a                prevEstadoIniciar
 .data.prevEstadoTipoLavado
                0x2000000b        0x1 C:\Users\Lenovo\AppData\Local\arduino\sketches\0A1F667BE7A1596EA767C94737D7EA1C\sketch\Lavadora.ino.cpp.o
                0x2000000b                prevEstadoTipoLavado
 .data.prevEstadoLavado
                0x2000000c        0x1 C:\Users\Lenovo\AppData\Local\arduino\sketches\0A1F667BE7A1596EA767C94737D7EA1C\sketch\Lavadora.ino.cpp.o
                0x2000000c                prevEstadoLavado
 .data.prevEstadoEnjuague
                0x2000000d        0x1 C:\Users\Lenovo\AppData\Local\arduino\sketches\0A1F667BE7A1596EA767C94737D7EA1C\sketch\Lavadora.ino.cpp.o
                0x2000000d                prevEstadoEnjuague
 .data.prevEstadoNivelAgua
                0x2000000e        0x1 C:\Users\Lenovo\AppData\Local\arduino\sketches\0A1F667BE7A1596EA767C94737D7EA1C\sketch\Lavadora.ino.cpp.o
                0x2000000e                prevEstadoNivelAgua
 .data.prevEstadoRopa
                0x2000000f        0x1 C:\Users\Lenovo\AppData\Local\arduino\sketches\0A1F667BE7A1596EA767C94737D7EA1C\sketch\Lavadora.ino.cpp.o
                0x2000000f                prevEstadoRopa
 .data.prevEstadoCentrifugado
                0x20000010        0x1 C:\Users\Lenovo\AppData\Local\arduino\sketches\0A1F667BE7A1596EA767C94737D7EA1C\sketch\Lavadora.ino.cpp.o
                0x20000010                prevEstadoCentrifugado
 *fill*         0x20000011        0x3 
 .data._ZN6wirish4privL8pll_dataE
                0x20000014        0x4 C:\Users\Lenovo\AppData\Local\arduino\sketches\0A1F667BE7A1596EA767C94737D7EA1C\core\wirish\boards_setup.cpp.o
 .data._ZN6wirish4priv9w_adc_smpE
                0x20000018        0x1 C:\Users\Lenovo\AppData\Local\arduino\sketches\0A1F667BE7A1596EA767C94737D7EA1C\core\wirish\boards_setup.cpp.o
                0x20000018                wirish::priv::w_adc_smp
 *fill*         0x20000019        0x1 
 .data._ZN6wirish4priv9w_adc_preE
                0x2000001a        0x2 C:\Users\Lenovo\AppData\Local\arduino\sketches\0A1F667BE7A1596EA767C94737D7EA1C\core\wirish\boards_setup.cpp.o
                0x2000001a                wirish::priv::w_adc_pre
 .data._ZN6wirish4priv15w_board_pll_cfgE
                0x2000001c        0x8 C:\Users\Lenovo\AppData\Local\arduino\sketches\0A1F667BE7A1596EA767C94737D7EA1C\core\wirish\boards_setup.cpp.o
                0x2000001c                wirish::priv::w_board_pll_cfg
 .data.adc2     0x20000024        0x8 C:\Users\Lenovo\AppData\Local\arduino\cores\6384da0a6fa2f70a2504de7ae90f6808\core.a(adc_f1.c.o)
                0x20000024                adc2
 .data.adc1     0x2000002c       0x18 C:\Users\Lenovo\AppData\Local\arduino\cores\6384da0a6fa2f70a2504de7ae90f6808\core.a(adc_f1.c.o)
                0x2000002c                adc1
 .data.ADC2     0x20000044        0x4 C:\Users\Lenovo\AppData\Local\arduino\cores\6384da0a6fa2f70a2504de7ae90f6808\core.a(adc_f1.c.o)
                0x20000044                ADC2
 .data.ADC1     0x20000048        0x4 C:\Users\Lenovo\AppData\Local\arduino\cores\6384da0a6fa2f70a2504de7ae90f6808\core.a(adc_f1.c.o)
                0x20000048                ADC1
 .data.dma1     0x2000004c       0x40 C:\Users\Lenovo\AppData\Local\arduino\cores\6384da0a6fa2f70a2504de7ae90f6808\core.a(dma_f1.c.o)
 .data.DMA1     0x2000008c        0x4 C:\Users\Lenovo\AppData\Local\arduino\cores\6384da0a6fa2f70a2504de7ae90f6808\core.a(dma_f1.c.o)
                0x2000008c                DMA1
 .data.gpioa    0x20000090        0x8 C:\Users\Lenovo\AppData\Local\arduino\cores\6384da0a6fa2f70a2504de7ae90f6808\core.a(gpio_f1.c.o)
                0x20000090                gpioa
 .data.gpiob    0x20000098        0x8 C:\Users\Lenovo\AppData\Local\arduino\cores\6384da0a6fa2f70a2504de7ae90f6808\core.a(gpio_f1.c.o)
                0x20000098                gpiob
 .data.gpioc    0x200000a0        0x8 C:\Users\Lenovo\AppData\Local\arduino\cores\6384da0a6fa2f70a2504de7ae90f6808\core.a(gpio_f1.c.o)
                0x200000a0                gpioc
 .data.gpiod    0x200000a8        0x8 C:\Users\Lenovo\AppData\Local\arduino\cores\6384da0a6fa2f70a2504de7ae90f6808\core.a(gpio_f1.c.o)
                0x200000a8                gpiod
 .data.i2c1     0x200000b0       0x38 C:\Users\Lenovo\AppData\Local\arduino\cores\6384da0a6fa2f70a2504de7ae90f6808\core.a(i2c_f1.c.o)
 .data.i2c2     0x200000e8       0x38 C:\Users\Lenovo\AppData\Local\arduino\cores\6384da0a6fa2f70a2504de7ae90f6808\core.a(i2c_f1.c.o)
 .data.enable_regs.4411
                0x20000120        0xc C:\Users\Lenovo\AppData\Local\arduino\cores\6384da0a6fa2f70a2504de7ae90f6808\core.a(rcc_f1.c.o)
 .data.reset_regs.4415
                0x2000012c        0x8 C:\Users\Lenovo\AppData\Local\arduino\cores\6384da0a6fa2f70a2504de7ae90f6808\core.a(rcc_f1.c.o)
 .data.enable_regs.4424
                0x20000134        0xc C:\Users\Lenovo\AppData\Local\arduino\cores\6384da0a6fa2f70a2504de7ae90f6808\core.a(rcc_f1.c.o)
 .data.timer3   0x20000140       0x24 C:\Users\Lenovo\AppData\Local\arduino\cores\6384da0a6fa2f70a2504de7ae90f6808\core.a(timer.c.o)
                0x20000140                timer3
 .data.timer4   0x20000164       0x24 C:\Users\Lenovo\AppData\Local\arduino\cores\6384da0a6fa2f70a2504de7ae90f6808\core.a(timer.c.o)
                0x20000164                timer4
 .data.timer1   0x20000188       0x28 C:\Users\Lenovo\AppData\Local\arduino\cores\6384da0a6fa2f70a2504de7ae90f6808\core.a(timer.c.o)
                0x20000188                timer1
 .data.timer2   0x200001b0       0x24 C:\Users\Lenovo\AppData\Local\arduino\cores\6384da0a6fa2f70a2504de7ae90f6808\core.a(timer.c.o)
                0x200001b0                timer2
 .data.USART1   0x200001d4        0x4 C:\Users\Lenovo\AppData\Local\arduino\cores\6384da0a6fa2f70a2504de7ae90f6808\core.a(usart_f1.c.o)
                0x200001d4                USART1
 .data.USART2   0x200001d8        0x4 C:\Users\Lenovo\AppData\Local\arduino\cores\6384da0a6fa2f70a2504de7ae90f6808\core.a(usart_f1.c.o)
                0x200001d8                USART2
 .data.USART3   0x200001dc        0x4 C:\Users\Lenovo\AppData\Local\arduino\cores\6384da0a6fa2f70a2504de7ae90f6808\core.a(usart_f1.c.o)
                0x200001dc                USART3
 .data.usart1   0x200001e0       0x94 C:\Users\Lenovo\AppData\Local\arduino\cores\6384da0a6fa2f70a2504de7ae90f6808\core.a(usart_f1.c.o)
 .data.usart2   0x20000274       0x94 C:\Users\Lenovo\AppData\Local\arduino\cores\6384da0a6fa2f70a2504de7ae90f6808\core.a(usart_f1.c.o)
 .data.usart3   0x20000308       0x94 C:\Users\Lenovo\AppData\Local\arduino\cores\6384da0a6fa2f70a2504de7ae90f6808\core.a(usart_f1.c.o)
 .data.USBLIB   0x2000039c        0x4 C:\Users\Lenovo\AppData\Local\arduino\cores\6384da0a6fa2f70a2504de7ae90f6808\core.a(usb.c.o)
                0x2000039c                USBLIB
 .data.usblib   0x200003a0       0x10 C:\Users\Lenovo\AppData\Local\arduino\cores\6384da0a6fa2f70a2504de7ae90f6808\core.a(usb.c.o)
 .data.Config_Descriptor
                0x200003b0        0x8 C:\Users\Lenovo\AppData\Local\arduino\cores\6384da0a6fa2f70a2504de7ae90f6808\core.a(usb_cdcacm.c.o)
 .data.Device_Property
                0x200003b8       0x30 C:\Users\Lenovo\AppData\Local\arduino\cores\6384da0a6fa2f70a2504de7ae90f6808\core.a(usb_cdcacm.c.o)
                0x200003b8                Device_Property
 .data.String_Descriptor
                0x200003e8       0x18 C:\Users\Lenovo\AppData\Local\arduino\cores\6384da0a6fa2f70a2504de7ae90f6808\core.a(usb_cdcacm.c.o)
 .data.line_coding
                0x20000400        0x7 C:\Users\Lenovo\AppData\Local\arduino\cores\6384da0a6fa2f70a2504de7ae90f6808\core.a(usb_cdcacm.c.o)
 *fill*         0x20000407        0x1 
 .data.Device_Descriptor
                0x20000408        0x8 C:\Users\Lenovo\AppData\Local\arduino\cores\6384da0a6fa2f70a2504de7ae90f6808\core.a(usb_cdcacm.c.o)
 .data.Device_Table
                0x20000410        0x2 C:\Users\Lenovo\AppData\Local\arduino\cores\6384da0a6fa2f70a2504de7ae90f6808\core.a(usb_cdcacm.c.o)
                0x20000410                Device_Table
 *fill*         0x20000412        0x2 
 .data.impure_data
                0x20000414       0x60 c:/users/lenovo/appdata/local/arduino15/packages/arduino/tools/arm-none-eabi-gcc/4.8.3-2014q1/bin/../lib/gcc/arm-none-eabi/4.8.3/../../../../arm-none-eabi/lib/armv7-m\libc_s.a(lib_a-impure.o)
                0x20000478                . = ALIGN (0x8)
 *fill*         0x20000474        0x4 
                0x20000478                __data_end__ = .

.jcr            0x20000478        0x0 load address 0x08004058
 .jcr           0x20000478        0x0 c:/users/lenovo/appdata/local/arduino15/packages/arduino/tools/arm-none-eabi-gcc/4.8.3-2014q1/bin/../lib/gcc/arm-none-eabi/4.8.3/armv7-m/crtbegin.o

.igot.plt       0x20000478        0x0 load address 0x08004058
 .igot.plt      0x00000000        0x0 c:/users/lenovo/appdata/local/arduino15/packages/arduino/tools/arm-none-eabi-gcc/4.8.3-2014q1/bin/../lib/gcc/arm-none-eabi/4.8.3/armv7-m/crtbegin.o

.rodata         0x08004058      0x488
 *(.rodata .rodata.* .gnu.linkonce.r.*)
 .rodata        0x08004058       0x10 C:\Users\Lenovo\AppData\Local\arduino\sketches\0A1F667BE7A1596EA767C94737D7EA1C\sketch\Lavadora.ino.cpp.o
 .rodata._ZL12digitCodeMap
                0x08004068       0x29 C:\Users\Lenovo\AppData\Local\arduino\sketches\0A1F667BE7A1596EA767C94737D7EA1C\sketch\SevSeg.cpp.o
 *fill*         0x08004091        0x3 
 .rodata._ZL10powersOf10
                0x08004094       0x28 C:\Users\Lenovo\AppData\Local\arduino\sketches\0A1F667BE7A1596EA767C94737D7EA1C\sketch\SevSeg.cpp.o
 .rodata._ZL10powersOf16
                0x080040bc       0x20 C:\Users\Lenovo\AppData\Local\arduino\sketches\0A1F667BE7A1596EA767C94737D7EA1C\sketch\SevSeg.cpp.o
 .rodata.PIN_MAP
                0x080040dc      0x2e0 C:\Users\Lenovo\AppData\Local\arduino\sketches\0A1F667BE7A1596EA767C94737D7EA1C\core\board.cpp.o
                0x080040dc                PIN_MAP
 *fill*         0x080043bc        0x4 
 .rodata._ZTV14HardwareSerial
                0x080043c0       0x28 C:\Users\Lenovo\AppData\Local\arduino\cores\6384da0a6fa2f70a2504de7ae90f6808\core.a(HardwareSerial.cpp.o)
                0x080043c0                vtable for HardwareSerial
 .rodata.GPIOB  0x080043e8        0x4 C:\Users\Lenovo\AppData\Local\arduino\cores\6384da0a6fa2f70a2504de7ae90f6808\core.a(gpio_f1.c.o)
                0x080043e8                GPIOB
 .rodata.rcc_dev_table
                0x080043ec       0x5c C:\Users\Lenovo\AppData\Local\arduino\cores\6384da0a6fa2f70a2504de7ae90f6808\core.a(rcc_f1.c.o)
                0x080043ec                rcc_dev_table
 .rodata.masks.4420
                0x08004448       0x14 C:\Users\Lenovo\AppData\Local\arduino\cores\6384da0a6fa2f70a2504de7ae90f6808\core.a(rcc_f1.c.o)
 .rodata.usbVcomDescriptor_iProduct
                0x0800445c        0xc C:\Users\Lenovo\AppData\Local\arduino\cores\6384da0a6fa2f70a2504de7ae90f6808\core.a(usb_cdcacm.c.o)
 .rodata.usbVcomDescriptor_iManufacturer
                0x08004468       0x12 C:\Users\Lenovo\AppData\Local\arduino\cores\6384da0a6fa2f70a2504de7ae90f6808\core.a(usb_cdcacm.c.o)
 .rodata.usbVcomDescriptor_Device
                0x0800447a       0x12 C:\Users\Lenovo\AppData\Local\arduino\cores\6384da0a6fa2f70a2504de7ae90f6808\core.a(usb_cdcacm.c.o)
 .rodata.usbVcomDescriptor_Config
                0x0800448c       0x43 C:\Users\Lenovo\AppData\Local\arduino\cores\6384da0a6fa2f70a2504de7ae90f6808\core.a(usb_cdcacm.c.o)
 .rodata.usbVcomDescriptor_LangID
                0x080044cf        0x4 C:\Users\Lenovo\AppData\Local\arduino\cores\6384da0a6fa2f70a2504de7ae90f6808\core.a(usb_cdcacm.c.o)
 .rodata.str1.1
                0x080044d3        0x2 c:/users/lenovo/appdata/local/arduino15/packages/arduino/tools/arm-none-eabi-gcc/4.8.3-2014q1/bin/../lib/gcc/arm-none-eabi/4.8.3/../../../../arm-none-eabi/lib/armv7-m\libc_s.a(lib_a-impure.o)
 *fill*         0x080044d5        0x3 
 .rodata._global_impure_ptr
                0x080044d8        0x4 c:/users/lenovo/appdata/local/arduino15/packages/arduino/tools/arm-none-eabi-gcc/4.8.3-2014q1/bin/../lib/gcc/arm-none-eabi/4.8.3/../../../../arm-none-eabi/lib/armv7-m\libc_s.a(lib_a-impure.o)
                0x080044d8                _global_impure_ptr
 *(.USER_FLASH)
                0x080044dc                . = ALIGN (0x4)
                0x080044dc                _lm_rom_img_cfgp = .
                0x080044dc        0x4 LONG 0x8003be0 LOADADDR (.data)
                0x20000688                _lm_heap_start = DEFINED (_lm_heap_start)?_lm_heap_start:_end
                0x20005000                _lm_heap_end = DEFINED (_lm_heap_end)?_lm_heap_end:__msp_init

.rel.dyn        0x080044e0        0x0
 .rel.iplt      0x00000000        0x0 c:/users/lenovo/appdata/local/arduino15/packages/arduino/tools/arm-none-eabi-gcc/4.8.3-2014q1/bin/../lib/gcc/arm-none-eabi/4.8.3/armv7-m/crtbegin.o

.bss            0x20000478      0x210
                0x20000478                . = ALIGN (0x8)
                0x20000478                __bss_start__ = .
 *(.bss .bss.* .gnu.linkonce.b.*)
 .bss           0x20000478       0x1c c:/users/lenovo/appdata/local/arduino15/packages/arduino/tools/arm-none-eabi-gcc/4.8.3-2014q1/bin/../lib/gcc/arm-none-eabi/4.8.3/armv7-m/crtbegin.o
 .bss.minutos   0x20000494        0x4 C:\Users\Lenovo\AppData\Local\arduino\sketches\0A1F667BE7A1596EA767C94737D7EA1C\sketch\Lavadora.ino.cpp.o
                0x20000494                minutos
 .bss.centrifugadoSeleccionado
                0x20000498        0x4 C:\Users\Lenovo\AppData\Local\arduino\sketches\0A1F667BE7A1596EA767C94737D7EA1C\sketch\Lavadora.ino.cpp.o
                0x20000498                centrifugadoSeleccionado
 .bss.enjuagueSeleccionado
                0x2000049c        0x4 C:\Users\Lenovo\AppData\Local\arduino\sketches\0A1F667BE7A1596EA767C94737D7EA1C\sketch\Lavadora.ino.cpp.o
                0x2000049c                enjuagueSeleccionado
 .bss.horas     0x200004a0        0x4 C:\Users\Lenovo\AppData\Local\arduino\sketches\0A1F667BE7A1596EA767C94737D7EA1C\sketch\Lavadora.ino.cpp.o
                0x200004a0                horas
 .bss._ZZ22actualizarTemporizadorvE7endTime
                0x200004a4        0x4 C:\Users\Lenovo\AppData\Local\arduino\sketches\0A1F667BE7A1596EA767C94737D7EA1C\sketch\Lavadora.ino.cpp.o
 .bss.contadorLavado
                0x200004a8        0x4 C:\Users\Lenovo\AppData\Local\arduino\sketches\0A1F667BE7A1596EA767C94737D7EA1C\sketch\Lavadora.ino.cpp.o
                0x200004a8                contadorLavado
 .bss.contadorAgua
                0x200004ac        0x4 C:\Users\Lenovo\AppData\Local\arduino\sketches\0A1F667BE7A1596EA767C94737D7EA1C\sketch\Lavadora.ino.cpp.o
                0x200004ac                contadorAgua
 .bss.enMarcha  0x200004b0        0x1 C:\Users\Lenovo\AppData\Local\arduino\sketches\0A1F667BE7A1596EA767C94737D7EA1C\sketch\Lavadora.ino.cpp.o
                0x200004b0                enMarcha
 *fill*         0x200004b1        0x3 
 .bss.tipoLavadoSeleccionado
                0x200004b4        0x4 C:\Users\Lenovo\AppData\Local\arduino\sketches\0A1F667BE7A1596EA767C94737D7EA1C\sketch\Lavadora.ino.cpp.o
                0x200004b4                tipoLavadoSeleccionado
 .bss.temperaturaBloqueada
                0x200004b8        0x1 C:\Users\Lenovo\AppData\Local\arduino\sketches\0A1F667BE7A1596EA767C94737D7EA1C\sketch\Lavadora.ino.cpp.o
                0x200004b8                temperaturaBloqueada
 *fill*         0x200004b9        0x3 
 .bss.contadorEnjuague
                0x200004bc        0x4 C:\Users\Lenovo\AppData\Local\arduino\sketches\0A1F667BE7A1596EA767C94737D7EA1C\sketch\Lavadora.ino.cpp.o
                0x200004bc                contadorEnjuague
 .bss.lastUpdateTime
                0x200004c0        0x4 C:\Users\Lenovo\AppData\Local\arduino\sketches\0A1F667BE7A1596EA767C94737D7EA1C\sketch\Lavadora.ino.cpp.o
                0x200004c0                lastUpdateTime
 .bss.sevseg    0x200004c4       0x30 C:\Users\Lenovo\AppData\Local\arduino\sketches\0A1F667BE7A1596EA767C94737D7EA1C\sketch\Lavadora.ino.cpp.o
                0x200004c4                sevseg
 .bss.tiempoLavadoSeleccionado
                0x200004f4        0x4 C:\Users\Lenovo\AppData\Local\arduino\sketches\0A1F667BE7A1596EA767C94737D7EA1C\sketch\Lavadora.ino.cpp.o
                0x200004f4                tiempoLavadoSeleccionado
 .bss.nivelAguaSeleccionado
                0x200004f8        0x4 C:\Users\Lenovo\AppData\Local\arduino\sketches\0A1F667BE7A1596EA767C94737D7EA1C\sketch\Lavadora.ino.cpp.o
                0x200004f8                nivelAguaSeleccionado
 .bss.segundos  0x200004fc        0x4 C:\Users\Lenovo\AppData\Local\arduino\sketches\0A1F667BE7A1596EA767C94737D7EA1C\sketch\Lavadora.ino.cpp.o
                0x200004fc                segundos
 .bss._ZZ18cambiarTemperaturavE17estadoTemperatura
                0x20000500        0x4 C:\Users\Lenovo\AppData\Local\arduino\sketches\0A1F667BE7A1596EA767C94737D7EA1C\sketch\Lavadora.ino.cpp.o
 .bss.sistemaEncendido
                0x20000504        0x1 C:\Users\Lenovo\AppData\Local\arduino\sketches\0A1F667BE7A1596EA767C94737D7EA1C\sketch\Lavadora.ino.cpp.o
                0x20000504                sistemaEncendido
 *fill*         0x20000505        0x3 
 .bss.cantidadSeleccionada
                0x20000508        0x4 C:\Users\Lenovo\AppData\Local\arduino\sketches\0A1F667BE7A1596EA767C94737D7EA1C\sketch\Lavadora.ino.cpp.o
                0x20000508                cantidadSeleccionada
 .bss.contadorCentrifugado
                0x2000050c        0x4 C:\Users\Lenovo\AppData\Local\arduino\sketches\0A1F667BE7A1596EA767C94737D7EA1C\sketch\Lavadora.ino.cpp.o
                0x2000050c                contadorCentrifugado
 .bss.temperaturaSeleccionada
                0x20000510        0x4 C:\Users\Lenovo\AppData\Local\arduino\sketches\0A1F667BE7A1596EA767C94737D7EA1C\sketch\Lavadora.ino.cpp.o
                0x20000510                temperaturaSeleccionada
 .bss.Serial1   0x20000514       0x18 C:\Users\Lenovo\AppData\Local\arduino\sketches\0A1F667BE7A1596EA767C94737D7EA1C\core\board.cpp.o
                0x20000514                Serial1
 .bss.Serial2   0x2000052c       0x18 C:\Users\Lenovo\AppData\Local\arduino\sketches\0A1F667BE7A1596EA767C94737D7EA1C\core\board.cpp.o
                0x2000052c                Serial2
 .bss.Serial3   0x20000544       0x18 C:\Users\Lenovo\AppData\Local\arduino\sketches\0A1F667BE7A1596EA767C94737D7EA1C\core\board.cpp.o
                0x20000544                Serial3
 .bss.exti_channels
                0x2000055c       0x80 C:\Users\Lenovo\AppData\Local\arduino\cores\6384da0a6fa2f70a2504de7ae90f6808\core.a(exti.c.o)
                0x2000055c                exti_channels
 .bss.systick_user_callback
                0x200005dc        0x4 C:\Users\Lenovo\AppData\Local\arduino\cores\6384da0a6fa2f70a2504de7ae90f6808\core.a(systick.c.o)
 .bss.usart1_wb
                0x200005e0        0xc C:\Users\Lenovo\AppData\Local\arduino\cores\6384da0a6fa2f70a2504de7ae90f6808\core.a(usart_f1.c.o)
 .bss.usart1_rb
                0x200005ec        0xc C:\Users\Lenovo\AppData\Local\arduino\cores\6384da0a6fa2f70a2504de7ae90f6808\core.a(usart_f1.c.o)
 .bss.usart2_rb
                0x200005f8        0xc C:\Users\Lenovo\AppData\Local\arduino\cores\6384da0a6fa2f70a2504de7ae90f6808\core.a(usart_f1.c.o)
 .bss.usart3_rb
                0x20000604        0xc C:\Users\Lenovo\AppData\Local\arduino\cores\6384da0a6fa2f70a2504de7ae90f6808\core.a(usart_f1.c.o)
 .bss.usart2_wb
                0x20000610        0xc C:\Users\Lenovo\AppData\Local\arduino\cores\6384da0a6fa2f70a2504de7ae90f6808\core.a(usart_f1.c.o)
 .bss.usart3_wb
                0x2000061c        0xc C:\Users\Lenovo\AppData\Local\arduino\cores\6384da0a6fa2f70a2504de7ae90f6808\core.a(usart_f1.c.o)
 .bss.line_dtr_rts
                0x20000628        0x1 C:\Users\Lenovo\AppData\Local\arduino\cores\6384da0a6fa2f70a2504de7ae90f6808\core.a(usb_cdcacm.c.o)
 *fill*         0x20000629        0x3 
 .bss.tx_head   0x2000062c        0x4 C:\Users\Lenovo\AppData\Local\arduino\cores\6384da0a6fa2f70a2504de7ae90f6808\core.a(usb_cdcacm.c.o)
 .bss.transmitting
                0x20000630        0x1 C:\Users\Lenovo\AppData\Local\arduino\cores\6384da0a6fa2f70a2504de7ae90f6808\core.a(usb_cdcacm.c.o)
 *fill*         0x20000631        0x3 
 .bss.rx_tail   0x20000634        0x4 C:\Users\Lenovo\AppData\Local\arduino\cores\6384da0a6fa2f70a2504de7ae90f6808\core.a(usb_cdcacm.c.o)
 .bss.iface_setup_hook
                0x20000638        0x4 C:\Users\Lenovo\AppData\Local\arduino\cores\6384da0a6fa2f70a2504de7ae90f6808\core.a(usb_cdcacm.c.o)
 .bss.rx_head   0x2000063c        0x4 C:\Users\Lenovo\AppData\Local\arduino\cores\6384da0a6fa2f70a2504de7ae90f6808\core.a(usb_cdcacm.c.o)
 .bss.tx_tail   0x20000640        0x4 C:\Users\Lenovo\AppData\Local\arduino\cores\6384da0a6fa2f70a2504de7ae90f6808\core.a(usb_cdcacm.c.o)
 .bss.Data_Mul_MaxPacketSize
                0x20000644        0x1 C:\Users\Lenovo\AppData\Local\arduino\cores\6384da0a6fa2f70a2504de7ae90f6808\core.a(usb_core.c.o)
                0x20000644                Data_Mul_MaxPacketSize
 *(COMMON)
 *fill*         0x20000645        0x3 
 COMMON         0x20000648        0x4 C:\Users\Lenovo\AppData\Local\arduino\cores\6384da0a6fa2f70a2504de7ae90f6808\core.a(systick.c.o)
                0x20000648                systick_uptime_millis
 COMMON         0x2000064c        0x6 C:\Users\Lenovo\AppData\Local\arduino\cores\6384da0a6fa2f70a2504de7ae90f6808\core.a(usb.c.o)
                0x2000064c                SaveRState
                0x2000064e                SaveTState
                0x20000650                ResumeS
 COMMON         0x20000652        0x2 C:\Users\Lenovo\AppData\Local\arduino\cores\6384da0a6fa2f70a2504de7ae90f6808\core.a(usb_core.c.o)
                0x20000652                StatusInfo
 COMMON         0x20000654       0x32 C:\Users\Lenovo\AppData\Local\arduino\cores\6384da0a6fa2f70a2504de7ae90f6808\core.a(usb_init.c.o)
                0x20000654                SaveState
                0x20000658                pProperty
                0x2000065c                EPindex
                0x20000660                Device_Info
                0x2000067c                pUser_Standard_Requests
                0x20000680                pInformation
                0x20000684                wInterrupt_Mask
                0x20000688                . = ALIGN (0x8)
 *fill*         0x20000686        0x2 
                0x20000688                __bss_end__ = .
                0x20000688                _end = __bss_end__

.stab
 *(.stab)

.stabstr
 *(.stabstr)

.debug
 *(.debug)

.line
 *(.line)

.debug_srcinfo
 *(.debug_srcinfo)

.debug_sfnames
 *(.debug_sfnames)

.debug_aranges  0x00000000      0xfd8
 *(.debug_aranges)
 .debug_aranges
                0x00000000       0xa0 C:\Users\Lenovo\AppData\Local\arduino\sketches\0A1F667BE7A1596EA767C94737D7EA1C\sketch\Lavadora.ino.cpp.o
 .debug_aranges
                0x000000a0       0xa8 C:\Users\Lenovo\AppData\Local\arduino\sketches\0A1F667BE7A1596EA767C94737D7EA1C\sketch\SevSeg.cpp.o
 .debug_aranges
                0x00000148       0x28 C:\Users\Lenovo\AppData\Local\arduino\sketches\0A1F667BE7A1596EA767C94737D7EA1C\core\board.cpp.o
 .debug_aranges
                0x00000170       0x40 C:\Users\Lenovo\AppData\Local\arduino\sketches\0A1F667BE7A1596EA767C94737D7EA1C\core\wirish\boards.cpp.o
 .debug_aranges
                0x000001b0       0x40 C:\Users\Lenovo\AppData\Local\arduino\sketches\0A1F667BE7A1596EA767C94737D7EA1C\core\wirish\boards_setup.cpp.o
 .debug_aranges
                0x000001f0       0x20 C:\Users\Lenovo\AppData\Local\arduino\sketches\0A1F667BE7A1596EA767C94737D7EA1C\core\wirish\start.S.o
 .debug_aranges
                0x00000210       0x20 C:\Users\Lenovo\AppData\Local\arduino\sketches\0A1F667BE7A1596EA767C94737D7EA1C\core\wirish\start_c.c.o
 .debug_aranges
                0x00000230       0x88 C:\Users\Lenovo\AppData\Local\arduino\sketches\0A1F667BE7A1596EA767C94737D7EA1C\core\wirish\syscalls.c.o
 .debug_aranges
                0x000002b8       0x70 C:\Users\Lenovo\AppData\Local\arduino\cores\6384da0a6fa2f70a2504de7ae90f6808\core.a(HardwareSerial.cpp.o)
 .debug_aranges
                0x00000328      0x110 C:\Users\Lenovo\AppData\Local\arduino\cores\6384da0a6fa2f70a2504de7ae90f6808\core.a(Print.cpp.o)
 .debug_aranges
                0x00000438       0x28 C:\Users\Lenovo\AppData\Local\arduino\cores\6384da0a6fa2f70a2504de7ae90f6808\core.a(cxxabi-compat.cpp.o)
 .debug_aranges
                0x00000460       0x38 C:\Users\Lenovo\AppData\Local\arduino\cores\6384da0a6fa2f70a2504de7ae90f6808\core.a(adc.c.o)
 .debug_aranges
                0x00000498       0x58 C:\Users\Lenovo\AppData\Local\arduino\cores\6384da0a6fa2f70a2504de7ae90f6808\core.a(adc_f1.c.o)
 .debug_aranges
                0x000004f0       0xb0 C:\Users\Lenovo\AppData\Local\arduino\cores\6384da0a6fa2f70a2504de7ae90f6808\core.a(dma_f1.c.o)
 .debug_aranges
                0x000005a0       0x20 C:\Users\Lenovo\AppData\Local\arduino\cores\6384da0a6fa2f70a2504de7ae90f6808\core.a(exc.S.o)
 .debug_aranges
                0x000005c0       0x80 C:\Users\Lenovo\AppData\Local\arduino\cores\6384da0a6fa2f70a2504de7ae90f6808\core.a(exti.c.o)
 .debug_aranges
                0x00000640       0x20 C:\Users\Lenovo\AppData\Local\arduino\cores\6384da0a6fa2f70a2504de7ae90f6808\core.a(exti_f1.c.o)
 .debug_aranges
                0x00000660       0x20 C:\Users\Lenovo\AppData\Local\arduino\cores\6384da0a6fa2f70a2504de7ae90f6808\core.a(flash.c.o)
 .debug_aranges
                0x00000680       0x48 C:\Users\Lenovo\AppData\Local\arduino\cores\6384da0a6fa2f70a2504de7ae90f6808\core.a(gpio_f1.c.o)
 .debug_aranges
                0x000006c8       0x50 C:\Users\Lenovo\AppData\Local\arduino\cores\6384da0a6fa2f70a2504de7ae90f6808\core.a(i2c_f1.c.o)
 .debug_aranges
                0x00000718       0x38 C:\Users\Lenovo\AppData\Local\arduino\cores\6384da0a6fa2f70a2504de7ae90f6808\core.a(nvic.c.o)
 .debug_aranges
                0x00000750       0x48 C:\Users\Lenovo\AppData\Local\arduino\cores\6384da0a6fa2f70a2504de7ae90f6808\core.a(rcc.c.o)
 .debug_aranges
                0x00000798       0x48 C:\Users\Lenovo\AppData\Local\arduino\cores\6384da0a6fa2f70a2504de7ae90f6808\core.a(rcc_f1.c.o)
 .debug_aranges
                0x000007e0       0x20 C:\Users\Lenovo\AppData\Local\arduino\cores\6384da0a6fa2f70a2504de7ae90f6808\core.a(isrs.S.o)
 .debug_aranges
                0x00000800       0x40 C:\Users\Lenovo\AppData\Local\arduino\cores\6384da0a6fa2f70a2504de7ae90f6808\core.a(systick.c.o)
 .debug_aranges
                0x00000840       0xb0 C:\Users\Lenovo\AppData\Local\arduino\cores\6384da0a6fa2f70a2504de7ae90f6808\core.a(timer.c.o)
 .debug_aranges
                0x000008f0       0x48 C:\Users\Lenovo\AppData\Local\arduino\cores\6384da0a6fa2f70a2504de7ae90f6808\core.a(usart.c.o)
 .debug_aranges
                0x00000938       0x50 C:\Users\Lenovo\AppData\Local\arduino\cores\6384da0a6fa2f70a2504de7ae90f6808\core.a(usart_f1.c.o)
 .debug_aranges
                0x00000988       0x20 C:\Users\Lenovo\AppData\Local\arduino\cores\6384da0a6fa2f70a2504de7ae90f6808\core.a(usart_private.c.o)
 .debug_aranges
                0x000009a8       0x38 C:\Users\Lenovo\AppData\Local\arduino\cores\6384da0a6fa2f70a2504de7ae90f6808\core.a(usb.c.o)
 .debug_aranges
                0x000009e0      0x128 C:\Users\Lenovo\AppData\Local\arduino\cores\6384da0a6fa2f70a2504de7ae90f6808\core.a(usb_cdcacm.c.o)
 .debug_aranges
                0x00000b08       0x20 C:\Users\Lenovo\AppData\Local\arduino\cores\6384da0a6fa2f70a2504de7ae90f6808\core.a(usb_reg_map.c.o)
 .debug_aranges
                0x00000b28       0x98 C:\Users\Lenovo\AppData\Local\arduino\cores\6384da0a6fa2f70a2504de7ae90f6808\core.a(usb_core.c.o)
 .debug_aranges
                0x00000bc0       0x20 C:\Users\Lenovo\AppData\Local\arduino\cores\6384da0a6fa2f70a2504de7ae90f6808\core.a(usb_init.c.o)
 .debug_aranges
                0x00000be0       0x28 C:\Users\Lenovo\AppData\Local\arduino\cores\6384da0a6fa2f70a2504de7ae90f6808\core.a(usb_mem.c.o)
 .debug_aranges
                0x00000c08      0x1f0 C:\Users\Lenovo\AppData\Local\arduino\cores\6384da0a6fa2f70a2504de7ae90f6808\core.a(usb_regs.c.o)
 .debug_aranges
                0x00000df8       0x50 C:\Users\Lenovo\AppData\Local\arduino\cores\6384da0a6fa2f70a2504de7ae90f6808\core.a(util.c.o)
 .debug_aranges
                0x00000e48       0x28 C:\Users\Lenovo\AppData\Local\arduino\cores\6384da0a6fa2f70a2504de7ae90f6808\core.a(main.cpp.o)
 .debug_aranges
                0x00000e70       0x20 C:\Users\Lenovo\AppData\Local\arduino\cores\6384da0a6fa2f70a2504de7ae90f6808\core.a(wirish_digital_f1.cpp.o)
 .debug_aranges
                0x00000e90       0x28 C:\Users\Lenovo\AppData\Local\arduino\cores\6384da0a6fa2f70a2504de7ae90f6808\core.a(wirish_digital.cpp.o)
 .debug_aranges
                0x00000eb8       0x30 C:\Users\Lenovo\AppData\Local\arduino\cores\6384da0a6fa2f70a2504de7ae90f6808\core.a(wirish_time.cpp.o)
 .debug_aranges
                0x00000ee8       0x20 C:\Users\Lenovo\AppData\Local\arduino\cores\6384da0a6fa2f70a2504de7ae90f6808\core.a(hooks.c.o)
 .debug_aranges
                0x00000f08       0x28 C:\Users\Lenovo\AppData\Local\arduino\cores\6384da0a6fa2f70a2504de7ae90f6808\core.a(dma.c.o)
 .debug_aranges
                0x00000f30       0x20 C:\Users\Lenovo\AppData\Local\arduino\cores\6384da0a6fa2f70a2504de7ae90f6808\core.a(gpio.c.o)
 .debug_aranges
                0x00000f50       0x88 C:\Users\Lenovo\AppData\Local\arduino\cores\6384da0a6fa2f70a2504de7ae90f6808\core.a(i2c.c.o)

.debug_pubnames
 *(.debug_pubnames)

.debug_info     0x00000000    0x1f7c5
 *(.debug_info .gnu.linkonce.wi.*)
 .debug_info    0x00000000     0x1e42 C:\Users\Lenovo\AppData\Local\arduino\sketches\0A1F667BE7A1596EA767C94737D7EA1C\sketch\Lavadora.ino.cpp.o
 .debug_info    0x00001e42     0x11a9 C:\Users\Lenovo\AppData\Local\arduino\sketches\0A1F667BE7A1596EA767C94737D7EA1C\sketch\SevSeg.cpp.o
 .debug_info    0x00002feb     0x1170 C:\Users\Lenovo\AppData\Local\arduino\sketches\0A1F667BE7A1596EA767C94737D7EA1C\core\board.cpp.o
 .debug_info    0x0000415b     0x1409 C:\Users\Lenovo\AppData\Local\arduino\sketches\0A1F667BE7A1596EA767C94737D7EA1C\core\wirish\boards.cpp.o
 .debug_info    0x00005564      0x61e C:\Users\Lenovo\AppData\Local\arduino\sketches\0A1F667BE7A1596EA767C94737D7EA1C\core\wirish\boards_setup.cpp.o
 .debug_info    0x00005b82       0xcc C:\Users\Lenovo\AppData\Local\arduino\sketches\0A1F667BE7A1596EA767C94737D7EA1C\core\wirish\start.S.o
 .debug_info    0x00005c4e      0x176 C:\Users\Lenovo\AppData\Local\arduino\sketches\0A1F667BE7A1596EA767C94737D7EA1C\core\wirish\start_c.c.o
 .debug_info    0x00005dc4      0x5cd C:\Users\Lenovo\AppData\Local\arduino\sketches\0A1F667BE7A1596EA767C94737D7EA1C\core\wirish\syscalls.c.o
 .debug_info    0x00006391     0x29ea C:\Users\Lenovo\AppData\Local\arduino\cores\6384da0a6fa2f70a2504de7ae90f6808\core.a(HardwareSerial.cpp.o)
 .debug_info    0x00008d7b     0x258c C:\Users\Lenovo\AppData\Local\arduino\cores\6384da0a6fa2f70a2504de7ae90f6808\core.a(Print.cpp.o)
 .debug_info    0x0000b307      0x526 C:\Users\Lenovo\AppData\Local\arduino\cores\6384da0a6fa2f70a2504de7ae90f6808\core.a(cxxabi-compat.cpp.o)
 .debug_info    0x0000b82d      0x79a C:\Users\Lenovo\AppData\Local\arduino\cores\6384da0a6fa2f70a2504de7ae90f6808\core.a(adc.c.o)
 .debug_info    0x0000bfc7      0xe4a C:\Users\Lenovo\AppData\Local\arduino\cores\6384da0a6fa2f70a2504de7ae90f6808\core.a(adc_f1.c.o)
 .debug_info    0x0000ce11     0x18b1 C:\Users\Lenovo\AppData\Local\arduino\cores\6384da0a6fa2f70a2504de7ae90f6808\core.a(dma_f1.c.o)
 .debug_info    0x0000e6c2       0xcd C:\Users\Lenovo\AppData\Local\arduino\cores\6384da0a6fa2f70a2504de7ae90f6808\core.a(exc.S.o)
 .debug_info    0x0000e78f      0xd3c C:\Users\Lenovo\AppData\Local\arduino\cores\6384da0a6fa2f70a2504de7ae90f6808\core.a(exti.c.o)
 .debug_info    0x0000f4cb      0x213 C:\Users\Lenovo\AppData\Local\arduino\cores\6384da0a6fa2f70a2504de7ae90f6808\core.a(exti_f1.c.o)
 .debug_info    0x0000f6de      0x128 C:\Users\Lenovo\AppData\Local\arduino\cores\6384da0a6fa2f70a2504de7ae90f6808\core.a(flash.c.o)
 .debug_info    0x0000f806      0x715 C:\Users\Lenovo\AppData\Local\arduino\cores\6384da0a6fa2f70a2504de7ae90f6808\core.a(gpio_f1.c.o)
 .debug_info    0x0000ff1b      0xc25 C:\Users\Lenovo\AppData\Local\arduino\cores\6384da0a6fa2f70a2504de7ae90f6808\core.a(i2c_f1.c.o)
 .debug_info    0x00010b40      0x5a2 C:\Users\Lenovo\AppData\Local\arduino\cores\6384da0a6fa2f70a2504de7ae90f6808\core.a(nvic.c.o)
 .debug_info    0x000110e2      0x556 C:\Users\Lenovo\AppData\Local\arduino\cores\6384da0a6fa2f70a2504de7ae90f6808\core.a(rcc.c.o)
 .debug_info    0x00011638      0xb64 C:\Users\Lenovo\AppData\Local\arduino\cores\6384da0a6fa2f70a2504de7ae90f6808\core.a(rcc_f1.c.o)
 .debug_info    0x0001219c       0xe2 C:\Users\Lenovo\AppData\Local\arduino\cores\6384da0a6fa2f70a2504de7ae90f6808\core.a(isrs.S.o)
 .debug_info    0x0001227e      0x182 C:\Users\Lenovo\AppData\Local\arduino\cores\6384da0a6fa2f70a2504de7ae90f6808\core.a(systick.c.o)
 .debug_info    0x00012400     0x197d C:\Users\Lenovo\AppData\Local\arduino\cores\6384da0a6fa2f70a2504de7ae90f6808\core.a(timer.c.o)
 .debug_info    0x00013d7d      0xc32 C:\Users\Lenovo\AppData\Local\arduino\cores\6384da0a6fa2f70a2504de7ae90f6808\core.a(usart.c.o)
 .debug_info    0x000149af      0xb89 C:\Users\Lenovo\AppData\Local\arduino\cores\6384da0a6fa2f70a2504de7ae90f6808\core.a(usart_f1.c.o)
 .debug_info    0x00015538      0x595 C:\Users\Lenovo\AppData\Local\arduino\cores\6384da0a6fa2f70a2504de7ae90f6808\core.a(usart_private.c.o)
 .debug_info    0x00015acd      0xd16 C:\Users\Lenovo\AppData\Local\arduino\cores\6384da0a6fa2f70a2504de7ae90f6808\core.a(usb.c.o)
 .debug_info    0x000167e3     0x22d2 C:\Users\Lenovo\AppData\Local\arduino\cores\6384da0a6fa2f70a2504de7ae90f6808\core.a(usb_cdcacm.c.o)
 .debug_info    0x00018ab5      0x26c C:\Users\Lenovo\AppData\Local\arduino\cores\6384da0a6fa2f70a2504de7ae90f6808\core.a(usb_reg_map.c.o)
 .debug_info    0x00018d21      0xddf C:\Users\Lenovo\AppData\Local\arduino\cores\6384da0a6fa2f70a2504de7ae90f6808\core.a(usb_core.c.o)
 .debug_info    0x00019b00      0x3ed C:\Users\Lenovo\AppData\Local\arduino\cores\6384da0a6fa2f70a2504de7ae90f6808\core.a(usb_init.c.o)
 .debug_info    0x00019eed      0x183 C:\Users\Lenovo\AppData\Local\arduino\cores\6384da0a6fa2f70a2504de7ae90f6808\core.a(usb_mem.c.o)
 .debug_info    0x0001a070      0xc88 C:\Users\Lenovo\AppData\Local\arduino\cores\6384da0a6fa2f70a2504de7ae90f6808\core.a(usb_regs.c.o)
 .debug_info    0x0001acf8      0xad2 C:\Users\Lenovo\AppData\Local\arduino\cores\6384da0a6fa2f70a2504de7ae90f6808\core.a(util.c.o)
 .debug_info    0x0001b7ca       0x99 C:\Users\Lenovo\AppData\Local\arduino\cores\6384da0a6fa2f70a2504de7ae90f6808\core.a(main.cpp.o)
 .debug_info    0x0001b863      0xc8a C:\Users\Lenovo\AppData\Local\arduino\cores\6384da0a6fa2f70a2504de7ae90f6808\core.a(wirish_digital_f1.cpp.o)
 .debug_info    0x0001c4ed      0xb0b C:\Users\Lenovo\AppData\Local\arduino\cores\6384da0a6fa2f70a2504de7ae90f6808\core.a(wirish_digital.cpp.o)
 .debug_info    0x0001cff8      0x2be C:\Users\Lenovo\AppData\Local\arduino\cores\6384da0a6fa2f70a2504de7ae90f6808\core.a(wirish_time.cpp.o)
 .debug_info    0x0001d2b6       0x33 C:\Users\Lenovo\AppData\Local\arduino\cores\6384da0a6fa2f70a2504de7ae90f6808\core.a(hooks.c.o)
 .debug_info    0x0001d2e9      0x6f7 C:\Users\Lenovo\AppData\Local\arduino\cores\6384da0a6fa2f70a2504de7ae90f6808\core.a(dma.c.o)
 .debug_info    0x0001d9e0      0x313 C:\Users\Lenovo\AppData\Local\arduino\cores\6384da0a6fa2f70a2504de7ae90f6808\core.a(gpio.c.o)
 .debug_info    0x0001dcf3     0x1ad2 C:\Users\Lenovo\AppData\Local\arduino\cores\6384da0a6fa2f70a2504de7ae90f6808\core.a(i2c.c.o)

.debug_abbrev   0x00000000     0x6082
 *(.debug_abbrev)
 .debug_abbrev  0x00000000      0x3ad C:\Users\Lenovo\AppData\Local\arduino\sketches\0A1F667BE7A1596EA767C94737D7EA1C\sketch\Lavadora.ino.cpp.o
 .debug_abbrev  0x000003ad      0x450 C:\Users\Lenovo\AppData\Local\arduino\sketches\0A1F667BE7A1596EA767C94737D7EA1C\sketch\SevSeg.cpp.o
 .debug_abbrev  0x000007fd      0x275 C:\Users\Lenovo\AppData\Local\arduino\sketches\0A1F667BE7A1596EA767C94737D7EA1C\core\board.cpp.o
 .debug_abbrev  0x00000a72      0x3dd C:\Users\Lenovo\AppData\Local\arduino\sketches\0A1F667BE7A1596EA767C94737D7EA1C\core\wirish\boards.cpp.o
 .debug_abbrev  0x00000e4f      0x196 C:\Users\Lenovo\AppData\Local\arduino\sketches\0A1F667BE7A1596EA767C94737D7EA1C\core\wirish\boards_setup.cpp.o
 .debug_abbrev  0x00000fe5       0x14 C:\Users\Lenovo\AppData\Local\arduino\sketches\0A1F667BE7A1596EA767C94737D7EA1C\core\wirish\start.S.o
 .debug_abbrev  0x00000ff9      0x11f C:\Users\Lenovo\AppData\Local\arduino\sketches\0A1F667BE7A1596EA767C94737D7EA1C\core\wirish\start_c.c.o
 .debug_abbrev  0x00001118      0x17e C:\Users\Lenovo\AppData\Local\arduino\sketches\0A1F667BE7A1596EA767C94737D7EA1C\core\wirish\syscalls.c.o
 .debug_abbrev  0x00001296      0x535 C:\Users\Lenovo\AppData\Local\arduino\cores\6384da0a6fa2f70a2504de7ae90f6808\core.a(HardwareSerial.cpp.o)
 .debug_abbrev  0x000017cb      0x414 C:\Users\Lenovo\AppData\Local\arduino\cores\6384da0a6fa2f70a2504de7ae90f6808\core.a(Print.cpp.o)
 .debug_abbrev  0x00001bdf      0x163 C:\Users\Lenovo\AppData\Local\arduino\cores\6384da0a6fa2f70a2504de7ae90f6808\core.a(cxxabi-compat.cpp.o)
 .debug_abbrev  0x00001d42      0x20b C:\Users\Lenovo\AppData\Local\arduino\cores\6384da0a6fa2f70a2504de7ae90f6808\core.a(adc.c.o)
 .debug_abbrev  0x00001f4d      0x2e6 C:\Users\Lenovo\AppData\Local\arduino\cores\6384da0a6fa2f70a2504de7ae90f6808\core.a(adc_f1.c.o)
 .debug_abbrev  0x00002233      0x3e9 C:\Users\Lenovo\AppData\Local\arduino\cores\6384da0a6fa2f70a2504de7ae90f6808\core.a(dma_f1.c.o)
 .debug_abbrev  0x0000261c       0x14 C:\Users\Lenovo\AppData\Local\arduino\cores\6384da0a6fa2f70a2504de7ae90f6808\core.a(exc.S.o)
 .debug_abbrev  0x00002630      0x286 C:\Users\Lenovo\AppData\Local\arduino\cores\6384da0a6fa2f70a2504de7ae90f6808\core.a(exti.c.o)
 .debug_abbrev  0x000028b6       0xdb C:\Users\Lenovo\AppData\Local\arduino\cores\6384da0a6fa2f70a2504de7ae90f6808\core.a(exti_f1.c.o)
 .debug_abbrev  0x00002991       0x9f C:\Users\Lenovo\AppData\Local\arduino\cores\6384da0a6fa2f70a2504de7ae90f6808\core.a(flash.c.o)
 .debug_abbrev  0x00002a30      0x191 C:\Users\Lenovo\AppData\Local\arduino\cores\6384da0a6fa2f70a2504de7ae90f6808\core.a(gpio_f1.c.o)
 .debug_abbrev  0x00002bc1      0x20b C:\Users\Lenovo\AppData\Local\arduino\cores\6384da0a6fa2f70a2504de7ae90f6808\core.a(i2c_f1.c.o)
 .debug_abbrev  0x00002dcc      0x1ac C:\Users\Lenovo\AppData\Local\arduino\cores\6384da0a6fa2f70a2504de7ae90f6808\core.a(nvic.c.o)
 .debug_abbrev  0x00002f78      0x17f C:\Users\Lenovo\AppData\Local\arduino\cores\6384da0a6fa2f70a2504de7ae90f6808\core.a(rcc.c.o)
 .debug_abbrev  0x000030f7      0x28c C:\Users\Lenovo\AppData\Local\arduino\cores\6384da0a6fa2f70a2504de7ae90f6808\core.a(rcc_f1.c.o)
 .debug_abbrev  0x00003383       0x14 C:\Users\Lenovo\AppData\Local\arduino\cores\6384da0a6fa2f70a2504de7ae90f6808\core.a(isrs.S.o)
 .debug_abbrev  0x00003397      0x10f C:\Users\Lenovo\AppData\Local\arduino\cores\6384da0a6fa2f70a2504de7ae90f6808\core.a(systick.c.o)
 .debug_abbrev  0x000034a6      0x4c8 C:\Users\Lenovo\AppData\Local\arduino\cores\6384da0a6fa2f70a2504de7ae90f6808\core.a(timer.c.o)
 .debug_abbrev  0x0000396e      0x2ff C:\Users\Lenovo\AppData\Local\arduino\cores\6384da0a6fa2f70a2504de7ae90f6808\core.a(usart.c.o)
 .debug_abbrev  0x00003c6d      0x2ad C:\Users\Lenovo\AppData\Local\arduino\cores\6384da0a6fa2f70a2504de7ae90f6808\core.a(usart_f1.c.o)
 .debug_abbrev  0x00003f1a      0x144 C:\Users\Lenovo\AppData\Local\arduino\cores\6384da0a6fa2f70a2504de7ae90f6808\core.a(usart_private.c.o)
 .debug_abbrev  0x0000405e      0x352 C:\Users\Lenovo\AppData\Local\arduino\cores\6384da0a6fa2f70a2504de7ae90f6808\core.a(usb.c.o)
 .debug_abbrev  0x000043b0      0x47d C:\Users\Lenovo\AppData\Local\arduino\cores\6384da0a6fa2f70a2504de7ae90f6808\core.a(usb_cdcacm.c.o)
 .debug_abbrev  0x0000482d      0x193 C:\Users\Lenovo\AppData\Local\arduino\cores\6384da0a6fa2f70a2504de7ae90f6808\core.a(usb_reg_map.c.o)
 .debug_abbrev  0x000049c0      0x3a6 C:\Users\Lenovo\AppData\Local\arduino\cores\6384da0a6fa2f70a2504de7ae90f6808\core.a(usb_core.c.o)
 .debug_abbrev  0x00004d66      0x101 C:\Users\Lenovo\AppData\Local\arduino\cores\6384da0a6fa2f70a2504de7ae90f6808\core.a(usb_init.c.o)
 .debug_abbrev  0x00004e67       0xa6 C:\Users\Lenovo\AppData\Local\arduino\cores\6384da0a6fa2f70a2504de7ae90f6808\core.a(usb_mem.c.o)
 .debug_abbrev  0x00004f0d      0x1f3 C:\Users\Lenovo\AppData\Local\arduino\cores\6384da0a6fa2f70a2504de7ae90f6808\core.a(usb_regs.c.o)
 .debug_abbrev  0x00005100      0x2cb C:\Users\Lenovo\AppData\Local\arduino\cores\6384da0a6fa2f70a2504de7ae90f6808\core.a(util.c.o)
 .debug_abbrev  0x000053cb       0x7b C:\Users\Lenovo\AppData\Local\arduino\cores\6384da0a6fa2f70a2504de7ae90f6808\core.a(main.cpp.o)
 .debug_abbrev  0x00005446      0x240 C:\Users\Lenovo\AppData\Local\arduino\cores\6384da0a6fa2f70a2504de7ae90f6808\core.a(wirish_digital_f1.cpp.o)
 .debug_abbrev  0x00005686      0x17e C:\Users\Lenovo\AppData\Local\arduino\cores\6384da0a6fa2f70a2504de7ae90f6808\core.a(wirish_digital.cpp.o)
 .debug_abbrev  0x00005804      0x196 C:\Users\Lenovo\AppData\Local\arduino\cores\6384da0a6fa2f70a2504de7ae90f6808\core.a(wirish_time.cpp.o)
 .debug_abbrev  0x0000599a       0x26 C:\Users\Lenovo\AppData\Local\arduino\cores\6384da0a6fa2f70a2504de7ae90f6808\core.a(hooks.c.o)
 .debug_abbrev  0x000059c0      0x182 C:\Users\Lenovo\AppData\Local\arduino\cores\6384da0a6fa2f70a2504de7ae90f6808\core.a(dma.c.o)
 .debug_abbrev  0x00005b42      0x113 C:\Users\Lenovo\AppData\Local\arduino\cores\6384da0a6fa2f70a2504de7ae90f6808\core.a(gpio.c.o)
 .debug_abbrev  0x00005c55      0x42d C:\Users\Lenovo\AppData\Local\arduino\cores\6384da0a6fa2f70a2504de7ae90f6808\core.a(i2c.c.o)

.debug_line     0x00000000     0xab6a
 *(.debug_line)
 .debug_line    0x00000000      0x6f4 C:\Users\Lenovo\AppData\Local\arduino\sketches\0A1F667BE7A1596EA767C94737D7EA1C\sketch\Lavadora.ino.cpp.o
 .debug_line    0x000006f4      0x67e C:\Users\Lenovo\AppData\Local\arduino\sketches\0A1F667BE7A1596EA767C94737D7EA1C\sketch\SevSeg.cpp.o
 .debug_line    0x00000d72      0x470 C:\Users\Lenovo\AppData\Local\arduino\sketches\0A1F667BE7A1596EA767C94737D7EA1C\core\board.cpp.o
 .debug_line    0x000011e2      0x4cd C:\Users\Lenovo\AppData\Local\arduino\sketches\0A1F667BE7A1596EA767C94737D7EA1C\core\wirish\boards.cpp.o
 .debug_line    0x000016af      0x3c0 C:\Users\Lenovo\AppData\Local\arduino\sketches\0A1F667BE7A1596EA767C94737D7EA1C\core\wirish\boards_setup.cpp.o
 .debug_line    0x00001a6f       0xb1 C:\Users\Lenovo\AppData\Local\arduino\sketches\0A1F667BE7A1596EA767C94737D7EA1C\core\wirish\start.S.o
 .debug_line    0x00001b20       0xc2 C:\Users\Lenovo\AppData\Local\arduino\sketches\0A1F667BE7A1596EA767C94737D7EA1C\core\wirish\start_c.c.o
 .debug_line    0x00001be2      0x309 C:\Users\Lenovo\AppData\Local\arduino\sketches\0A1F667BE7A1596EA767C94737D7EA1C\core\wirish\syscalls.c.o
 .debug_line    0x00001eeb      0x563 C:\Users\Lenovo\AppData\Local\arduino\cores\6384da0a6fa2f70a2504de7ae90f6808\core.a(HardwareSerial.cpp.o)
 .debug_line    0x0000244e      0x5cf C:\Users\Lenovo\AppData\Local\arduino\cores\6384da0a6fa2f70a2504de7ae90f6808\core.a(Print.cpp.o)
 .debug_line    0x00002a1d      0x271 C:\Users\Lenovo\AppData\Local\arduino\cores\6384da0a6fa2f70a2504de7ae90f6808\core.a(cxxabi-compat.cpp.o)
 .debug_line    0x00002c8e      0x34a C:\Users\Lenovo\AppData\Local\arduino\cores\6384da0a6fa2f70a2504de7ae90f6808\core.a(adc.c.o)
 .debug_line    0x00002fd8      0x3f6 C:\Users\Lenovo\AppData\Local\arduino\cores\6384da0a6fa2f70a2504de7ae90f6808\core.a(adc_f1.c.o)
 .debug_line    0x000033ce      0x67d C:\Users\Lenovo\AppData\Local\arduino\cores\6384da0a6fa2f70a2504de7ae90f6808\core.a(dma_f1.c.o)
 .debug_line    0x00003a4b       0xb9 C:\Users\Lenovo\AppData\Local\arduino\cores\6384da0a6fa2f70a2504de7ae90f6808\core.a(exc.S.o)
 .debug_line    0x00003b04      0x423 C:\Users\Lenovo\AppData\Local\arduino\cores\6384da0a6fa2f70a2504de7ae90f6808\core.a(exti.c.o)
 .debug_line    0x00003f27      0x34e C:\Users\Lenovo\AppData\Local\arduino\cores\6384da0a6fa2f70a2504de7ae90f6808\core.a(exti_f1.c.o)
 .debug_line    0x00004275      0x2cc C:\Users\Lenovo\AppData\Local\arduino\cores\6384da0a6fa2f70a2504de7ae90f6808\core.a(flash.c.o)
 .debug_line    0x00004541      0x375 C:\Users\Lenovo\AppData\Local\arduino\cores\6384da0a6fa2f70a2504de7ae90f6808\core.a(gpio_f1.c.o)
 .debug_line    0x000048b6      0x45b C:\Users\Lenovo\AppData\Local\arduino\cores\6384da0a6fa2f70a2504de7ae90f6808\core.a(i2c_f1.c.o)
 .debug_line    0x00004d11      0x334 C:\Users\Lenovo\AppData\Local\arduino\cores\6384da0a6fa2f70a2504de7ae90f6808\core.a(nvic.c.o)
 .debug_line    0x00005045      0x3cf C:\Users\Lenovo\AppData\Local\arduino\cores\6384da0a6fa2f70a2504de7ae90f6808\core.a(rcc.c.o)
 .debug_line    0x00005414      0x41c C:\Users\Lenovo\AppData\Local\arduino\cores\6384da0a6fa2f70a2504de7ae90f6808\core.a(rcc_f1.c.o)
 .debug_line    0x00005830       0xb6 C:\Users\Lenovo\AppData\Local\arduino\cores\6384da0a6fa2f70a2504de7ae90f6808\core.a(isrs.S.o)
 .debug_line    0x000058e6      0x29c C:\Users\Lenovo\AppData\Local\arduino\cores\6384da0a6fa2f70a2504de7ae90f6808\core.a(systick.c.o)
 .debug_line    0x00005b82      0x62f C:\Users\Lenovo\AppData\Local\arduino\cores\6384da0a6fa2f70a2504de7ae90f6808\core.a(timer.c.o)
 .debug_line    0x000061b1      0x462 C:\Users\Lenovo\AppData\Local\arduino\cores\6384da0a6fa2f70a2504de7ae90f6808\core.a(usart.c.o)
 .debug_line    0x00006613      0x46c C:\Users\Lenovo\AppData\Local\arduino\cores\6384da0a6fa2f70a2504de7ae90f6808\core.a(usart_f1.c.o)
 .debug_line    0x00006a7f      0x308 C:\Users\Lenovo\AppData\Local\arduino\cores\6384da0a6fa2f70a2504de7ae90f6808\core.a(usart_private.c.o)
 .debug_line    0x00006d87      0x544 C:\Users\Lenovo\AppData\Local\arduino\cores\6384da0a6fa2f70a2504de7ae90f6808\core.a(usb.c.o)
 .debug_line    0x000072cb      0x94e C:\Users\Lenovo\AppData\Local\arduino\cores\6384da0a6fa2f70a2504de7ae90f6808\core.a(usb_cdcacm.c.o)
 .debug_line    0x00007c19      0x2ff C:\Users\Lenovo\AppData\Local\arduino\cores\6384da0a6fa2f70a2504de7ae90f6808\core.a(usb_reg_map.c.o)
 .debug_line    0x00007f18      0x435 C:\Users\Lenovo\AppData\Local\arduino\cores\6384da0a6fa2f70a2504de7ae90f6808\core.a(usb_core.c.o)
 .debug_line    0x0000834d      0x14a C:\Users\Lenovo\AppData\Local\arduino\cores\6384da0a6fa2f70a2504de7ae90f6808\core.a(usb_init.c.o)
 .debug_line    0x00008497      0x184 C:\Users\Lenovo\AppData\Local\arduino\cores\6384da0a6fa2f70a2504de7ae90f6808\core.a(usb_mem.c.o)
 .debug_line    0x0000861b      0x5ae C:\Users\Lenovo\AppData\Local\arduino\cores\6384da0a6fa2f70a2504de7ae90f6808\core.a(usb_regs.c.o)
 .debug_line    0x00008bc9      0x3d0 C:\Users\Lenovo\AppData\Local\arduino\cores\6384da0a6fa2f70a2504de7ae90f6808\core.a(util.c.o)
 .debug_line    0x00008f99       0xb1 C:\Users\Lenovo\AppData\Local\arduino\cores\6384da0a6fa2f70a2504de7ae90f6808\core.a(main.cpp.o)
 .debug_line    0x0000904a      0x3fc C:\Users\Lenovo\AppData\Local\arduino\cores\6384da0a6fa2f70a2504de7ae90f6808\core.a(wirish_digital_f1.cpp.o)
 .debug_line    0x00009446      0x37e C:\Users\Lenovo\AppData\Local\arduino\cores\6384da0a6fa2f70a2504de7ae90f6808\core.a(wirish_digital.cpp.o)
 .debug_line    0x000097c4      0x365 C:\Users\Lenovo\AppData\Local\arduino\cores\6384da0a6fa2f70a2504de7ae90f6808\core.a(wirish_time.cpp.o)
 .debug_line    0x00009b29       0x9a C:\Users\Lenovo\AppData\Local\arduino\cores\6384da0a6fa2f70a2504de7ae90f6808\core.a(hooks.c.o)
 .debug_line    0x00009bc3      0x398 C:\Users\Lenovo\AppData\Local\arduino\cores\6384da0a6fa2f70a2504de7ae90f6808\core.a(dma.c.o)
 .debug_line    0x00009f5b      0x2f1 C:\Users\Lenovo\AppData\Local\arduino\cores\6384da0a6fa2f70a2504de7ae90f6808\core.a(gpio.c.o)
 .debug_line    0x0000a24c      0x91e C:\Users\Lenovo\AppData\Local\arduino\cores\6384da0a6fa2f70a2504de7ae90f6808\core.a(i2c.c.o)

.debug_frame    0x00000000     0x23c0
 *(.debug_frame)
 .debug_frame   0x00000000      0x1bc C:\Users\Lenovo\AppData\Local\arduino\sketches\0A1F667BE7A1596EA767C94737D7EA1C\sketch\Lavadora.ino.cpp.o
 .debug_frame   0x000001bc      0x1f0 C:\Users\Lenovo\AppData\Local\arduino\sketches\0A1F667BE7A1596EA767C94737D7EA1C\sketch\SevSeg.cpp.o
 .debug_frame   0x000003ac       0x40 C:\Users\Lenovo\AppData\Local\arduino\sketches\0A1F667BE7A1596EA767C94737D7EA1C\core\board.cpp.o
 .debug_frame   0x000003ec       0x84 C:\Users\Lenovo\AppData\Local\arduino\sketches\0A1F667BE7A1596EA767C94737D7EA1C\core\wirish\boards.cpp.o
 .debug_frame   0x00000470       0x68 C:\Users\Lenovo\AppData\Local\arduino\sketches\0A1F667BE7A1596EA767C94737D7EA1C\core\wirish\boards_setup.cpp.o
 .debug_frame   0x000004d8       0x28 C:\Users\Lenovo\AppData\Local\arduino\sketches\0A1F667BE7A1596EA767C94737D7EA1C\core\wirish\start_c.c.o
 .debug_frame   0x00000500      0x130 C:\Users\Lenovo\AppData\Local\arduino\sketches\0A1F667BE7A1596EA767C94737D7EA1C\core\wirish\syscalls.c.o
 .debug_frame   0x00000630      0x10c C:\Users\Lenovo\AppData\Local\arduino\cores\6384da0a6fa2f70a2504de7ae90f6808\core.a(HardwareSerial.cpp.o)
 .debug_frame   0x0000073c      0x378 C:\Users\Lenovo\AppData\Local\arduino\cores\6384da0a6fa2f70a2504de7ae90f6808\core.a(Print.cpp.o)
 .debug_frame   0x00000ab4       0x38 C:\Users\Lenovo\AppData\Local\arduino\cores\6384da0a6fa2f70a2504de7ae90f6808\core.a(cxxabi-compat.cpp.o)
 .debug_frame   0x00000aec       0x64 C:\Users\Lenovo\AppData\Local\arduino\cores\6384da0a6fa2f70a2504de7ae90f6808\core.a(adc.c.o)
 .debug_frame   0x00000b50       0xb4 C:\Users\Lenovo\AppData\Local\arduino\cores\6384da0a6fa2f70a2504de7ae90f6808\core.a(adc_f1.c.o)
 .debug_frame   0x00000c04      0x190 C:\Users\Lenovo\AppData\Local\arduino\cores\6384da0a6fa2f70a2504de7ae90f6808\core.a(dma_f1.c.o)
 .debug_frame   0x00000d94      0x11c C:\Users\Lenovo\AppData\Local\arduino\cores\6384da0a6fa2f70a2504de7ae90f6808\core.a(exti.c.o)
 .debug_frame   0x00000eb0       0x20 C:\Users\Lenovo\AppData\Local\arduino\cores\6384da0a6fa2f70a2504de7ae90f6808\core.a(exti_f1.c.o)
 .debug_frame   0x00000ed0       0x20 C:\Users\Lenovo\AppData\Local\arduino\cores\6384da0a6fa2f70a2504de7ae90f6808\core.a(flash.c.o)
 .debug_frame   0x00000ef0       0x8c C:\Users\Lenovo\AppData\Local\arduino\cores\6384da0a6fa2f70a2504de7ae90f6808\core.a(gpio_f1.c.o)
 .debug_frame   0x00000f7c       0x94 C:\Users\Lenovo\AppData\Local\arduino\cores\6384da0a6fa2f70a2504de7ae90f6808\core.a(i2c_f1.c.o)
 .debug_frame   0x00001010       0x5c C:\Users\Lenovo\AppData\Local\arduino\cores\6384da0a6fa2f70a2504de7ae90f6808\core.a(nvic.c.o)
 .debug_frame   0x0000106c       0x70 C:\Users\Lenovo\AppData\Local\arduino\cores\6384da0a6fa2f70a2504de7ae90f6808\core.a(rcc.c.o)
 .debug_frame   0x000010dc       0x98 C:\Users\Lenovo\AppData\Local\arduino\cores\6384da0a6fa2f70a2504de7ae90f6808\core.a(rcc_f1.c.o)
 .debug_frame   0x00001174       0x68 C:\Users\Lenovo\AppData\Local\arduino\cores\6384da0a6fa2f70a2504de7ae90f6808\core.a(systick.c.o)
 .debug_frame   0x000011dc      0x1c0 C:\Users\Lenovo\AppData\Local\arduino\cores\6384da0a6fa2f70a2504de7ae90f6808\core.a(timer.c.o)
 .debug_frame   0x0000139c       0xb4 C:\Users\Lenovo\AppData\Local\arduino\cores\6384da0a6fa2f70a2504de7ae90f6808\core.a(usart.c.o)
 .debug_frame   0x00001450       0xac C:\Users\Lenovo\AppData\Local\arduino\cores\6384da0a6fa2f70a2504de7ae90f6808\core.a(usart_f1.c.o)
 .debug_frame   0x000014fc       0x28 C:\Users\Lenovo\AppData\Local\arduino\cores\6384da0a6fa2f70a2504de7ae90f6808\core.a(usart_private.c.o)
 .debug_frame   0x00001524       0x6c C:\Users\Lenovo\AppData\Local\arduino\cores\6384da0a6fa2f70a2504de7ae90f6808\core.a(usb.c.o)
 .debug_frame   0x00001590      0x2c8 C:\Users\Lenovo\AppData\Local\arduino\cores\6384da0a6fa2f70a2504de7ae90f6808\core.a(usb_cdcacm.c.o)
 .debug_frame   0x00001858       0x20 C:\Users\Lenovo\AppData\Local\arduino\cores\6384da0a6fa2f70a2504de7ae90f6808\core.a(usb_reg_map.c.o)
 .debug_frame   0x00001878      0x1ac C:\Users\Lenovo\AppData\Local\arduino\cores\6384da0a6fa2f70a2504de7ae90f6808\core.a(usb_core.c.o)
 .debug_frame   0x00001a24       0x28 C:\Users\Lenovo\AppData\Local\arduino\cores\6384da0a6fa2f70a2504de7ae90f6808\core.a(usb_init.c.o)
 .debug_frame   0x00001a4c       0x4c C:\Users\Lenovo\AppData\Local\arduino\cores\6384da0a6fa2f70a2504de7ae90f6808\core.a(usb_mem.c.o)
 .debug_frame   0x00001a98      0x3d0 C:\Users\Lenovo\AppData\Local\arduino\cores\6384da0a6fa2f70a2504de7ae90f6808\core.a(usb_regs.c.o)
 .debug_frame   0x00001e68       0xc8 C:\Users\Lenovo\AppData\Local\arduino\cores\6384da0a6fa2f70a2504de7ae90f6808\core.a(util.c.o)
 .debug_frame   0x00001f30       0x38 C:\Users\Lenovo\AppData\Local\arduino\cores\6384da0a6fa2f70a2504de7ae90f6808\core.a(main.cpp.o)
 .debug_frame   0x00001f68       0x2c C:\Users\Lenovo\AppData\Local\arduino\cores\6384da0a6fa2f70a2504de7ae90f6808\core.a(wirish_digital_f1.cpp.o)
 .debug_frame   0x00001f94       0x30 C:\Users\Lenovo\AppData\Local\arduino\cores\6384da0a6fa2f70a2504de7ae90f6808\core.a(wirish_digital.cpp.o)
 .debug_frame   0x00001fc4       0x4c C:\Users\Lenovo\AppData\Local\arduino\cores\6384da0a6fa2f70a2504de7ae90f6808\core.a(wirish_time.cpp.o)
 .debug_frame   0x00002010       0x20 C:\Users\Lenovo\AppData\Local\arduino\cores\6384da0a6fa2f70a2504de7ae90f6808\core.a(hooks.c.o)
 .debug_frame   0x00002030       0x30 C:\Users\Lenovo\AppData\Local\arduino\cores\6384da0a6fa2f70a2504de7ae90f6808\core.a(dma.c.o)
 .debug_frame   0x00002060       0x28 C:\Users\Lenovo\AppData\Local\arduino\cores\6384da0a6fa2f70a2504de7ae90f6808\core.a(gpio.c.o)
 .debug_frame   0x00002088      0x14c C:\Users\Lenovo\AppData\Local\arduino\cores\6384da0a6fa2f70a2504de7ae90f6808\core.a(i2c.c.o)
 .debug_frame   0x000021d4       0x2c c:/users/lenovo/appdata/local/arduino15/packages/arduino/tools/arm-none-eabi-gcc/4.8.3-2014q1/bin/../lib/gcc/arm-none-eabi/4.8.3/armv7-m\libgcc.a(_fixdfdi.o)
 .debug_frame   0x00002200       0x2c c:/users/lenovo/appdata/local/arduino15/packages/arduino/tools/arm-none-eabi-gcc/4.8.3-2014q1/bin/../lib/gcc/arm-none-eabi/4.8.3/armv7-m\libgcc.a(_fixunsdfdi.o)
 .debug_frame   0x0000222c       0x58 c:/users/lenovo/appdata/local/arduino15/packages/arduino/tools/arm-none-eabi-gcc/4.8.3-2014q1/bin/../lib/gcc/arm-none-eabi/4.8.3/armv7-m\libgcc.a(bpabi.o)
 .debug_frame   0x00002284       0x34 c:/users/lenovo/appdata/local/arduino15/packages/arduino/tools/arm-none-eabi-gcc/4.8.3-2014q1/bin/../lib/gcc/arm-none-eabi/4.8.3/armv7-m\libgcc.a(_divdi3.o)
 .debug_frame   0x000022b8       0x34 c:/users/lenovo/appdata/local/arduino15/packages/arduino/tools/arm-none-eabi-gcc/4.8.3-2014q1/bin/../lib/gcc/arm-none-eabi/4.8.3/armv7-m\libgcc.a(_udivdi3.o)
 .debug_frame   0x000022ec       0x20 c:/users/lenovo/appdata/local/arduino15/packages/arduino/tools/arm-none-eabi-gcc/4.8.3-2014q1/bin/../lib/gcc/arm-none-eabi/4.8.3/../../../../arm-none-eabi/lib/armv7-m\libc_s.a(lib_a-errno.o)
 .debug_frame   0x0000230c       0x28 c:/users/lenovo/appdata/local/arduino15/packages/arduino/tools/arm-none-eabi-gcc/4.8.3-2014q1/bin/../lib/gcc/arm-none-eabi/4.8.3/../../../../arm-none-eabi/lib/armv7-m\libc_s.a(lib_a-exit.o)
 .debug_frame   0x00002334       0x2c c:/users/lenovo/appdata/local/arduino15/packages/arduino/tools/arm-none-eabi-gcc/4.8.3-2014q1/bin/../lib/gcc/arm-none-eabi/4.8.3/../../../../arm-none-eabi/lib/armv7-m\libc_s.a(lib_a-init.o)
 .debug_frame   0x00002360       0x20 c:/users/lenovo/appdata/local/arduino15/packages/arduino/tools/arm-none-eabi-gcc/4.8.3-2014q1/bin/../lib/gcc/arm-none-eabi/4.8.3/../../../../arm-none-eabi/lib/armv7-m\libc_s.a(lib_a-memset.o)
 .debug_frame   0x00002380       0x20 c:/users/lenovo/appdata/local/arduino15/packages/arduino/tools/arm-none-eabi-gcc/4.8.3-2014q1/bin/../lib/gcc/arm-none-eabi/4.8.3/../../../../arm-none-eabi/lib/armv7-m\libc_s.a(lib_a-strcpy.o)
 .debug_frame   0x000023a0       0x20 c:/users/lenovo/appdata/local/arduino15/packages/arduino/tools/arm-none-eabi-gcc/4.8.3-2014q1/bin/../lib/gcc/arm-none-eabi/4.8.3/../../../../arm-none-eabi/lib/armv7-m\libc_s.a(lib_a-strlen.o)

.debug_str      0x00000000     0x84fe
 *(.debug_str)
 .debug_str     0x00000000      0xe5a C:\Users\Lenovo\AppData\Local\arduino\sketches\0A1F667BE7A1596EA767C94737D7EA1C\sketch\Lavadora.ino.cpp.o
                                0xf08 (size before relaxing)
 .debug_str     0x00000e5a      0x1f9 C:\Users\Lenovo\AppData\Local\arduino\sketches\0A1F667BE7A1596EA767C94737D7EA1C\sketch\SevSeg.cpp.o
                                0x8ff (size before relaxing)
 .debug_str     0x00001053      0xcf5 C:\Users\Lenovo\AppData\Local\arduino\sketches\0A1F667BE7A1596EA767C94737D7EA1C\core\board.cpp.o
                                0xff3 (size before relaxing)
 .debug_str     0x00001d48      0x783 C:\Users\Lenovo\AppData\Local\arduino\sketches\0A1F667BE7A1596EA767C94737D7EA1C\core\wirish\boards.cpp.o
                               0x1153 (size before relaxing)
 .debug_str     0x000024cb      0x3fb C:\Users\Lenovo\AppData\Local\arduino\sketches\0A1F667BE7A1596EA767C94737D7EA1C\core\wirish\boards_setup.cpp.o
                                0xaac (size before relaxing)
 .debug_str     0x000028c6      0x1ca C:\Users\Lenovo\AppData\Local\arduino\sketches\0A1F667BE7A1596EA767C94737D7EA1C\core\wirish\start_c.c.o
                                0x208 (size before relaxing)
 .debug_str     0x00002a90      0x1ea C:\Users\Lenovo\AppData\Local\arduino\sketches\0A1F667BE7A1596EA767C94737D7EA1C\core\wirish\syscalls.c.o
                                0x38a (size before relaxing)
 .debug_str     0x00002c7a     0x10be C:\Users\Lenovo\AppData\Local\arduino\cores\6384da0a6fa2f70a2504de7ae90f6808\core.a(HardwareSerial.cpp.o)
                               0x1c13 (size before relaxing)
 .debug_str     0x00003d38      0x433 C:\Users\Lenovo\AppData\Local\arduino\cores\6384da0a6fa2f70a2504de7ae90f6808\core.a(Print.cpp.o)
                                0xfe1 (size before relaxing)
 .debug_str     0x0000416b      0x183 C:\Users\Lenovo\AppData\Local\arduino\cores\6384da0a6fa2f70a2504de7ae90f6808\core.a(cxxabi-compat.cpp.o)
                                0x3a0 (size before relaxing)
 .debug_str     0x000042ee      0x233 C:\Users\Lenovo\AppData\Local\arduino\cores\6384da0a6fa2f70a2504de7ae90f6808\core.a(adc.c.o)
                                0xad7 (size before relaxing)
 .debug_str     0x00004521      0x219 C:\Users\Lenovo\AppData\Local\arduino\cores\6384da0a6fa2f70a2504de7ae90f6808\core.a(adc_f1.c.o)
                                0xdf2 (size before relaxing)
 .debug_str     0x0000473a      0xaf0 C:\Users\Lenovo\AppData\Local\arduino\cores\6384da0a6fa2f70a2504de7ae90f6808\core.a(dma_f1.c.o)
                               0x13b5 (size before relaxing)
 .debug_str     0x0000522a      0x23b C:\Users\Lenovo\AppData\Local\arduino\cores\6384da0a6fa2f70a2504de7ae90f6808\core.a(exti.c.o)
                                0x936 (size before relaxing)
 .debug_str     0x00005465       0x76 C:\Users\Lenovo\AppData\Local\arduino\cores\6384da0a6fa2f70a2504de7ae90f6808\core.a(exti_f1.c.o)
                                0x2fc (size before relaxing)
 .debug_str     0x000054db       0x80 C:\Users\Lenovo\AppData\Local\arduino\cores\6384da0a6fa2f70a2504de7ae90f6808\core.a(flash.c.o)
                                0x21b (size before relaxing)
 .debug_str     0x0000555b       0xb0 C:\Users\Lenovo\AppData\Local\arduino\cores\6384da0a6fa2f70a2504de7ae90f6808\core.a(gpio_f1.c.o)
                                0x7f4 (size before relaxing)
 .debug_str     0x0000560b      0x2eb C:\Users\Lenovo\AppData\Local\arduino\cores\6384da0a6fa2f70a2504de7ae90f6808\core.a(i2c_f1.c.o)
                                0xdcd (size before relaxing)
 .debug_str     0x000058f6       0xef C:\Users\Lenovo\AppData\Local\arduino\cores\6384da0a6fa2f70a2504de7ae90f6808\core.a(nvic.c.o)
                                0x724 (size before relaxing)
 .debug_str     0x000059e5      0x113 C:\Users\Lenovo\AppData\Local\arduino\cores\6384da0a6fa2f70a2504de7ae90f6808\core.a(rcc.c.o)
                                0x570 (size before relaxing)
 .debug_str     0x00005af8      0x107 C:\Users\Lenovo\AppData\Local\arduino\cores\6384da0a6fa2f70a2504de7ae90f6808\core.a(rcc_f1.c.o)
                                0x811 (size before relaxing)
 .debug_str     0x00005bff       0xdc C:\Users\Lenovo\AppData\Local\arduino\cores\6384da0a6fa2f70a2504de7ae90f6808\core.a(systick.c.o)
                                0x281 (size before relaxing)
 .debug_str     0x00005cdb      0x372 C:\Users\Lenovo\AppData\Local\arduino\cores\6384da0a6fa2f70a2504de7ae90f6808\core.a(timer.c.o)
                                0xeca (size before relaxing)
 .debug_str     0x0000604d       0xf0 C:\Users\Lenovo\AppData\Local\arduino\cores\6384da0a6fa2f70a2504de7ae90f6808\core.a(usart.c.o)
                                0x9e7 (size before relaxing)
 .debug_str     0x0000613d      0x14f C:\Users\Lenovo\AppData\Local\arduino\cores\6384da0a6fa2f70a2504de7ae90f6808\core.a(usart_f1.c.o)
                                0xadb (size before relaxing)
 .debug_str     0x0000628c       0x7c C:\Users\Lenovo\AppData\Local\arduino\cores\6384da0a6fa2f70a2504de7ae90f6808\core.a(usart_private.c.o)
                                0x8a6 (size before relaxing)
 .debug_str     0x00006308      0x61e C:\Users\Lenovo\AppData\Local\arduino\cores\6384da0a6fa2f70a2504de7ae90f6808\core.a(usb.c.o)
                                0xa7e (size before relaxing)
 .debug_str     0x00006926      0x99b C:\Users\Lenovo\AppData\Local\arduino\cores\6384da0a6fa2f70a2504de7ae90f6808\core.a(usb_cdcacm.c.o)
                               0x184f (size before relaxing)
 .debug_str     0x000072c1       0xa9 C:\Users\Lenovo\AppData\Local\arduino\cores\6384da0a6fa2f70a2504de7ae90f6808\core.a(usb_reg_map.c.o)
                                0x2a4 (size before relaxing)
 .debug_str     0x0000736a      0x4a9 C:\Users\Lenovo\AppData\Local\arduino\cores\6384da0a6fa2f70a2504de7ae90f6808\core.a(usb_core.c.o)
                                0xadc (size before relaxing)
 .debug_str     0x00007813       0xae C:\Users\Lenovo\AppData\Local\arduino\cores\6384da0a6fa2f70a2504de7ae90f6808\core.a(usb_init.c.o)
                                0x540 (size before relaxing)
 .debug_str     0x000078c1       0xba C:\Users\Lenovo\AppData\Local\arduino\cores\6384da0a6fa2f70a2504de7ae90f6808\core.a(usb_mem.c.o)
                                0x1fe (size before relaxing)
 .debug_str     0x0000797b      0x3f3 C:\Users\Lenovo\AppData\Local\arduino\cores\6384da0a6fa2f70a2504de7ae90f6808\core.a(usb_regs.c.o)
                                0x57e (size before relaxing)
 .debug_str     0x00007d6e      0x110 C:\Users\Lenovo\AppData\Local\arduino\cores\6384da0a6fa2f70a2504de7ae90f6808\core.a(util.c.o)
                                0xa53 (size before relaxing)
 .debug_str     0x00007e7e       0x80 C:\Users\Lenovo\AppData\Local\arduino\cores\6384da0a6fa2f70a2504de7ae90f6808\core.a(main.cpp.o)
                                0x1c4 (size before relaxing)
 .debug_str     0x00007efe       0x8c C:\Users\Lenovo\AppData\Local\arduino\cores\6384da0a6fa2f70a2504de7ae90f6808\core.a(wirish_digital_f1.cpp.o)
                                0xc73 (size before relaxing)
 .debug_str     0x00007f8a       0x84 C:\Users\Lenovo\AppData\Local\arduino\cores\6384da0a6fa2f70a2504de7ae90f6808\core.a(wirish_digital.cpp.o)
                                0xae4 (size before relaxing)
 .debug_str     0x0000800e       0x88 C:\Users\Lenovo\AppData\Local\arduino\cores\6384da0a6fa2f70a2504de7ae90f6808\core.a(wirish_time.cpp.o)
                                0x33e (size before relaxing)
 .debug_str     0x00008096       0x73 C:\Users\Lenovo\AppData\Local\arduino\cores\6384da0a6fa2f70a2504de7ae90f6808\core.a(hooks.c.o)
                                0x13d (size before relaxing)
 .debug_str     0x00008109      0x14a C:\Users\Lenovo\AppData\Local\arduino\cores\6384da0a6fa2f70a2504de7ae90f6808\core.a(dma.c.o)
                                0xa4f (size before relaxing)
 .debug_str     0x00008253       0x73 C:\Users\Lenovo\AppData\Local\arduino\cores\6384da0a6fa2f70a2504de7ae90f6808\core.a(gpio.c.o)
                                0x45f (size before relaxing)
 .debug_str     0x000082c6      0x238 C:\Users\Lenovo\AppData\Local\arduino\cores\6384da0a6fa2f70a2504de7ae90f6808\core.a(i2c.c.o)
                                0xfd0 (size before relaxing)

.debug_loc      0x00000000     0x95e8
 *(.debug_loc)
 .debug_loc     0x00000000      0x2f4 C:\Users\Lenovo\AppData\Local\arduino\sketches\0A1F667BE7A1596EA767C94737D7EA1C\sketch\Lavadora.ino.cpp.o
 .debug_loc     0x000002f4      0xda0 C:\Users\Lenovo\AppData\Local\arduino\sketches\0A1F667BE7A1596EA767C94737D7EA1C\sketch\SevSeg.cpp.o
 .debug_loc     0x00001094      0x253 C:\Users\Lenovo\AppData\Local\arduino\sketches\0A1F667BE7A1596EA767C94737D7EA1C\core\wirish\boards.cpp.o
 .debug_loc     0x000012e7       0xa5 C:\Users\Lenovo\AppData\Local\arduino\sketches\0A1F667BE7A1596EA767C94737D7EA1C\core\wirish\start_c.c.o
 .debug_loc     0x0000138c      0x38a C:\Users\Lenovo\AppData\Local\arduino\sketches\0A1F667BE7A1596EA767C94737D7EA1C\core\wirish\syscalls.c.o
 .debug_loc     0x00001716      0x39a C:\Users\Lenovo\AppData\Local\arduino\cores\6384da0a6fa2f70a2504de7ae90f6808\core.a(HardwareSerial.cpp.o)
 .debug_loc     0x00001ab0     0x10a7 C:\Users\Lenovo\AppData\Local\arduino\cores\6384da0a6fa2f70a2504de7ae90f6808\core.a(Print.cpp.o)
 .debug_loc     0x00002b57       0x81 C:\Users\Lenovo\AppData\Local\arduino\cores\6384da0a6fa2f70a2504de7ae90f6808\core.a(cxxabi-compat.cpp.o)
 .debug_loc     0x00002bd8      0x145 C:\Users\Lenovo\AppData\Local\arduino\cores\6384da0a6fa2f70a2504de7ae90f6808\core.a(adc.c.o)
 .debug_loc     0x00002d1d      0x2c7 C:\Users\Lenovo\AppData\Local\arduino\cores\6384da0a6fa2f70a2504de7ae90f6808\core.a(adc_f1.c.o)
 .debug_loc     0x00002fe4      0xb40 C:\Users\Lenovo\AppData\Local\arduino\cores\6384da0a6fa2f70a2504de7ae90f6808\core.a(dma_f1.c.o)
 .debug_loc     0x00003b24      0x5ee C:\Users\Lenovo\AppData\Local\arduino\cores\6384da0a6fa2f70a2504de7ae90f6808\core.a(exti.c.o)
 .debug_loc     0x00004112       0x42 C:\Users\Lenovo\AppData\Local\arduino\cores\6384da0a6fa2f70a2504de7ae90f6808\core.a(exti_f1.c.o)
 .debug_loc     0x00004154       0x3f C:\Users\Lenovo\AppData\Local\arduino\cores\6384da0a6fa2f70a2504de7ae90f6808\core.a(flash.c.o)
 .debug_loc     0x00004193      0x2ba C:\Users\Lenovo\AppData\Local\arduino\cores\6384da0a6fa2f70a2504de7ae90f6808\core.a(gpio_f1.c.o)
 .debug_loc     0x0000444d      0x1b9 C:\Users\Lenovo\AppData\Local\arduino\cores\6384da0a6fa2f70a2504de7ae90f6808\core.a(i2c_f1.c.o)
 .debug_loc     0x00004606      0x121 C:\Users\Lenovo\AppData\Local\arduino\cores\6384da0a6fa2f70a2504de7ae90f6808\core.a(nvic.c.o)
 .debug_loc     0x00004727      0x131 C:\Users\Lenovo\AppData\Local\arduino\cores\6384da0a6fa2f70a2504de7ae90f6808\core.a(rcc.c.o)
 .debug_loc     0x00004858      0x352 C:\Users\Lenovo\AppData\Local\arduino\cores\6384da0a6fa2f70a2504de7ae90f6808\core.a(rcc_f1.c.o)
 .debug_loc     0x00004baa      0xb8c C:\Users\Lenovo\AppData\Local\arduino\cores\6384da0a6fa2f70a2504de7ae90f6808\core.a(timer.c.o)
 .debug_loc     0x00005736      0x3af C:\Users\Lenovo\AppData\Local\arduino\cores\6384da0a6fa2f70a2504de7ae90f6808\core.a(usart.c.o)
 .debug_loc     0x00005ae5      0x2d2 C:\Users\Lenovo\AppData\Local\arduino\cores\6384da0a6fa2f70a2504de7ae90f6808\core.a(usart_f1.c.o)
 .debug_loc     0x00005db7       0x3f C:\Users\Lenovo\AppData\Local\arduino\cores\6384da0a6fa2f70a2504de7ae90f6808\core.a(usart_private.c.o)
 .debug_loc     0x00005df6      0x4c8 C:\Users\Lenovo\AppData\Local\arduino\cores\6384da0a6fa2f70a2504de7ae90f6808\core.a(usb.c.o)
 .debug_loc     0x000062be      0xaab C:\Users\Lenovo\AppData\Local\arduino\cores\6384da0a6fa2f70a2504de7ae90f6808\core.a(usb_cdcacm.c.o)
 .debug_loc     0x00006d69      0x119 C:\Users\Lenovo\AppData\Local\arduino\cores\6384da0a6fa2f70a2504de7ae90f6808\core.a(usb_reg_map.c.o)
 .debug_loc     0x00006e82      0x7a1 C:\Users\Lenovo\AppData\Local\arduino\cores\6384da0a6fa2f70a2504de7ae90f6808\core.a(usb_core.c.o)
 .debug_loc     0x00007623      0x260 C:\Users\Lenovo\AppData\Local\arduino\cores\6384da0a6fa2f70a2504de7ae90f6808\core.a(usb_mem.c.o)
 .debug_loc     0x00007883      0xbab C:\Users\Lenovo\AppData\Local\arduino\cores\6384da0a6fa2f70a2504de7ae90f6808\core.a(usb_regs.c.o)
 .debug_loc     0x0000842e      0x27f C:\Users\Lenovo\AppData\Local\arduino\cores\6384da0a6fa2f70a2504de7ae90f6808\core.a(util.c.o)
 .debug_loc     0x000086ad      0x137 C:\Users\Lenovo\AppData\Local\arduino\cores\6384da0a6fa2f70a2504de7ae90f6808\core.a(wirish_digital_f1.cpp.o)
 .debug_loc     0x000087e4       0x7c C:\Users\Lenovo\AppData\Local\arduino\cores\6384da0a6fa2f70a2504de7ae90f6808\core.a(wirish_digital.cpp.o)
 .debug_loc     0x00008860       0x82 C:\Users\Lenovo\AppData\Local\arduino\cores\6384da0a6fa2f70a2504de7ae90f6808\core.a(wirish_time.cpp.o)
 .debug_loc     0x000088e2       0x42 C:\Users\Lenovo\AppData\Local\arduino\cores\6384da0a6fa2f70a2504de7ae90f6808\core.a(dma.c.o)
 .debug_loc     0x00008924       0x2c C:\Users\Lenovo\AppData\Local\arduino\cores\6384da0a6fa2f70a2504de7ae90f6808\core.a(gpio.c.o)
 .debug_loc     0x00008950      0xc98 C:\Users\Lenovo\AppData\Local\arduino\cores\6384da0a6fa2f70a2504de7ae90f6808\core.a(i2c.c.o)

.debug_macinfo
 *(.debug_macinfo)

.debug_weaknames
 *(.debug_weaknames)

.debug_funcnames
 *(.debug_funcnames)

.debug_typenames
 *(.debug_typenames)

.debug_varnames
 *(.debug_varnames)

.note.gnu.arm.ident
 *(.note.gnu.arm.ident)

.ARM.attributes
                0x00000000       0x29
 *(.ARM.attributes)
 .ARM.attributes
                0x00000000       0x1d c:/users/lenovo/appdata/local/arduino15/packages/arduino/tools/arm-none-eabi-gcc/4.8.3-2014q1/bin/../lib/gcc/arm-none-eabi/4.8.3/armv7-m/crti.o
 .ARM.attributes
                0x0000001d       0x2d c:/users/lenovo/appdata/local/arduino15/packages/arduino/tools/arm-none-eabi-gcc/4.8.3-2014q1/bin/../lib/gcc/arm-none-eabi/4.8.3/armv7-m/crtbegin.o
 .ARM.attributes
                0x0000004a       0x1b c:/users/lenovo/appdata/local/arduino15/packages/arduino/tools/arm-none-eabi-gcc/4.8.3-2014q1/bin/../lib/gcc/arm-none-eabi/4.8.3/../../../../arm-none-eabi/lib/armv7-m/crt0.o
 .ARM.attributes
                0x00000065       0x33 C:\Users\Lenovo\AppData\Local\arduino\sketches\0A1F667BE7A1596EA767C94737D7EA1C\sketch\Lavadora.ino.cpp.o
 .ARM.attributes
                0x00000098       0x33 C:\Users\Lenovo\AppData\Local\arduino\sketches\0A1F667BE7A1596EA767C94737D7EA1C\sketch\SevSeg.cpp.o
 .ARM.attributes
                0x000000cb       0x33 C:\Users\Lenovo\AppData\Local\arduino\sketches\0A1F667BE7A1596EA767C94737D7EA1C\core\board.cpp.o
 .ARM.attributes
                0x000000fe       0x33 C:\Users\Lenovo\AppData\Local\arduino\sketches\0A1F667BE7A1596EA767C94737D7EA1C\core\wirish\boards.cpp.o
 .ARM.attributes
                0x00000131       0x33 C:\Users\Lenovo\AppData\Local\arduino\sketches\0A1F667BE7A1596EA767C94737D7EA1C\core\wirish\boards_setup.cpp.o
 .ARM.attributes
                0x00000164       0x1b C:\Users\Lenovo\AppData\Local\arduino\sketches\0A1F667BE7A1596EA767C94737D7EA1C\core\wirish\start.S.o
 .ARM.attributes
                0x0000017f       0x33 C:\Users\Lenovo\AppData\Local\arduino\sketches\0A1F667BE7A1596EA767C94737D7EA1C\core\wirish\start_c.c.o
 .ARM.attributes
                0x000001b2       0x33 C:\Users\Lenovo\AppData\Local\arduino\sketches\0A1F667BE7A1596EA767C94737D7EA1C\core\wirish\syscalls.c.o
 .ARM.attributes
                0x000001e5       0x33 C:\Users\Lenovo\AppData\Local\arduino\cores\6384da0a6fa2f70a2504de7ae90f6808\core.a(HardwareSerial.cpp.o)
 .ARM.attributes
                0x00000218       0x33 C:\Users\Lenovo\AppData\Local\arduino\cores\6384da0a6fa2f70a2504de7ae90f6808\core.a(Print.cpp.o)
 .ARM.attributes
                0x0000024b       0x33 C:\Users\Lenovo\AppData\Local\arduino\cores\6384da0a6fa2f70a2504de7ae90f6808\core.a(cxxabi-compat.cpp.o)
 .ARM.attributes
                0x0000027e       0x33 C:\Users\Lenovo\AppData\Local\arduino\cores\6384da0a6fa2f70a2504de7ae90f6808\core.a(adc.c.o)
 .ARM.attributes
                0x000002b1       0x33 C:\Users\Lenovo\AppData\Local\arduino\cores\6384da0a6fa2f70a2504de7ae90f6808\core.a(adc_f1.c.o)
 .ARM.attributes
                0x000002e4       0x33 C:\Users\Lenovo\AppData\Local\arduino\cores\6384da0a6fa2f70a2504de7ae90f6808\core.a(dma_f1.c.o)
 .ARM.attributes
                0x00000317       0x1b C:\Users\Lenovo\AppData\Local\arduino\cores\6384da0a6fa2f70a2504de7ae90f6808\core.a(exc.S.o)
 .ARM.attributes
                0x00000332       0x33 C:\Users\Lenovo\AppData\Local\arduino\cores\6384da0a6fa2f70a2504de7ae90f6808\core.a(exti.c.o)
 .ARM.attributes
                0x00000365       0x33 C:\Users\Lenovo\AppData\Local\arduino\cores\6384da0a6fa2f70a2504de7ae90f6808\core.a(exti_f1.c.o)
 .ARM.attributes
                0x00000398       0x33 C:\Users\Lenovo\AppData\Local\arduino\cores\6384da0a6fa2f70a2504de7ae90f6808\core.a(flash.c.o)
 .ARM.attributes
                0x000003cb       0x33 C:\Users\Lenovo\AppData\Local\arduino\cores\6384da0a6fa2f70a2504de7ae90f6808\core.a(gpio_f1.c.o)
 .ARM.attributes
                0x000003fe       0x33 C:\Users\Lenovo\AppData\Local\arduino\cores\6384da0a6fa2f70a2504de7ae90f6808\core.a(i2c_f1.c.o)
 .ARM.attributes
                0x00000431       0x33 C:\Users\Lenovo\AppData\Local\arduino\cores\6384da0a6fa2f70a2504de7ae90f6808\core.a(nvic.c.o)
 .ARM.attributes
                0x00000464       0x33 C:\Users\Lenovo\AppData\Local\arduino\cores\6384da0a6fa2f70a2504de7ae90f6808\core.a(rcc.c.o)
 .ARM.attributes
                0x00000497       0x33 C:\Users\Lenovo\AppData\Local\arduino\cores\6384da0a6fa2f70a2504de7ae90f6808\core.a(rcc_f1.c.o)
 .ARM.attributes
                0x000004ca       0x1b C:\Users\Lenovo\AppData\Local\arduino\cores\6384da0a6fa2f70a2504de7ae90f6808\core.a(isrs.S.o)
 .ARM.attributes
                0x000004e5       0x1b C:\Users\Lenovo\AppData\Local\arduino\cores\6384da0a6fa2f70a2504de7ae90f6808\core.a(vector_table.S.o)
 .ARM.attributes
                0x00000500       0x33 C:\Users\Lenovo\AppData\Local\arduino\cores\6384da0a6fa2f70a2504de7ae90f6808\core.a(systick.c.o)
 .ARM.attributes
                0x00000533       0x33 C:\Users\Lenovo\AppData\Local\arduino\cores\6384da0a6fa2f70a2504de7ae90f6808\core.a(timer.c.o)
 .ARM.attributes
                0x00000566       0x33 C:\Users\Lenovo\AppData\Local\arduino\cores\6384da0a6fa2f70a2504de7ae90f6808\core.a(usart.c.o)
 .ARM.attributes
                0x00000599       0x33 C:\Users\Lenovo\AppData\Local\arduino\cores\6384da0a6fa2f70a2504de7ae90f6808\core.a(usart_f1.c.o)
 .ARM.attributes
                0x000005cc       0x33 C:\Users\Lenovo\AppData\Local\arduino\cores\6384da0a6fa2f70a2504de7ae90f6808\core.a(usart_private.c.o)
 .ARM.attributes
                0x000005ff       0x33 C:\Users\Lenovo\AppData\Local\arduino\cores\6384da0a6fa2f70a2504de7ae90f6808\core.a(usb.c.o)
 .ARM.attributes
                0x00000632       0x33 C:\Users\Lenovo\AppData\Local\arduino\cores\6384da0a6fa2f70a2504de7ae90f6808\core.a(usb_cdcacm.c.o)
 .ARM.attributes
                0x00000665       0x33 C:\Users\Lenovo\AppData\Local\arduino\cores\6384da0a6fa2f70a2504de7ae90f6808\core.a(usb_reg_map.c.o)
 .ARM.attributes
                0x00000698       0x33 C:\Users\Lenovo\AppData\Local\arduino\cores\6384da0a6fa2f70a2504de7ae90f6808\core.a(usb_core.c.o)
 .ARM.attributes
                0x000006cb       0x33 C:\Users\Lenovo\AppData\Local\arduino\cores\6384da0a6fa2f70a2504de7ae90f6808\core.a(usb_init.c.o)
 .ARM.attributes
                0x000006fe       0x33 C:\Users\Lenovo\AppData\Local\arduino\cores\6384da0a6fa2f70a2504de7ae90f6808\core.a(usb_mem.c.o)
 .ARM.attributes
                0x00000731       0x33 C:\Users\Lenovo\AppData\Local\arduino\cores\6384da0a6fa2f70a2504de7ae90f6808\core.a(usb_regs.c.o)
 .ARM.attributes
                0x00000764       0x33 C:\Users\Lenovo\AppData\Local\arduino\cores\6384da0a6fa2f70a2504de7ae90f6808\core.a(util.c.o)
 .ARM.attributes
                0x00000797       0x33 C:\Users\Lenovo\AppData\Local\arduino\cores\6384da0a6fa2f70a2504de7ae90f6808\core.a(main.cpp.o)
 .ARM.attributes
                0x000007ca       0x33 C:\Users\Lenovo\AppData\Local\arduino\cores\6384da0a6fa2f70a2504de7ae90f6808\core.a(wirish_digital_f1.cpp.o)
 .ARM.attributes
                0x000007fd       0x33 C:\Users\Lenovo\AppData\Local\arduino\cores\6384da0a6fa2f70a2504de7ae90f6808\core.a(wirish_digital.cpp.o)
 .ARM.attributes
                0x00000830       0x33 C:\Users\Lenovo\AppData\Local\arduino\cores\6384da0a6fa2f70a2504de7ae90f6808\core.a(wirish_time.cpp.o)
 .ARM.attributes
                0x00000863       0x33 C:\Users\Lenovo\AppData\Local\arduino\cores\6384da0a6fa2f70a2504de7ae90f6808\core.a(hooks.c.o)
 .ARM.attributes
                0x00000896       0x33 C:\Users\Lenovo\AppData\Local\arduino\cores\6384da0a6fa2f70a2504de7ae90f6808\core.a(dma.c.o)
 .ARM.attributes
                0x000008c9       0x33 C:\Users\Lenovo\AppData\Local\arduino\cores\6384da0a6fa2f70a2504de7ae90f6808\core.a(gpio.c.o)
 .ARM.attributes
                0x000008fc       0x33 C:\Users\Lenovo\AppData\Local\arduino\cores\6384da0a6fa2f70a2504de7ae90f6808\core.a(i2c.c.o)
 .ARM.attributes
                0x0000092f       0x1d c:/users/lenovo/appdata/local/arduino15/packages/arduino/tools/arm-none-eabi-gcc/4.8.3-2014q1/bin/../lib/gcc/arm-none-eabi/4.8.3/armv7-m\libgcc.a(_arm_addsubdf3.o)
 .ARM.attributes
                0x0000094c       0x1d c:/users/lenovo/appdata/local/arduino15/packages/arduino/tools/arm-none-eabi-gcc/4.8.3-2014q1/bin/../lib/gcc/arm-none-eabi/4.8.3/armv7-m\libgcc.a(_arm_muldivdf3.o)
 .ARM.attributes
                0x00000969       0x1d c:/users/lenovo/appdata/local/arduino15/packages/arduino/tools/arm-none-eabi-gcc/4.8.3-2014q1/bin/../lib/gcc/arm-none-eabi/4.8.3/armv7-m\libgcc.a(_arm_cmpdf2.o)
 .ARM.attributes
                0x00000986       0x1d c:/users/lenovo/appdata/local/arduino15/packages/arduino/tools/arm-none-eabi-gcc/4.8.3-2014q1/bin/../lib/gcc/arm-none-eabi/4.8.3/armv7-m\libgcc.a(_arm_fixdfsi.o)
 .ARM.attributes
                0x000009a3       0x1d c:/users/lenovo/appdata/local/arduino15/packages/arduino/tools/arm-none-eabi-gcc/4.8.3-2014q1/bin/../lib/gcc/arm-none-eabi/4.8.3/armv7-m\libgcc.a(_arm_addsubsf3.o)
 .ARM.attributes
                0x000009c0       0x1d c:/users/lenovo/appdata/local/arduino15/packages/arduino/tools/arm-none-eabi-gcc/4.8.3-2014q1/bin/../lib/gcc/arm-none-eabi/4.8.3/armv7-m\libgcc.a(_arm_muldivsf3.o)
 .ARM.attributes
                0x000009dd       0x1d c:/users/lenovo/appdata/local/arduino15/packages/arduino/tools/arm-none-eabi-gcc/4.8.3-2014q1/bin/../lib/gcc/arm-none-eabi/4.8.3/armv7-m\libgcc.a(_arm_cmpsf2.o)
 .ARM.attributes
                0x000009fa       0x1d c:/users/lenovo/appdata/local/arduino15/packages/arduino/tools/arm-none-eabi-gcc/4.8.3-2014q1/bin/../lib/gcc/arm-none-eabi/4.8.3/armv7-m\libgcc.a(_arm_fixsfsi.o)
 .ARM.attributes
                0x00000a17       0x1d c:/users/lenovo/appdata/local/arduino15/packages/arduino/tools/arm-none-eabi-gcc/4.8.3-2014q1/bin/../lib/gcc/arm-none-eabi/4.8.3/armv7-m\libgcc.a(_aeabi_ldivmod.o)
 .ARM.attributes
                0x00000a34       0x1d c:/users/lenovo/appdata/local/arduino15/packages/arduino/tools/arm-none-eabi-gcc/4.8.3-2014q1/bin/../lib/gcc/arm-none-eabi/4.8.3/armv7-m\libgcc.a(_aeabi_uldivmod.o)
 .ARM.attributes
                0x00000a51       0x2d c:/users/lenovo/appdata/local/arduino15/packages/arduino/tools/arm-none-eabi-gcc/4.8.3-2014q1/bin/../lib/gcc/arm-none-eabi/4.8.3/armv7-m\libgcc.a(_fixdfdi.o)
 .ARM.attributes
                0x00000a7e       0x2d c:/users/lenovo/appdata/local/arduino15/packages/arduino/tools/arm-none-eabi-gcc/4.8.3-2014q1/bin/../lib/gcc/arm-none-eabi/4.8.3/armv7-m\libgcc.a(_fixunsdfdi.o)
 .ARM.attributes
                0x00000aab       0x2d c:/users/lenovo/appdata/local/arduino15/packages/arduino/tools/arm-none-eabi-gcc/4.8.3-2014q1/bin/../lib/gcc/arm-none-eabi/4.8.3/armv7-m\libgcc.a(bpabi.o)
 .ARM.attributes
                0x00000ad8       0x1d c:/users/lenovo/appdata/local/arduino15/packages/arduino/tools/arm-none-eabi-gcc/4.8.3-2014q1/bin/../lib/gcc/arm-none-eabi/4.8.3/armv7-m\libgcc.a(_dvmd_tls.o)
 .ARM.attributes
                0x00000af5       0x1d c:/users/lenovo/appdata/local/arduino15/packages/arduino/tools/arm-none-eabi-gcc/4.8.3-2014q1/bin/../lib/gcc/arm-none-eabi/4.8.3/armv7-m\libgcc.a(_arm_fixunsdfsi.o)
 .ARM.attributes
                0x00000b12       0x2d c:/users/lenovo/appdata/local/arduino15/packages/arduino/tools/arm-none-eabi-gcc/4.8.3-2014q1/bin/../lib/gcc/arm-none-eabi/4.8.3/armv7-m\libgcc.a(_divdi3.o)
 .ARM.attributes
                0x00000b3f       0x2d c:/users/lenovo/appdata/local/arduino15/packages/arduino/tools/arm-none-eabi-gcc/4.8.3-2014q1/bin/../lib/gcc/arm-none-eabi/4.8.3/armv7-m\libgcc.a(_udivdi3.o)
 .ARM.attributes
                0x00000b6c       0x2d c:/users/lenovo/appdata/local/arduino15/packages/arduino/tools/arm-none-eabi-gcc/4.8.3-2014q1/bin/../lib/gcc/arm-none-eabi/4.8.3/../../../../arm-none-eabi/lib/armv7-m\libc_s.a(lib_a-errno.o)
 .ARM.attributes
                0x00000b99       0x2d c:/users/lenovo/appdata/local/arduino15/packages/arduino/tools/arm-none-eabi-gcc/4.8.3-2014q1/bin/../lib/gcc/arm-none-eabi/4.8.3/../../../../arm-none-eabi/lib/armv7-m\libc_s.a(lib_a-exit.o)
 .ARM.attributes
                0x00000bc6       0x2d c:/users/lenovo/appdata/local/arduino15/packages/arduino/tools/arm-none-eabi-gcc/4.8.3-2014q1/bin/../lib/gcc/arm-none-eabi/4.8.3/../../../../arm-none-eabi/lib/armv7-m\libc_s.a(lib_a-impure.o)
 .ARM.attributes
                0x00000bf3       0x2d c:/users/lenovo/appdata/local/arduino15/packages/arduino/tools/arm-none-eabi-gcc/4.8.3-2014q1/bin/../lib/gcc/arm-none-eabi/4.8.3/../../../../arm-none-eabi/lib/armv7-m\libc_s.a(lib_a-init.o)
 .ARM.attributes
                0x00000c20       0x2d c:/users/lenovo/appdata/local/arduino15/packages/arduino/tools/arm-none-eabi-gcc/4.8.3-2014q1/bin/../lib/gcc/arm-none-eabi/4.8.3/../../../../arm-none-eabi/lib/armv7-m\libc_s.a(lib_a-memset.o)
 .ARM.attributes
                0x00000c4d       0x2d c:/users/lenovo/appdata/local/arduino15/packages/arduino/tools/arm-none-eabi-gcc/4.8.3-2014q1/bin/../lib/gcc/arm-none-eabi/4.8.3/../../../../arm-none-eabi/lib/armv7-m\libc_s.a(lib_a-strcpy.o)
 .ARM.attributes
                0x00000c7a       0x2d c:/users/lenovo/appdata/local/arduino15/packages/arduino/tools/arm-none-eabi-gcc/4.8.3-2014q1/bin/../lib/gcc/arm-none-eabi/4.8.3/../../../../arm-none-eabi/lib/armv7-m\libc_s.a(lib_a-strlen.o)
 .ARM.attributes
                0x00000ca7       0x2d c:/users/lenovo/appdata/local/arduino15/packages/arduino/tools/arm-none-eabi-gcc/4.8.3-2014q1/bin/../lib/gcc/arm-none-eabi/4.8.3/armv7-m/crtend.o
 .ARM.attributes
                0x00000cd4       0x1d c:/users/lenovo/appdata/local/arduino15/packages/arduino/tools/arm-none-eabi-gcc/4.8.3-2014q1/bin/../lib/gcc/arm-none-eabi/4.8.3/armv7-m/crtn.o

/DISCARD/
 *(.note.GNU-stack)
OUTPUT(C:\Users\Lenovo\AppData\Local\arduino\sketches\0A1F667BE7A1596EA767C94737D7EA1C/Lavadora.ino.elf elf32-littlearm)

.debug_ranges   0x00000000     0x1c50
 .debug_ranges  0x00000000      0x108 C:\Users\Lenovo\AppData\Local\arduino\sketches\0A1F667BE7A1596EA767C94737D7EA1C\sketch\Lavadora.ino.cpp.o
 .debug_ranges  0x00000108      0x210 C:\Users\Lenovo\AppData\Local\arduino\sketches\0A1F667BE7A1596EA767C94737D7EA1C\sketch\SevSeg.cpp.o
 .debug_ranges  0x00000318       0x50 C:\Users\Lenovo\AppData\Local\arduino\sketches\0A1F667BE7A1596EA767C94737D7EA1C\core\board.cpp.o
 .debug_ranges  0x00000368      0x148 C:\Users\Lenovo\AppData\Local\arduino\sketches\0A1F667BE7A1596EA767C94737D7EA1C\core\wirish\boards.cpp.o
 .debug_ranges  0x000004b0       0x30 C:\Users\Lenovo\AppData\Local\arduino\sketches\0A1F667BE7A1596EA767C94737D7EA1C\core\wirish\boards_setup.cpp.o
 .debug_ranges  0x000004e0       0x10 C:\Users\Lenovo\AppData\Local\arduino\sketches\0A1F667BE7A1596EA767C94737D7EA1C\core\wirish\start_c.c.o
 .debug_ranges  0x000004f0       0x78 C:\Users\Lenovo\AppData\Local\arduino\sketches\0A1F667BE7A1596EA767C94737D7EA1C\core\wirish\syscalls.c.o
 .debug_ranges  0x00000568       0x90 C:\Users\Lenovo\AppData\Local\arduino\cores\6384da0a6fa2f70a2504de7ae90f6808\core.a(HardwareSerial.cpp.o)
 .debug_ranges  0x000005f8      0x230 C:\Users\Lenovo\AppData\Local\arduino\cores\6384da0a6fa2f70a2504de7ae90f6808\core.a(Print.cpp.o)
 .debug_ranges  0x00000828       0x18 C:\Users\Lenovo\AppData\Local\arduino\cores\6384da0a6fa2f70a2504de7ae90f6808\core.a(cxxabi-compat.cpp.o)
 .debug_ranges  0x00000840       0x28 C:\Users\Lenovo\AppData\Local\arduino\cores\6384da0a6fa2f70a2504de7ae90f6808\core.a(adc.c.o)
 .debug_ranges  0x00000868       0xb8 C:\Users\Lenovo\AppData\Local\arduino\cores\6384da0a6fa2f70a2504de7ae90f6808\core.a(adc_f1.c.o)
 .debug_ranges  0x00000920      0x1d8 C:\Users\Lenovo\AppData\Local\arduino\cores\6384da0a6fa2f70a2504de7ae90f6808\core.a(dma_f1.c.o)
 .debug_ranges  0x00000af8       0xb8 C:\Users\Lenovo\AppData\Local\arduino\cores\6384da0a6fa2f70a2504de7ae90f6808\core.a(exti.c.o)
 .debug_ranges  0x00000bb0       0x10 C:\Users\Lenovo\AppData\Local\arduino\cores\6384da0a6fa2f70a2504de7ae90f6808\core.a(exti_f1.c.o)
 .debug_ranges  0x00000bc0       0x10 C:\Users\Lenovo\AppData\Local\arduino\cores\6384da0a6fa2f70a2504de7ae90f6808\core.a(flash.c.o)
 .debug_ranges  0x00000bd0       0x38 C:\Users\Lenovo\AppData\Local\arduino\cores\6384da0a6fa2f70a2504de7ae90f6808\core.a(gpio_f1.c.o)
 .debug_ranges  0x00000c08       0x90 C:\Users\Lenovo\AppData\Local\arduino\cores\6384da0a6fa2f70a2504de7ae90f6808\core.a(i2c_f1.c.o)
 .debug_ranges  0x00000c98       0x40 C:\Users\Lenovo\AppData\Local\arduino\cores\6384da0a6fa2f70a2504de7ae90f6808\core.a(nvic.c.o)
 .debug_ranges  0x00000cd8       0x98 C:\Users\Lenovo\AppData\Local\arduino\cores\6384da0a6fa2f70a2504de7ae90f6808\core.a(rcc.c.o)
 .debug_ranges  0x00000d70       0xc8 C:\Users\Lenovo\AppData\Local\arduino\cores\6384da0a6fa2f70a2504de7ae90f6808\core.a(rcc_f1.c.o)
 .debug_ranges  0x00000e38       0x48 C:\Users\Lenovo\AppData\Local\arduino\cores\6384da0a6fa2f70a2504de7ae90f6808\core.a(systick.c.o)
 .debug_ranges  0x00000e80       0xe8 C:\Users\Lenovo\AppData\Local\arduino\cores\6384da0a6fa2f70a2504de7ae90f6808\core.a(timer.c.o)
 .debug_ranges  0x00000f68       0xd0 C:\Users\Lenovo\AppData\Local\arduino\cores\6384da0a6fa2f70a2504de7ae90f6808\core.a(usart.c.o)
 .debug_ranges  0x00001038       0x90 C:\Users\Lenovo\AppData\Local\arduino\cores\6384da0a6fa2f70a2504de7ae90f6808\core.a(usart_f1.c.o)
 .debug_ranges  0x000010c8       0x10 C:\Users\Lenovo\AppData\Local\arduino\cores\6384da0a6fa2f70a2504de7ae90f6808\core.a(usart_private.c.o)
 .debug_ranges  0x000010d8       0xa8 C:\Users\Lenovo\AppData\Local\arduino\cores\6384da0a6fa2f70a2504de7ae90f6808\core.a(usb.c.o)
 .debug_ranges  0x00001180      0x238 C:\Users\Lenovo\AppData\Local\arduino\cores\6384da0a6fa2f70a2504de7ae90f6808\core.a(usb_cdcacm.c.o)
 .debug_ranges  0x000013b8       0x60 C:\Users\Lenovo\AppData\Local\arduino\cores\6384da0a6fa2f70a2504de7ae90f6808\core.a(usb_reg_map.c.o)
 .debug_ranges  0x00001418       0xc0 C:\Users\Lenovo\AppData\Local\arduino\cores\6384da0a6fa2f70a2504de7ae90f6808\core.a(usb_core.c.o)
 .debug_ranges  0x000014d8       0x10 C:\Users\Lenovo\AppData\Local\arduino\cores\6384da0a6fa2f70a2504de7ae90f6808\core.a(usb_init.c.o)
 .debug_ranges  0x000014e8       0x38 C:\Users\Lenovo\AppData\Local\arduino\cores\6384da0a6fa2f70a2504de7ae90f6808\core.a(usb_mem.c.o)
 .debug_ranges  0x00001520      0x290 C:\Users\Lenovo\AppData\Local\arduino\cores\6384da0a6fa2f70a2504de7ae90f6808\core.a(usb_regs.c.o)
 .debug_ranges  0x000017b0       0x58 C:\Users\Lenovo\AppData\Local\arduino\cores\6384da0a6fa2f70a2504de7ae90f6808\core.a(util.c.o)
 .debug_ranges  0x00001808       0x18 C:\Users\Lenovo\AppData\Local\arduino\cores\6384da0a6fa2f70a2504de7ae90f6808\core.a(main.cpp.o)
 .debug_ranges  0x00001820       0x30 C:\Users\Lenovo\AppData\Local\arduino\cores\6384da0a6fa2f70a2504de7ae90f6808\core.a(wirish_digital_f1.cpp.o)
 .debug_ranges  0x00001850       0x50 C:\Users\Lenovo\AppData\Local\arduino\cores\6384da0a6fa2f70a2504de7ae90f6808\core.a(wirish_digital.cpp.o)
 .debug_ranges  0x000018a0       0x38 C:\Users\Lenovo\AppData\Local\arduino\cores\6384da0a6fa2f70a2504de7ae90f6808\core.a(wirish_time.cpp.o)
 .debug_ranges  0x000018d8       0x10 C:\Users\Lenovo\AppData\Local\arduino\cores\6384da0a6fa2f70a2504de7ae90f6808\core.a(hooks.c.o)
 .debug_ranges  0x000018e8       0x18 C:\Users\Lenovo\AppData\Local\arduino\cores\6384da0a6fa2f70a2504de7ae90f6808\core.a(dma.c.o)
 .debug_ranges  0x00001900       0x10 C:\Users\Lenovo\AppData\Local\arduino\cores\6384da0a6fa2f70a2504de7ae90f6808\core.a(gpio.c.o)
 .debug_ranges  0x00001910      0x340 C:\Users\Lenovo\AppData\Local\arduino\cores\6384da0a6fa2f70a2504de7ae90f6808\core.a(i2c.c.o)

.comment        0x00000000       0x70
 .comment       0x00000000       0x70 C:\Users\Lenovo\AppData\Local\arduino\sketches\0A1F667BE7A1596EA767C94737D7EA1C\sketch\Lavadora.ino.cpp.o
                                 0x71 (size before relaxing)
 .comment       0x00000000       0x71 C:\Users\Lenovo\AppData\Local\arduino\sketches\0A1F667BE7A1596EA767C94737D7EA1C\sketch\SevSeg.cpp.o
 .comment       0x00000000       0x71 C:\Users\Lenovo\AppData\Local\arduino\sketches\0A1F667BE7A1596EA767C94737D7EA1C\core\board.cpp.o
 .comment       0x00000000       0x71 C:\Users\Lenovo\AppData\Local\arduino\sketches\0A1F667BE7A1596EA767C94737D7EA1C\core\wirish\boards.cpp.o
 .comment       0x00000000       0x71 C:\Users\Lenovo\AppData\Local\arduino\sketches\0A1F667BE7A1596EA767C94737D7EA1C\core\wirish\boards_setup.cpp.o
 .comment       0x00000000       0x71 C:\Users\Lenovo\AppData\Local\arduino\sketches\0A1F667BE7A1596EA767C94737D7EA1C\core\wirish\start_c.c.o
 .comment       0x00000000       0x71 C:\Users\Lenovo\AppData\Local\arduino\sketches\0A1F667BE7A1596EA767C94737D7EA1C\core\wirish\syscalls.c.o
 .comment       0x00000000       0x71 C:\Users\Lenovo\AppData\Local\arduino\cores\6384da0a6fa2f70a2504de7ae90f6808\core.a(HardwareSerial.cpp.o)
 .comment       0x00000000       0x71 C:\Users\Lenovo\AppData\Local\arduino\cores\6384da0a6fa2f70a2504de7ae90f6808\core.a(Print.cpp.o)
 .comment       0x00000000       0x71 C:\Users\Lenovo\AppData\Local\arduino\cores\6384da0a6fa2f70a2504de7ae90f6808\core.a(cxxabi-compat.cpp.o)
 .comment       0x00000000       0x71 C:\Users\Lenovo\AppData\Local\arduino\cores\6384da0a6fa2f70a2504de7ae90f6808\core.a(adc.c.o)
 .comment       0x00000000       0x71 C:\Users\Lenovo\AppData\Local\arduino\cores\6384da0a6fa2f70a2504de7ae90f6808\core.a(adc_f1.c.o)
 .comment       0x00000000       0x71 C:\Users\Lenovo\AppData\Local\arduino\cores\6384da0a6fa2f70a2504de7ae90f6808\core.a(dma_f1.c.o)
 .comment       0x00000000       0x71 C:\Users\Lenovo\AppData\Local\arduino\cores\6384da0a6fa2f70a2504de7ae90f6808\core.a(exti.c.o)
 .comment       0x00000000       0x71 C:\Users\Lenovo\AppData\Local\arduino\cores\6384da0a6fa2f70a2504de7ae90f6808\core.a(exti_f1.c.o)
 .comment       0x00000000       0x71 C:\Users\Lenovo\AppData\Local\arduino\cores\6384da0a6fa2f70a2504de7ae90f6808\core.a(flash.c.o)
 .comment       0x00000000       0x71 C:\Users\Lenovo\AppData\Local\arduino\cores\6384da0a6fa2f70a2504de7ae90f6808\core.a(gpio_f1.c.o)
 .comment       0x00000000       0x71 C:\Users\Lenovo\AppData\Local\arduino\cores\6384da0a6fa2f70a2504de7ae90f6808\core.a(i2c_f1.c.o)
 .comment       0x00000000       0x71 C:\Users\Lenovo\AppData\Local\arduino\cores\6384da0a6fa2f70a2504de7ae90f6808\core.a(nvic.c.o)
 .comment       0x00000000       0x71 C:\Users\Lenovo\AppData\Local\arduino\cores\6384da0a6fa2f70a2504de7ae90f6808\core.a(rcc.c.o)
 .comment       0x00000000       0x71 C:\Users\Lenovo\AppData\Local\arduino\cores\6384da0a6fa2f70a2504de7ae90f6808\core.a(rcc_f1.c.o)
 .comment       0x00000000       0x71 C:\Users\Lenovo\AppData\Local\arduino\cores\6384da0a6fa2f70a2504de7ae90f6808\core.a(systick.c.o)
 .comment       0x00000000       0x71 C:\Users\Lenovo\AppData\Local\arduino\cores\6384da0a6fa2f70a2504de7ae90f6808\core.a(timer.c.o)
 .comment       0x00000000       0x71 C:\Users\Lenovo\AppData\Local\arduino\cores\6384da0a6fa2f70a2504de7ae90f6808\core.a(usart.c.o)
 .comment       0x00000000       0x71 C:\Users\Lenovo\AppData\Local\arduino\cores\6384da0a6fa2f70a2504de7ae90f6808\core.a(usart_f1.c.o)
 .comment       0x00000000       0x71 C:\Users\Lenovo\AppData\Local\arduino\cores\6384da0a6fa2f70a2504de7ae90f6808\core.a(usart_private.c.o)
 .comment       0x00000000       0x71 C:\Users\Lenovo\AppData\Local\arduino\cores\6384da0a6fa2f70a2504de7ae90f6808\core.a(usb.c.o)
 .comment       0x00000000       0x71 C:\Users\Lenovo\AppData\Local\arduino\cores\6384da0a6fa2f70a2504de7ae90f6808\core.a(usb_cdcacm.c.o)
 .comment       0x00000000       0x71 C:\Users\Lenovo\AppData\Local\arduino\cores\6384da0a6fa2f70a2504de7ae90f6808\core.a(usb_reg_map.c.o)
 .comment       0x00000000       0x71 C:\Users\Lenovo\AppData\Local\arduino\cores\6384da0a6fa2f70a2504de7ae90f6808\core.a(usb_core.c.o)
 .comment       0x00000000       0x71 C:\Users\Lenovo\AppData\Local\arduino\cores\6384da0a6fa2f70a2504de7ae90f6808\core.a(usb_init.c.o)
 .comment       0x00000000       0x71 C:\Users\Lenovo\AppData\Local\arduino\cores\6384da0a6fa2f70a2504de7ae90f6808\core.a(usb_mem.c.o)
 .comment       0x00000000       0x71 C:\Users\Lenovo\AppData\Local\arduino\cores\6384da0a6fa2f70a2504de7ae90f6808\core.a(usb_regs.c.o)
 .comment       0x00000000       0x71 C:\Users\Lenovo\AppData\Local\arduino\cores\6384da0a6fa2f70a2504de7ae90f6808\core.a(util.c.o)
 .comment       0x00000000       0x71 C:\Users\Lenovo\AppData\Local\arduino\cores\6384da0a6fa2f70a2504de7ae90f6808\core.a(main.cpp.o)
 .comment       0x00000000       0x71 C:\Users\Lenovo\AppData\Local\arduino\cores\6384da0a6fa2f70a2504de7ae90f6808\core.a(wirish_digital_f1.cpp.o)
 .comment       0x00000000       0x71 C:\Users\Lenovo\AppData\Local\arduino\cores\6384da0a6fa2f70a2504de7ae90f6808\core.a(wirish_digital.cpp.o)
 .comment       0x00000000       0x71 C:\Users\Lenovo\AppData\Local\arduino\cores\6384da0a6fa2f70a2504de7ae90f6808\core.a(wirish_time.cpp.o)
 .comment       0x00000000       0x71 C:\Users\Lenovo\AppData\Local\arduino\cores\6384da0a6fa2f70a2504de7ae90f6808\core.a(hooks.c.o)
 .comment       0x00000000       0x71 C:\Users\Lenovo\AppData\Local\arduino\cores\6384da0a6fa2f70a2504de7ae90f6808\core.a(dma.c.o)
 .comment       0x00000000       0x71 C:\Users\Lenovo\AppData\Local\arduino\cores\6384da0a6fa2f70a2504de7ae90f6808\core.a(gpio.c.o)
 .comment       0x00000000       0x71 C:\Users\Lenovo\AppData\Local\arduino\cores\6384da0a6fa2f70a2504de7ae90f6808\core.a(i2c.c.o)

Cross Reference Table

Symbol                                            File
ADC1                                              C:\Users\Lenovo\AppData\Local\arduino\cores\6384da0a6fa2f70a2504de7ae90f6808\core.a(adc_f1.c.o)
ADC2                                              C:\Users\Lenovo\AppData\Local\arduino\cores\6384da0a6fa2f70a2504de7ae90f6808\core.a(adc_f1.c.o)
ByteSwap                                          C:\Users\Lenovo\AppData\Local\arduino\cores\6384da0a6fa2f70a2504de7ae90f6808\core.a(usb_regs.c.o)
ClearDTOG_RX                                      C:\Users\Lenovo\AppData\Local\arduino\cores\6384da0a6fa2f70a2504de7ae90f6808\core.a(usb_regs.c.o)
                                                  C:\Users\Lenovo\AppData\Local\arduino\cores\6384da0a6fa2f70a2504de7ae90f6808\core.a(usb_core.c.o)
ClearDTOG_TX                                      C:\Users\Lenovo\AppData\Local\arduino\cores\6384da0a6fa2f70a2504de7ae90f6808\core.a(usb_regs.c.o)
                                                  C:\Users\Lenovo\AppData\Local\arduino\cores\6384da0a6fa2f70a2504de7ae90f6808\core.a(usb_core.c.o)
ClearEPDoubleBuff                                 C:\Users\Lenovo\AppData\Local\arduino\cores\6384da0a6fa2f70a2504de7ae90f6808\core.a(usb_regs.c.o)
ClearEP_CTR_RX                                    C:\Users\Lenovo\AppData\Local\arduino\cores\6384da0a6fa2f70a2504de7ae90f6808\core.a(usb_regs.c.o)
ClearEP_CTR_TX                                    C:\Users\Lenovo\AppData\Local\arduino\cores\6384da0a6fa2f70a2504de7ae90f6808\core.a(usb_regs.c.o)
ClearEP_KIND                                      C:\Users\Lenovo\AppData\Local\arduino\cores\6384da0a6fa2f70a2504de7ae90f6808\core.a(usb_regs.c.o)
Clear_Status_Out                                  C:\Users\Lenovo\AppData\Local\arduino\cores\6384da0a6fa2f70a2504de7ae90f6808\core.a(usb_regs.c.o)
DMA1                                              C:\Users\Lenovo\AppData\Local\arduino\cores\6384da0a6fa2f70a2504de7ae90f6808\core.a(dma_f1.c.o)
Data_Mul_MaxPacketSize                            C:\Users\Lenovo\AppData\Local\arduino\cores\6384da0a6fa2f70a2504de7ae90f6808\core.a(usb_core.c.o)
Device_Info                                       C:\Users\Lenovo\AppData\Local\arduino\cores\6384da0a6fa2f70a2504de7ae90f6808\core.a(usb_init.c.o)
                                                  C:\Users\Lenovo\AppData\Local\arduino\cores\6384da0a6fa2f70a2504de7ae90f6808\core.a(usb.c.o)
Device_Property                                   C:\Users\Lenovo\AppData\Local\arduino\cores\6384da0a6fa2f70a2504de7ae90f6808\core.a(usb_cdcacm.c.o)
                                                  C:\Users\Lenovo\AppData\Local\arduino\cores\6384da0a6fa2f70a2504de7ae90f6808\core.a(usb_init.c.o)
                                                  C:\Users\Lenovo\AppData\Local\arduino\cores\6384da0a6fa2f70a2504de7ae90f6808\core.a(usb_core.c.o)
                                                  C:\Users\Lenovo\AppData\Local\arduino\cores\6384da0a6fa2f70a2504de7ae90f6808\core.a(usb.c.o)
Device_Table                                      C:\Users\Lenovo\AppData\Local\arduino\cores\6384da0a6fa2f70a2504de7ae90f6808\core.a(usb_cdcacm.c.o)
                                                  C:\Users\Lenovo\AppData\Local\arduino\cores\6384da0a6fa2f70a2504de7ae90f6808\core.a(usb_core.c.o)
EPindex                                           C:\Users\Lenovo\AppData\Local\arduino\cores\6384da0a6fa2f70a2504de7ae90f6808\core.a(usb_init.c.o)
FreeUserBuffer                                    C:\Users\Lenovo\AppData\Local\arduino\cores\6384da0a6fa2f70a2504de7ae90f6808\core.a(usb_regs.c.o)
GPIOA                                             C:\Users\Lenovo\AppData\Local\arduino\cores\6384da0a6fa2f70a2504de7ae90f6808\core.a(gpio_f1.c.o)
GPIOB                                             C:\Users\Lenovo\AppData\Local\arduino\cores\6384da0a6fa2f70a2504de7ae90f6808\core.a(gpio_f1.c.o)
                                                  C:\Users\Lenovo\AppData\Local\arduino\cores\6384da0a6fa2f70a2504de7ae90f6808\core.a(util.c.o)
GPIOC                                             C:\Users\Lenovo\AppData\Local\arduino\cores\6384da0a6fa2f70a2504de7ae90f6808\core.a(gpio_f1.c.o)
GPIOD                                             C:\Users\Lenovo\AppData\Local\arduino\cores\6384da0a6fa2f70a2504de7ae90f6808\core.a(gpio_f1.c.o)
GetBTABLE                                         C:\Users\Lenovo\AppData\Local\arduino\cores\6384da0a6fa2f70a2504de7ae90f6808\core.a(usb_regs.c.o)
GetCNTR                                           C:\Users\Lenovo\AppData\Local\arduino\cores\6384da0a6fa2f70a2504de7ae90f6808\core.a(usb_regs.c.o)
GetDADDR                                          C:\Users\Lenovo\AppData\Local\arduino\cores\6384da0a6fa2f70a2504de7ae90f6808\core.a(usb_regs.c.o)
GetENDPOINT                                       C:\Users\Lenovo\AppData\Local\arduino\cores\6384da0a6fa2f70a2504de7ae90f6808\core.a(usb_regs.c.o)
GetEPAddress                                      C:\Users\Lenovo\AppData\Local\arduino\cores\6384da0a6fa2f70a2504de7ae90f6808\core.a(usb_regs.c.o)
GetEPDblBuf0Addr                                  C:\Users\Lenovo\AppData\Local\arduino\cores\6384da0a6fa2f70a2504de7ae90f6808\core.a(usb_regs.c.o)
GetEPDblBuf0Count                                 C:\Users\Lenovo\AppData\Local\arduino\cores\6384da0a6fa2f70a2504de7ae90f6808\core.a(usb_regs.c.o)
GetEPDblBuf1Addr                                  C:\Users\Lenovo\AppData\Local\arduino\cores\6384da0a6fa2f70a2504de7ae90f6808\core.a(usb_regs.c.o)
GetEPDblBuf1Count                                 C:\Users\Lenovo\AppData\Local\arduino\cores\6384da0a6fa2f70a2504de7ae90f6808\core.a(usb_regs.c.o)
GetEPDblBufDir                                    C:\Users\Lenovo\AppData\Local\arduino\cores\6384da0a6fa2f70a2504de7ae90f6808\core.a(usb_regs.c.o)
GetEPRxAddr                                       C:\Users\Lenovo\AppData\Local\arduino\cores\6384da0a6fa2f70a2504de7ae90f6808\core.a(usb_regs.c.o)
                                                  C:\Users\Lenovo\AppData\Local\arduino\cores\6384da0a6fa2f70a2504de7ae90f6808\core.a(usb_core.c.o)
GetEPRxCount                                      C:\Users\Lenovo\AppData\Local\arduino\cores\6384da0a6fa2f70a2504de7ae90f6808\core.a(usb_regs.c.o)
GetEPRxStatus                                     C:\Users\Lenovo\AppData\Local\arduino\cores\6384da0a6fa2f70a2504de7ae90f6808\core.a(usb_regs.c.o)
GetEPTxAddr                                       C:\Users\Lenovo\AppData\Local\arduino\cores\6384da0a6fa2f70a2504de7ae90f6808\core.a(usb_regs.c.o)
                                                  C:\Users\Lenovo\AppData\Local\arduino\cores\6384da0a6fa2f70a2504de7ae90f6808\core.a(usb_core.c.o)
GetEPTxCount                                      C:\Users\Lenovo\AppData\Local\arduino\cores\6384da0a6fa2f70a2504de7ae90f6808\core.a(usb_regs.c.o)
GetEPTxStatus                                     C:\Users\Lenovo\AppData\Local\arduino\cores\6384da0a6fa2f70a2504de7ae90f6808\core.a(usb_regs.c.o)
GetEPType                                         C:\Users\Lenovo\AppData\Local\arduino\cores\6384da0a6fa2f70a2504de7ae90f6808\core.a(usb_regs.c.o)
GetFNR                                            C:\Users\Lenovo\AppData\Local\arduino\cores\6384da0a6fa2f70a2504de7ae90f6808\core.a(usb_regs.c.o)
GetISTR                                           C:\Users\Lenovo\AppData\Local\arduino\cores\6384da0a6fa2f70a2504de7ae90f6808\core.a(usb_regs.c.o)
GetRxStallStatus                                  C:\Users\Lenovo\AppData\Local\arduino\cores\6384da0a6fa2f70a2504de7ae90f6808\core.a(usb_regs.c.o)
GetTxStallStatus                                  C:\Users\Lenovo\AppData\Local\arduino\cores\6384da0a6fa2f70a2504de7ae90f6808\core.a(usb_regs.c.o)
HardwareSerial::HardwareSerial(usart_dev*, unsigned char, unsigned char) C:\Users\Lenovo\AppData\Local\arduino\cores\6384da0a6fa2f70a2504de7ae90f6808\core.a(HardwareSerial.cpp.o)
                                                  C:\Users\Lenovo\AppData\Local\arduino\sketches\0A1F667BE7A1596EA767C94737D7EA1C\core\board.cpp.o
HardwareSerial::HardwareSerial(usart_dev*, unsigned char, unsigned char) C:\Users\Lenovo\AppData\Local\arduino\cores\6384da0a6fa2f70a2504de7ae90f6808\core.a(HardwareSerial.cpp.o)
HardwareSerial::available()                       C:\Users\Lenovo\AppData\Local\arduino\cores\6384da0a6fa2f70a2504de7ae90f6808\core.a(HardwareSerial.cpp.o)
HardwareSerial::availableForWrite()               C:\Users\Lenovo\AppData\Local\arduino\cores\6384da0a6fa2f70a2504de7ae90f6808\core.a(HardwareSerial.cpp.o)
HardwareSerial::begin(unsigned long)              C:\Users\Lenovo\AppData\Local\arduino\cores\6384da0a6fa2f70a2504de7ae90f6808\core.a(HardwareSerial.cpp.o)
HardwareSerial::begin(unsigned long, unsigned char) C:\Users\Lenovo\AppData\Local\arduino\cores\6384da0a6fa2f70a2504de7ae90f6808\core.a(HardwareSerial.cpp.o)
HardwareSerial::end()                             C:\Users\Lenovo\AppData\Local\arduino\cores\6384da0a6fa2f70a2504de7ae90f6808\core.a(HardwareSerial.cpp.o)
HardwareSerial::flush()                           C:\Users\Lenovo\AppData\Local\arduino\cores\6384da0a6fa2f70a2504de7ae90f6808\core.a(HardwareSerial.cpp.o)
HardwareSerial::peek()                            C:\Users\Lenovo\AppData\Local\arduino\cores\6384da0a6fa2f70a2504de7ae90f6808\core.a(HardwareSerial.cpp.o)
HardwareSerial::read()                            C:\Users\Lenovo\AppData\Local\arduino\cores\6384da0a6fa2f70a2504de7ae90f6808\core.a(HardwareSerial.cpp.o)
HardwareSerial::write(unsigned char)              C:\Users\Lenovo\AppData\Local\arduino\cores\6384da0a6fa2f70a2504de7ae90f6808\core.a(HardwareSerial.cpp.o)
I2C1                                              C:\Users\Lenovo\AppData\Local\arduino\cores\6384da0a6fa2f70a2504de7ae90f6808\core.a(i2c_f1.c.o)
                                                  C:\Users\Lenovo\AppData\Local\arduino\cores\6384da0a6fa2f70a2504de7ae90f6808\core.a(i2c.c.o)
I2C2                                              C:\Users\Lenovo\AppData\Local\arduino\cores\6384da0a6fa2f70a2504de7ae90f6808\core.a(i2c_f1.c.o)
In0_Process                                       C:\Users\Lenovo\AppData\Local\arduino\cores\6384da0a6fa2f70a2504de7ae90f6808\core.a(usb_core.c.o)
                                                  C:\Users\Lenovo\AppData\Local\arduino\cores\6384da0a6fa2f70a2504de7ae90f6808\core.a(usb.c.o)
NOP_Process                                       C:\Users\Lenovo\AppData\Local\arduino\cores\6384da0a6fa2f70a2504de7ae90f6808\core.a(usb_core.c.o)
                                                  C:\Users\Lenovo\AppData\Local\arduino\cores\6384da0a6fa2f70a2504de7ae90f6808\core.a(usb_cdcacm.c.o)
Out0_Process                                      C:\Users\Lenovo\AppData\Local\arduino\cores\6384da0a6fa2f70a2504de7ae90f6808\core.a(usb_core.c.o)
                                                  C:\Users\Lenovo\AppData\Local\arduino\cores\6384da0a6fa2f70a2504de7ae90f6808\core.a(usb.c.o)
PIN_MAP                                           C:\Users\Lenovo\AppData\Local\arduino\sketches\0A1F667BE7A1596EA767C94737D7EA1C\core\board.cpp.o
                                                  C:\Users\Lenovo\AppData\Local\arduino\cores\6384da0a6fa2f70a2504de7ae90f6808\core.a(wirish_digital.cpp.o)
                                                  C:\Users\Lenovo\AppData\Local\arduino\cores\6384da0a6fa2f70a2504de7ae90f6808\core.a(wirish_digital_f1.cpp.o)
                                                  C:\Users\Lenovo\AppData\Local\arduino\cores\6384da0a6fa2f70a2504de7ae90f6808\core.a(HardwareSerial.cpp.o)
PMAToUserBufferCopy                               C:\Users\Lenovo\AppData\Local\arduino\cores\6384da0a6fa2f70a2504de7ae90f6808\core.a(usb_mem.c.o)
                                                  C:\Users\Lenovo\AppData\Local\arduino\cores\6384da0a6fa2f70a2504de7ae90f6808\core.a(usb_core.c.o)
Post0_Process                                     C:\Users\Lenovo\AppData\Local\arduino\cores\6384da0a6fa2f70a2504de7ae90f6808\core.a(usb_core.c.o)
Print::print(Printable const&)                    C:\Users\Lenovo\AppData\Local\arduino\cores\6384da0a6fa2f70a2504de7ae90f6808\core.a(Print.cpp.o)
Print::print(String const&)                       C:\Users\Lenovo\AppData\Local\arduino\cores\6384da0a6fa2f70a2504de7ae90f6808\core.a(Print.cpp.o)
Print::print(__FlashStringHelper const*)          C:\Users\Lenovo\AppData\Local\arduino\cores\6384da0a6fa2f70a2504de7ae90f6808\core.a(Print.cpp.o)
Print::print(char const*)                         C:\Users\Lenovo\AppData\Local\arduino\cores\6384da0a6fa2f70a2504de7ae90f6808\core.a(Print.cpp.o)
Print::print(char)                                C:\Users\Lenovo\AppData\Local\arduino\cores\6384da0a6fa2f70a2504de7ae90f6808\core.a(Print.cpp.o)
Print::print(double, int)                         C:\Users\Lenovo\AppData\Local\arduino\cores\6384da0a6fa2f70a2504de7ae90f6808\core.a(Print.cpp.o)
Print::print(int, int)                            C:\Users\Lenovo\AppData\Local\arduino\cores\6384da0a6fa2f70a2504de7ae90f6808\core.a(Print.cpp.o)
Print::print(long long, int)                      C:\Users\Lenovo\AppData\Local\arduino\cores\6384da0a6fa2f70a2504de7ae90f6808\core.a(Print.cpp.o)
Print::print(long, int)                           C:\Users\Lenovo\AppData\Local\arduino\cores\6384da0a6fa2f70a2504de7ae90f6808\core.a(Print.cpp.o)
Print::print(unsigned char, int)                  C:\Users\Lenovo\AppData\Local\arduino\cores\6384da0a6fa2f70a2504de7ae90f6808\core.a(Print.cpp.o)
Print::print(unsigned int, int)                   C:\Users\Lenovo\AppData\Local\arduino\cores\6384da0a6fa2f70a2504de7ae90f6808\core.a(Print.cpp.o)
Print::print(unsigned long long, int)             C:\Users\Lenovo\AppData\Local\arduino\cores\6384da0a6fa2f70a2504de7ae90f6808\core.a(Print.cpp.o)
Print::print(unsigned long, int)                  C:\Users\Lenovo\AppData\Local\arduino\cores\6384da0a6fa2f70a2504de7ae90f6808\core.a(Print.cpp.o)
Print::printFloat(double, unsigned char)          C:\Users\Lenovo\AppData\Local\arduino\cores\6384da0a6fa2f70a2504de7ae90f6808\core.a(Print.cpp.o)
Print::printNumber(unsigned long long, unsigned char) C:\Users\Lenovo\AppData\Local\arduino\cores\6384da0a6fa2f70a2504de7ae90f6808\core.a(Print.cpp.o)
Print::println()                                  C:\Users\Lenovo\AppData\Local\arduino\cores\6384da0a6fa2f70a2504de7ae90f6808\core.a(Print.cpp.o)
Print::println(Printable const&)                  C:\Users\Lenovo\AppData\Local\arduino\cores\6384da0a6fa2f70a2504de7ae90f6808\core.a(Print.cpp.o)
Print::println(String const&)                     C:\Users\Lenovo\AppData\Local\arduino\cores\6384da0a6fa2f70a2504de7ae90f6808\core.a(Print.cpp.o)
Print::println(__FlashStringHelper const*)        C:\Users\Lenovo\AppData\Local\arduino\cores\6384da0a6fa2f70a2504de7ae90f6808\core.a(Print.cpp.o)
Print::println(char const*)                       C:\Users\Lenovo\AppData\Local\arduino\cores\6384da0a6fa2f70a2504de7ae90f6808\core.a(Print.cpp.o)
Print::println(char)                              C:\Users\Lenovo\AppData\Local\arduino\cores\6384da0a6fa2f70a2504de7ae90f6808\core.a(Print.cpp.o)
Print::println(double, int)                       C:\Users\Lenovo\AppData\Local\arduino\cores\6384da0a6fa2f70a2504de7ae90f6808\core.a(Print.cpp.o)
Print::println(int, int)                          C:\Users\Lenovo\AppData\Local\arduino\cores\6384da0a6fa2f70a2504de7ae90f6808\core.a(Print.cpp.o)
Print::println(long long, int)                    C:\Users\Lenovo\AppData\Local\arduino\cores\6384da0a6fa2f70a2504de7ae90f6808\core.a(Print.cpp.o)
Print::println(long, int)                         C:\Users\Lenovo\AppData\Local\arduino\cores\6384da0a6fa2f70a2504de7ae90f6808\core.a(Print.cpp.o)
Print::println(unsigned char, int)                C:\Users\Lenovo\AppData\Local\arduino\cores\6384da0a6fa2f70a2504de7ae90f6808\core.a(Print.cpp.o)
Print::println(unsigned int, int)                 C:\Users\Lenovo\AppData\Local\arduino\cores\6384da0a6fa2f70a2504de7ae90f6808\core.a(Print.cpp.o)
Print::println(unsigned long long, int)           C:\Users\Lenovo\AppData\Local\arduino\cores\6384da0a6fa2f70a2504de7ae90f6808\core.a(Print.cpp.o)
Print::println(unsigned long, int)                C:\Users\Lenovo\AppData\Local\arduino\cores\6384da0a6fa2f70a2504de7ae90f6808\core.a(Print.cpp.o)
Print::write(char const*)                         C:\Users\Lenovo\AppData\Local\arduino\cores\6384da0a6fa2f70a2504de7ae90f6808\core.a(Print.cpp.o)
                                                  C:\Users\Lenovo\AppData\Local\arduino\cores\6384da0a6fa2f70a2504de7ae90f6808\core.a(HardwareSerial.cpp.o)
Print::write(void const*, unsigned long)          C:\Users\Lenovo\AppData\Local\arduino\cores\6384da0a6fa2f70a2504de7ae90f6808\core.a(Print.cpp.o)
                                                  C:\Users\Lenovo\AppData\Local\arduino\cores\6384da0a6fa2f70a2504de7ae90f6808\core.a(HardwareSerial.cpp.o)
ResumeS                                           C:\Users\Lenovo\AppData\Local\arduino\cores\6384da0a6fa2f70a2504de7ae90f6808\core.a(usb.c.o)
SaveRState                                        C:\Users\Lenovo\AppData\Local\arduino\cores\6384da0a6fa2f70a2504de7ae90f6808\core.a(usb_core.c.o)
                                                  C:\Users\Lenovo\AppData\Local\arduino\cores\6384da0a6fa2f70a2504de7ae90f6808\core.a(usb.c.o)
SaveState                                         C:\Users\Lenovo\AppData\Local\arduino\cores\6384da0a6fa2f70a2504de7ae90f6808\core.a(usb_init.c.o)
SaveTState                                        C:\Users\Lenovo\AppData\Local\arduino\cores\6384da0a6fa2f70a2504de7ae90f6808\core.a(usb_core.c.o)
                                                  C:\Users\Lenovo\AppData\Local\arduino\cores\6384da0a6fa2f70a2504de7ae90f6808\core.a(usb.c.o)
Serial1                                           C:\Users\Lenovo\AppData\Local\arduino\sketches\0A1F667BE7A1596EA767C94737D7EA1C\core\board.cpp.o
Serial2                                           C:\Users\Lenovo\AppData\Local\arduino\sketches\0A1F667BE7A1596EA767C94737D7EA1C\core\board.cpp.o
Serial3                                           C:\Users\Lenovo\AppData\Local\arduino\sketches\0A1F667BE7A1596EA767C94737D7EA1C\core\board.cpp.o
SetBTABLE                                         C:\Users\Lenovo\AppData\Local\arduino\cores\6384da0a6fa2f70a2504de7ae90f6808\core.a(usb_regs.c.o)
SetCNTR                                           C:\Users\Lenovo\AppData\Local\arduino\cores\6384da0a6fa2f70a2504de7ae90f6808\core.a(usb_regs.c.o)
SetDADDR                                          C:\Users\Lenovo\AppData\Local\arduino\cores\6384da0a6fa2f70a2504de7ae90f6808\core.a(usb_regs.c.o)
SetDeviceAddress                                  C:\Users\Lenovo\AppData\Local\arduino\cores\6384da0a6fa2f70a2504de7ae90f6808\core.a(usb_core.c.o)
                                                  C:\Users\Lenovo\AppData\Local\arduino\cores\6384da0a6fa2f70a2504de7ae90f6808\core.a(usb_cdcacm.c.o)
SetDouBleBuffEPStall                              C:\Users\Lenovo\AppData\Local\arduino\cores\6384da0a6fa2f70a2504de7ae90f6808\core.a(usb_regs.c.o)
SetENDPOINT                                       C:\Users\Lenovo\AppData\Local\arduino\cores\6384da0a6fa2f70a2504de7ae90f6808\core.a(usb_regs.c.o)
SetEPAddress                                      C:\Users\Lenovo\AppData\Local\arduino\cores\6384da0a6fa2f70a2504de7ae90f6808\core.a(usb_regs.c.o)
SetEPCountRxReg                                   C:\Users\Lenovo\AppData\Local\arduino\cores\6384da0a6fa2f70a2504de7ae90f6808\core.a(usb_regs.c.o)
SetEPDblBuf0Addr                                  C:\Users\Lenovo\AppData\Local\arduino\cores\6384da0a6fa2f70a2504de7ae90f6808\core.a(usb_regs.c.o)
SetEPDblBuf0Count                                 C:\Users\Lenovo\AppData\Local\arduino\cores\6384da0a6fa2f70a2504de7ae90f6808\core.a(usb_regs.c.o)
SetEPDblBuf1Addr                                  C:\Users\Lenovo\AppData\Local\arduino\cores\6384da0a6fa2f70a2504de7ae90f6808\core.a(usb_regs.c.o)
SetEPDblBuf1Count                                 C:\Users\Lenovo\AppData\Local\arduino\cores\6384da0a6fa2f70a2504de7ae90f6808\core.a(usb_regs.c.o)
SetEPDblBuffAddr                                  C:\Users\Lenovo\AppData\Local\arduino\cores\6384da0a6fa2f70a2504de7ae90f6808\core.a(usb_regs.c.o)
SetEPDblBuffCount                                 C:\Users\Lenovo\AppData\Local\arduino\cores\6384da0a6fa2f70a2504de7ae90f6808\core.a(usb_regs.c.o)
SetEPDoubleBuff                                   C:\Users\Lenovo\AppData\Local\arduino\cores\6384da0a6fa2f70a2504de7ae90f6808\core.a(usb_regs.c.o)
SetEPRxAddr                                       C:\Users\Lenovo\AppData\Local\arduino\cores\6384da0a6fa2f70a2504de7ae90f6808\core.a(usb_regs.c.o)
SetEPRxCount                                      C:\Users\Lenovo\AppData\Local\arduino\cores\6384da0a6fa2f70a2504de7ae90f6808\core.a(usb_regs.c.o)
                                                  C:\Users\Lenovo\AppData\Local\arduino\cores\6384da0a6fa2f70a2504de7ae90f6808\core.a(usb_core.c.o)
SetEPRxStatus                                     C:\Users\Lenovo\AppData\Local\arduino\cores\6384da0a6fa2f70a2504de7ae90f6808\core.a(usb_regs.c.o)
SetEPRxValid                                      C:\Users\Lenovo\AppData\Local\arduino\cores\6384da0a6fa2f70a2504de7ae90f6808\core.a(usb_regs.c.o)
SetEPTxAddr                                       C:\Users\Lenovo\AppData\Local\arduino\cores\6384da0a6fa2f70a2504de7ae90f6808\core.a(usb_regs.c.o)
SetEPTxCount                                      C:\Users\Lenovo\AppData\Local\arduino\cores\6384da0a6fa2f70a2504de7ae90f6808\core.a(usb_regs.c.o)
                                                  C:\Users\Lenovo\AppData\Local\arduino\cores\6384da0a6fa2f70a2504de7ae90f6808\core.a(usb_core.c.o)
SetEPTxStatus                                     C:\Users\Lenovo\AppData\Local\arduino\cores\6384da0a6fa2f70a2504de7ae90f6808\core.a(usb_regs.c.o)
                                                  C:\Users\Lenovo\AppData\Local\arduino\cores\6384da0a6fa2f70a2504de7ae90f6808\core.a(usb_core.c.o)
SetEPTxValid                                      C:\Users\Lenovo\AppData\Local\arduino\cores\6384da0a6fa2f70a2504de7ae90f6808\core.a(usb_regs.c.o)
SetEPType                                         C:\Users\Lenovo\AppData\Local\arduino\cores\6384da0a6fa2f70a2504de7ae90f6808\core.a(usb_regs.c.o)
SetEP_KIND                                        C:\Users\Lenovo\AppData\Local\arduino\cores\6384da0a6fa2f70a2504de7ae90f6808\core.a(usb_regs.c.o)
SetISTR                                           C:\Users\Lenovo\AppData\Local\arduino\cores\6384da0a6fa2f70a2504de7ae90f6808\core.a(usb_regs.c.o)
Set_Status_Out                                    C:\Users\Lenovo\AppData\Local\arduino\cores\6384da0a6fa2f70a2504de7ae90f6808\core.a(usb_regs.c.o)
Setup0_Process                                    C:\Users\Lenovo\AppData\Local\arduino\cores\6384da0a6fa2f70a2504de7ae90f6808\core.a(usb_core.c.o)
                                                  C:\Users\Lenovo\AppData\Local\arduino\cores\6384da0a6fa2f70a2504de7ae90f6808\core.a(usb.c.o)
SevSeg::SevSeg()                                  C:\Users\Lenovo\AppData\Local\arduino\sketches\0A1F667BE7A1596EA767C94737D7EA1C\sketch\SevSeg.cpp.o
SevSeg::SevSeg()                                  C:\Users\Lenovo\AppData\Local\arduino\sketches\0A1F667BE7A1596EA767C94737D7EA1C\sketch\SevSeg.cpp.o
                                                  C:\Users\Lenovo\AppData\Local\arduino\sketches\0A1F667BE7A1596EA767C94737D7EA1C\sketch\Lavadora.ino.cpp.o
SevSeg::begin(unsigned char, unsigned char, unsigned char const*, unsigned char const*, bool, bool, bool, bool) C:\Users\Lenovo\AppData\Local\arduino\sketches\0A1F667BE7A1596EA767C94737D7EA1C\sketch\SevSeg.cpp.o
                                                  C:\Users\Lenovo\AppData\Local\arduino\sketches\0A1F667BE7A1596EA767C94737D7EA1C\sketch\Lavadora.ino.cpp.o
SevSeg::blank()                                   C:\Users\Lenovo\AppData\Local\arduino\sketches\0A1F667BE7A1596EA767C94737D7EA1C\sketch\SevSeg.cpp.o
                                                  C:\Users\Lenovo\AppData\Local\arduino\sketches\0A1F667BE7A1596EA767C94737D7EA1C\sketch\Lavadora.ino.cpp.o
SevSeg::digitOff(unsigned char)                   C:\Users\Lenovo\AppData\Local\arduino\sketches\0A1F667BE7A1596EA767C94737D7EA1C\sketch\SevSeg.cpp.o
SevSeg::digitOn(unsigned char)                    C:\Users\Lenovo\AppData\Local\arduino\sketches\0A1F667BE7A1596EA767C94737D7EA1C\sketch\SevSeg.cpp.o
SevSeg::findDigits(long, signed char, bool, unsigned char*) C:\Users\Lenovo\AppData\Local\arduino\sketches\0A1F667BE7A1596EA767C94737D7EA1C\sketch\SevSeg.cpp.o
SevSeg::getSegments(unsigned char*)               C:\Users\Lenovo\AppData\Local\arduino\sketches\0A1F667BE7A1596EA767C94737D7EA1C\sketch\SevSeg.cpp.o
SevSeg::refreshDisplay()                          C:\Users\Lenovo\AppData\Local\arduino\sketches\0A1F667BE7A1596EA767C94737D7EA1C\sketch\SevSeg.cpp.o
                                                  C:\Users\Lenovo\AppData\Local\arduino\sketches\0A1F667BE7A1596EA767C94737D7EA1C\sketch\Lavadora.ino.cpp.o
SevSeg::segmentOff(unsigned char)                 C:\Users\Lenovo\AppData\Local\arduino\sketches\0A1F667BE7A1596EA767C94737D7EA1C\sketch\SevSeg.cpp.o
SevSeg::segmentOn(unsigned char)                  C:\Users\Lenovo\AppData\Local\arduino\sketches\0A1F667BE7A1596EA767C94737D7EA1C\sketch\SevSeg.cpp.o
SevSeg::setBrightness(short)                      C:\Users\Lenovo\AppData\Local\arduino\sketches\0A1F667BE7A1596EA767C94737D7EA1C\sketch\SevSeg.cpp.o
                                                  C:\Users\Lenovo\AppData\Local\arduino\sketches\0A1F667BE7A1596EA767C94737D7EA1C\sketch\Lavadora.ino.cpp.o
SevSeg::setChars(char const*)                     C:\Users\Lenovo\AppData\Local\arduino\sketches\0A1F667BE7A1596EA767C94737D7EA1C\sketch\SevSeg.cpp.o
                                                  C:\Users\Lenovo\AppData\Local\arduino\sketches\0A1F667BE7A1596EA767C94737D7EA1C\sketch\Lavadora.ino.cpp.o
SevSeg::setDigitCodes(unsigned char const*, signed char) C:\Users\Lenovo\AppData\Local\arduino\sketches\0A1F667BE7A1596EA767C94737D7EA1C\sketch\SevSeg.cpp.o
SevSeg::setNewNum(long, signed char, bool)        C:\Users\Lenovo\AppData\Local\arduino\sketches\0A1F667BE7A1596EA767C94737D7EA1C\sketch\SevSeg.cpp.o
SevSeg::setNumber(long, signed char, bool)        C:\Users\Lenovo\AppData\Local\arduino\sketches\0A1F667BE7A1596EA767C94737D7EA1C\sketch\SevSeg.cpp.o
                                                  C:\Users\Lenovo\AppData\Local\arduino\sketches\0A1F667BE7A1596EA767C94737D7EA1C\sketch\Lavadora.ino.cpp.o
SevSeg::setNumberF(float, signed char, bool)      C:\Users\Lenovo\AppData\Local\arduino\sketches\0A1F667BE7A1596EA767C94737D7EA1C\sketch\SevSeg.cpp.o
SevSeg::setSegments(unsigned char const*)         C:\Users\Lenovo\AppData\Local\arduino\sketches\0A1F667BE7A1596EA767C94737D7EA1C\sketch\SevSeg.cpp.o
SevSeg::setSegmentsDigit(unsigned char, unsigned char) C:\Users\Lenovo\AppData\Local\arduino\sketches\0A1F667BE7A1596EA767C94737D7EA1C\sketch\SevSeg.cpp.o
Standard_ClearFeature                             C:\Users\Lenovo\AppData\Local\arduino\cores\6384da0a6fa2f70a2504de7ae90f6808\core.a(usb_core.c.o)
Standard_GetConfiguration                         C:\Users\Lenovo\AppData\Local\arduino\cores\6384da0a6fa2f70a2504de7ae90f6808\core.a(usb_core.c.o)
Standard_GetDescriptorData                        C:\Users\Lenovo\AppData\Local\arduino\cores\6384da0a6fa2f70a2504de7ae90f6808\core.a(usb_core.c.o)
                                                  C:\Users\Lenovo\AppData\Local\arduino\cores\6384da0a6fa2f70a2504de7ae90f6808\core.a(usb_cdcacm.c.o)
Standard_GetInterface                             C:\Users\Lenovo\AppData\Local\arduino\cores\6384da0a6fa2f70a2504de7ae90f6808\core.a(usb_core.c.o)
Standard_GetStatus                                C:\Users\Lenovo\AppData\Local\arduino\cores\6384da0a6fa2f70a2504de7ae90f6808\core.a(usb_core.c.o)
Standard_SetConfiguration                         C:\Users\Lenovo\AppData\Local\arduino\cores\6384da0a6fa2f70a2504de7ae90f6808\core.a(usb_core.c.o)
Standard_SetDeviceFeature                         C:\Users\Lenovo\AppData\Local\arduino\cores\6384da0a6fa2f70a2504de7ae90f6808\core.a(usb_core.c.o)
Standard_SetEndPointFeature                       C:\Users\Lenovo\AppData\Local\arduino\cores\6384da0a6fa2f70a2504de7ae90f6808\core.a(usb_core.c.o)
Standard_SetInterface                             C:\Users\Lenovo\AppData\Local\arduino\cores\6384da0a6fa2f70a2504de7ae90f6808\core.a(usb_core.c.o)
StatusInfo                                        C:\Users\Lenovo\AppData\Local\arduino\cores\6384da0a6fa2f70a2504de7ae90f6808\core.a(usb_core.c.o)
TIMER1                                            C:\Users\Lenovo\AppData\Local\arduino\cores\6384da0a6fa2f70a2504de7ae90f6808\core.a(timer.c.o)
TIMER2                                            C:\Users\Lenovo\AppData\Local\arduino\cores\6384da0a6fa2f70a2504de7ae90f6808\core.a(timer.c.o)
TIMER3                                            C:\Users\Lenovo\AppData\Local\arduino\cores\6384da0a6fa2f70a2504de7ae90f6808\core.a(timer.c.o)
TIMER4                                            C:\Users\Lenovo\AppData\Local\arduino\cores\6384da0a6fa2f70a2504de7ae90f6808\core.a(timer.c.o)
ToWord                                            C:\Users\Lenovo\AppData\Local\arduino\cores\6384da0a6fa2f70a2504de7ae90f6808\core.a(usb_regs.c.o)
ToggleDTOG_RX                                     C:\Users\Lenovo\AppData\Local\arduino\cores\6384da0a6fa2f70a2504de7ae90f6808\core.a(usb_regs.c.o)
ToggleDTOG_TX                                     C:\Users\Lenovo\AppData\Local\arduino\cores\6384da0a6fa2f70a2504de7ae90f6808\core.a(usb_regs.c.o)
USART1                                            C:\Users\Lenovo\AppData\Local\arduino\cores\6384da0a6fa2f70a2504de7ae90f6808\core.a(usart_f1.c.o)
                                                  C:\Users\Lenovo\AppData\Local\arduino\sketches\0A1F667BE7A1596EA767C94737D7EA1C\core\board.cpp.o
USART2                                            C:\Users\Lenovo\AppData\Local\arduino\cores\6384da0a6fa2f70a2504de7ae90f6808\core.a(usart_f1.c.o)
                                                  C:\Users\Lenovo\AppData\Local\arduino\sketches\0A1F667BE7A1596EA767C94737D7EA1C\core\board.cpp.o
USART3                                            C:\Users\Lenovo\AppData\Local\arduino\cores\6384da0a6fa2f70a2504de7ae90f6808\core.a(usart_f1.c.o)
                                                  C:\Users\Lenovo\AppData\Local\arduino\sketches\0A1F667BE7A1596EA767C94737D7EA1C\core\board.cpp.o
USBLIB                                            C:\Users\Lenovo\AppData\Local\arduino\cores\6384da0a6fa2f70a2504de7ae90f6808\core.a(usb.c.o)
                                                  C:\Users\Lenovo\AppData\Local\arduino\cores\6384da0a6fa2f70a2504de7ae90f6808\core.a(usb_cdcacm.c.o)
USB_Init                                          C:\Users\Lenovo\AppData\Local\arduino\cores\6384da0a6fa2f70a2504de7ae90f6808\core.a(usb_init.c.o)
UserToPMABufferCopy                               C:\Users\Lenovo\AppData\Local\arduino\cores\6384da0a6fa2f70a2504de7ae90f6808\core.a(usb_mem.c.o)
                                                  C:\Users\Lenovo\AppData\Local\arduino\cores\6384da0a6fa2f70a2504de7ae90f6808\core.a(usb_core.c.o)
User_Standard_Requests                            C:\Users\Lenovo\AppData\Local\arduino\cores\6384da0a6fa2f70a2504de7ae90f6808\core.a(usb_cdcacm.c.o)
                                                  C:\Users\Lenovo\AppData\Local\arduino\cores\6384da0a6fa2f70a2504de7ae90f6808\core.a(usb_init.c.o)
                                                  C:\Users\Lenovo\AppData\Local\arduino\cores\6384da0a6fa2f70a2504de7ae90f6808\core.a(usb.c.o)
_Jv_RegisterClasses                               c:/users/lenovo/appdata/local/arduino15/packages/arduino/tools/arm-none-eabi-gcc/4.8.3-2014q1/bin/../lib/gcc/arm-none-eabi/4.8.3/armv7-m/crtbegin.o
__adddf3                                          c:/users/lenovo/appdata/local/arduino15/packages/arduino/tools/arm-none-eabi-gcc/4.8.3-2014q1/bin/../lib/gcc/arm-none-eabi/4.8.3/armv7-m\libgcc.a(_arm_addsubdf3.o)
__addsf3                                          c:/users/lenovo/appdata/local/arduino15/packages/arduino/tools/arm-none-eabi-gcc/4.8.3-2014q1/bin/../lib/gcc/arm-none-eabi/4.8.3/armv7-m\libgcc.a(_arm_addsubsf3.o)
__aeabi_cdcmpeq                                   c:/users/lenovo/appdata/local/arduino15/packages/arduino/tools/arm-none-eabi-gcc/4.8.3-2014q1/bin/../lib/gcc/arm-none-eabi/4.8.3/armv7-m\libgcc.a(_arm_cmpdf2.o)
__aeabi_cdcmple                                   c:/users/lenovo/appdata/local/arduino15/packages/arduino/tools/arm-none-eabi-gcc/4.8.3-2014q1/bin/../lib/gcc/arm-none-eabi/4.8.3/armv7-m\libgcc.a(_arm_cmpdf2.o)
__aeabi_cdrcmple                                  c:/users/lenovo/appdata/local/arduino15/packages/arduino/tools/arm-none-eabi-gcc/4.8.3-2014q1/bin/../lib/gcc/arm-none-eabi/4.8.3/armv7-m\libgcc.a(_arm_cmpdf2.o)
__aeabi_cfcmpeq                                   c:/users/lenovo/appdata/local/arduino15/packages/arduino/tools/arm-none-eabi-gcc/4.8.3-2014q1/bin/../lib/gcc/arm-none-eabi/4.8.3/armv7-m\libgcc.a(_arm_cmpsf2.o)
__aeabi_cfcmple                                   c:/users/lenovo/appdata/local/arduino15/packages/arduino/tools/arm-none-eabi-gcc/4.8.3-2014q1/bin/../lib/gcc/arm-none-eabi/4.8.3/armv7-m\libgcc.a(_arm_cmpsf2.o)
__aeabi_cfrcmple                                  c:/users/lenovo/appdata/local/arduino15/packages/arduino/tools/arm-none-eabi-gcc/4.8.3-2014q1/bin/../lib/gcc/arm-none-eabi/4.8.3/armv7-m\libgcc.a(_arm_cmpsf2.o)
__aeabi_d2iz                                      c:/users/lenovo/appdata/local/arduino15/packages/arduino/tools/arm-none-eabi-gcc/4.8.3-2014q1/bin/../lib/gcc/arm-none-eabi/4.8.3/armv7-m\libgcc.a(_arm_fixdfsi.o)
                                                  C:\Users\Lenovo\AppData\Local\arduino\cores\6384da0a6fa2f70a2504de7ae90f6808\core.a(Print.cpp.o)
__aeabi_d2lz                                      c:/users/lenovo/appdata/local/arduino15/packages/arduino/tools/arm-none-eabi-gcc/4.8.3-2014q1/bin/../lib/gcc/arm-none-eabi/4.8.3/armv7-m\libgcc.a(_fixdfdi.o)
                                                  C:\Users\Lenovo\AppData\Local\arduino\cores\6384da0a6fa2f70a2504de7ae90f6808\core.a(Print.cpp.o)
__aeabi_d2uiz                                     c:/users/lenovo/appdata/local/arduino15/packages/arduino/tools/arm-none-eabi-gcc/4.8.3-2014q1/bin/../lib/gcc/arm-none-eabi/4.8.3/armv7-m\libgcc.a(_arm_fixunsdfsi.o)
                                                  c:/users/lenovo/appdata/local/arduino15/packages/arduino/tools/arm-none-eabi-gcc/4.8.3-2014q1/bin/../lib/gcc/arm-none-eabi/4.8.3/armv7-m\libgcc.a(_fixunsdfdi.o)
__aeabi_d2ulz                                     c:/users/lenovo/appdata/local/arduino15/packages/arduino/tools/arm-none-eabi-gcc/4.8.3-2014q1/bin/../lib/gcc/arm-none-eabi/4.8.3/armv7-m\libgcc.a(_fixunsdfdi.o)
                                                  c:/users/lenovo/appdata/local/arduino15/packages/arduino/tools/arm-none-eabi-gcc/4.8.3-2014q1/bin/../lib/gcc/arm-none-eabi/4.8.3/armv7-m\libgcc.a(_fixdfdi.o)
__aeabi_dadd                                      c:/users/lenovo/appdata/local/arduino15/packages/arduino/tools/arm-none-eabi-gcc/4.8.3-2014q1/bin/../lib/gcc/arm-none-eabi/4.8.3/armv7-m\libgcc.a(_arm_addsubdf3.o)
                                                  C:\Users\Lenovo\AppData\Local\arduino\cores\6384da0a6fa2f70a2504de7ae90f6808\core.a(Print.cpp.o)
__aeabi_dcmpeq                                    c:/users/lenovo/appdata/local/arduino15/packages/arduino/tools/arm-none-eabi-gcc/4.8.3-2014q1/bin/../lib/gcc/arm-none-eabi/4.8.3/armv7-m\libgcc.a(_arm_cmpdf2.o)
__aeabi_dcmpge                                    c:/users/lenovo/appdata/local/arduino15/packages/arduino/tools/arm-none-eabi-gcc/4.8.3-2014q1/bin/../lib/gcc/arm-none-eabi/4.8.3/armv7-m\libgcc.a(_arm_cmpdf2.o)
                                                  C:\Users\Lenovo\AppData\Local\arduino\cores\6384da0a6fa2f70a2504de7ae90f6808\core.a(Print.cpp.o)
__aeabi_dcmpgt                                    c:/users/lenovo/appdata/local/arduino15/packages/arduino/tools/arm-none-eabi-gcc/4.8.3-2014q1/bin/../lib/gcc/arm-none-eabi/4.8.3/armv7-m\libgcc.a(_arm_cmpdf2.o)
                                                  C:\Users\Lenovo\AppData\Local\arduino\cores\6384da0a6fa2f70a2504de7ae90f6808\core.a(Print.cpp.o)
__aeabi_dcmple                                    c:/users/lenovo/appdata/local/arduino15/packages/arduino/tools/arm-none-eabi-gcc/4.8.3-2014q1/bin/../lib/gcc/arm-none-eabi/4.8.3/armv7-m\libgcc.a(_arm_cmpdf2.o)
                                                  C:\Users\Lenovo\AppData\Local\arduino\cores\6384da0a6fa2f70a2504de7ae90f6808\core.a(Print.cpp.o)
__aeabi_dcmplt                                    c:/users/lenovo/appdata/local/arduino15/packages/arduino/tools/arm-none-eabi-gcc/4.8.3-2014q1/bin/../lib/gcc/arm-none-eabi/4.8.3/armv7-m\libgcc.a(_arm_cmpdf2.o)
                                                  c:/users/lenovo/appdata/local/arduino15/packages/arduino/tools/arm-none-eabi-gcc/4.8.3-2014q1/bin/../lib/gcc/arm-none-eabi/4.8.3/armv7-m\libgcc.a(_fixdfdi.o)
                                                  C:\Users\Lenovo\AppData\Local\arduino\cores\6384da0a6fa2f70a2504de7ae90f6808\core.a(Print.cpp.o)
__aeabi_ddiv                                      c:/users/lenovo/appdata/local/arduino15/packages/arduino/tools/arm-none-eabi-gcc/4.8.3-2014q1/bin/../lib/gcc/arm-none-eabi/4.8.3/armv7-m\libgcc.a(_arm_muldivdf3.o)
                                                  C:\Users\Lenovo\AppData\Local\arduino\cores\6384da0a6fa2f70a2504de7ae90f6808\core.a(Print.cpp.o)
__aeabi_dmul                                      c:/users/lenovo/appdata/local/arduino15/packages/arduino/tools/arm-none-eabi-gcc/4.8.3-2014q1/bin/../lib/gcc/arm-none-eabi/4.8.3/armv7-m\libgcc.a(_arm_muldivdf3.o)
                                                  c:/users/lenovo/appdata/local/arduino15/packages/arduino/tools/arm-none-eabi-gcc/4.8.3-2014q1/bin/../lib/gcc/arm-none-eabi/4.8.3/armv7-m\libgcc.a(_fixunsdfdi.o)
                                                  C:\Users\Lenovo\AppData\Local\arduino\cores\6384da0a6fa2f70a2504de7ae90f6808\core.a(Print.cpp.o)
__aeabi_drsub                                     c:/users/lenovo/appdata/local/arduino15/packages/arduino/tools/arm-none-eabi-gcc/4.8.3-2014q1/bin/../lib/gcc/arm-none-eabi/4.8.3/armv7-m\libgcc.a(_arm_addsubdf3.o)
__aeabi_dsub                                      c:/users/lenovo/appdata/local/arduino15/packages/arduino/tools/arm-none-eabi-gcc/4.8.3-2014q1/bin/../lib/gcc/arm-none-eabi/4.8.3/armv7-m\libgcc.a(_arm_addsubdf3.o)
                                                  c:/users/lenovo/appdata/local/arduino15/packages/arduino/tools/arm-none-eabi-gcc/4.8.3-2014q1/bin/../lib/gcc/arm-none-eabi/4.8.3/armv7-m\libgcc.a(_fixunsdfdi.o)
                                                  C:\Users\Lenovo\AppData\Local\arduino\cores\6384da0a6fa2f70a2504de7ae90f6808\core.a(Print.cpp.o)
__aeabi_f2d                                       c:/users/lenovo/appdata/local/arduino15/packages/arduino/tools/arm-none-eabi-gcc/4.8.3-2014q1/bin/../lib/gcc/arm-none-eabi/4.8.3/armv7-m\libgcc.a(_arm_addsubdf3.o)
__aeabi_f2iz                                      c:/users/lenovo/appdata/local/arduino15/packages/arduino/tools/arm-none-eabi-gcc/4.8.3-2014q1/bin/../lib/gcc/arm-none-eabi/4.8.3/armv7-m\libgcc.a(_arm_fixsfsi.o)
                                                  C:\Users\Lenovo\AppData\Local\arduino\sketches\0A1F667BE7A1596EA767C94737D7EA1C\sketch\SevSeg.cpp.o
__aeabi_fadd                                      c:/users/lenovo/appdata/local/arduino15/packages/arduino/tools/arm-none-eabi-gcc/4.8.3-2014q1/bin/../lib/gcc/arm-none-eabi/4.8.3/armv7-m\libgcc.a(_arm_addsubsf3.o)
                                                  C:\Users\Lenovo\AppData\Local\arduino\sketches\0A1F667BE7A1596EA767C94737D7EA1C\sketch\SevSeg.cpp.o
__aeabi_fcmpeq                                    c:/users/lenovo/appdata/local/arduino15/packages/arduino/tools/arm-none-eabi-gcc/4.8.3-2014q1/bin/../lib/gcc/arm-none-eabi/4.8.3/armv7-m\libgcc.a(_arm_cmpsf2.o)
__aeabi_fcmpge                                    c:/users/lenovo/appdata/local/arduino15/packages/arduino/tools/arm-none-eabi-gcc/4.8.3-2014q1/bin/../lib/gcc/arm-none-eabi/4.8.3/armv7-m\libgcc.a(_arm_cmpsf2.o)
                                                  C:\Users\Lenovo\AppData\Local\arduino\sketches\0A1F667BE7A1596EA767C94737D7EA1C\sketch\SevSeg.cpp.o
__aeabi_fcmpgt                                    c:/users/lenovo/appdata/local/arduino15/packages/arduino/tools/arm-none-eabi-gcc/4.8.3-2014q1/bin/../lib/gcc/arm-none-eabi/4.8.3/armv7-m\libgcc.a(_arm_cmpsf2.o)
__aeabi_fcmple                                    c:/users/lenovo/appdata/local/arduino15/packages/arduino/tools/arm-none-eabi-gcc/4.8.3-2014q1/bin/../lib/gcc/arm-none-eabi/4.8.3/armv7-m\libgcc.a(_arm_cmpsf2.o)
__aeabi_fcmplt                                    c:/users/lenovo/appdata/local/arduino15/packages/arduino/tools/arm-none-eabi-gcc/4.8.3-2014q1/bin/../lib/gcc/arm-none-eabi/4.8.3/armv7-m\libgcc.a(_arm_cmpsf2.o)
__aeabi_fdiv                                      c:/users/lenovo/appdata/local/arduino15/packages/arduino/tools/arm-none-eabi-gcc/4.8.3-2014q1/bin/../lib/gcc/arm-none-eabi/4.8.3/armv7-m\libgcc.a(_arm_muldivsf3.o)
__aeabi_fmul                                      c:/users/lenovo/appdata/local/arduino15/packages/arduino/tools/arm-none-eabi-gcc/4.8.3-2014q1/bin/../lib/gcc/arm-none-eabi/4.8.3/armv7-m\libgcc.a(_arm_muldivsf3.o)
                                                  C:\Users\Lenovo\AppData\Local\arduino\sketches\0A1F667BE7A1596EA767C94737D7EA1C\sketch\SevSeg.cpp.o
__aeabi_frsub                                     c:/users/lenovo/appdata/local/arduino15/packages/arduino/tools/arm-none-eabi-gcc/4.8.3-2014q1/bin/../lib/gcc/arm-none-eabi/4.8.3/armv7-m\libgcc.a(_arm_addsubsf3.o)
__aeabi_fsub                                      c:/users/lenovo/appdata/local/arduino15/packages/arduino/tools/arm-none-eabi-gcc/4.8.3-2014q1/bin/../lib/gcc/arm-none-eabi/4.8.3/armv7-m\libgcc.a(_arm_addsubsf3.o)
__aeabi_i2d                                       c:/users/lenovo/appdata/local/arduino15/packages/arduino/tools/arm-none-eabi-gcc/4.8.3-2014q1/bin/../lib/gcc/arm-none-eabi/4.8.3/armv7-m\libgcc.a(_arm_addsubdf3.o)
                                                  C:\Users\Lenovo\AppData\Local\arduino\cores\6384da0a6fa2f70a2504de7ae90f6808\core.a(Print.cpp.o)
__aeabi_i2f                                       c:/users/lenovo/appdata/local/arduino15/packages/arduino/tools/arm-none-eabi-gcc/4.8.3-2014q1/bin/../lib/gcc/arm-none-eabi/4.8.3/armv7-m\libgcc.a(_arm_addsubsf3.o)
                                                  C:\Users\Lenovo\AppData\Local\arduino\sketches\0A1F667BE7A1596EA767C94737D7EA1C\sketch\SevSeg.cpp.o
__aeabi_idiv0                                     c:/users/lenovo/appdata/local/arduino15/packages/arduino/tools/arm-none-eabi-gcc/4.8.3-2014q1/bin/../lib/gcc/arm-none-eabi/4.8.3/armv7-m\libgcc.a(_dvmd_tls.o)
__aeabi_l2d                                       c:/users/lenovo/appdata/local/arduino15/packages/arduino/tools/arm-none-eabi-gcc/4.8.3-2014q1/bin/../lib/gcc/arm-none-eabi/4.8.3/armv7-m\libgcc.a(_arm_addsubdf3.o)
                                                  C:\Users\Lenovo\AppData\Local\arduino\cores\6384da0a6fa2f70a2504de7ae90f6808\core.a(Print.cpp.o)
__aeabi_l2f                                       c:/users/lenovo/appdata/local/arduino15/packages/arduino/tools/arm-none-eabi-gcc/4.8.3-2014q1/bin/../lib/gcc/arm-none-eabi/4.8.3/armv7-m\libgcc.a(_arm_addsubsf3.o)
__aeabi_ldiv0                                     c:/users/lenovo/appdata/local/arduino15/packages/arduino/tools/arm-none-eabi-gcc/4.8.3-2014q1/bin/../lib/gcc/arm-none-eabi/4.8.3/armv7-m\libgcc.a(_dvmd_tls.o)
                                                  c:/users/lenovo/appdata/local/arduino15/packages/arduino/tools/arm-none-eabi-gcc/4.8.3-2014q1/bin/../lib/gcc/arm-none-eabi/4.8.3/armv7-m\libgcc.a(_aeabi_uldivmod.o)
                                                  c:/users/lenovo/appdata/local/arduino15/packages/arduino/tools/arm-none-eabi-gcc/4.8.3-2014q1/bin/../lib/gcc/arm-none-eabi/4.8.3/armv7-m\libgcc.a(_aeabi_ldivmod.o)
__aeabi_ldivmod                                   c:/users/lenovo/appdata/local/arduino15/packages/arduino/tools/arm-none-eabi-gcc/4.8.3-2014q1/bin/../lib/gcc/arm-none-eabi/4.8.3/armv7-m\libgcc.a(_aeabi_ldivmod.o)
                                                  C:\Users\Lenovo\AppData\Local\arduino\sketches\0A1F667BE7A1596EA767C94737D7EA1C\sketch\SevSeg.cpp.o
__aeabi_ui2d                                      c:/users/lenovo/appdata/local/arduino15/packages/arduino/tools/arm-none-eabi-gcc/4.8.3-2014q1/bin/../lib/gcc/arm-none-eabi/4.8.3/armv7-m\libgcc.a(_arm_addsubdf3.o)
                                                  c:/users/lenovo/appdata/local/arduino15/packages/arduino/tools/arm-none-eabi-gcc/4.8.3-2014q1/bin/../lib/gcc/arm-none-eabi/4.8.3/armv7-m\libgcc.a(_fixunsdfdi.o)
__aeabi_ui2f                                      c:/users/lenovo/appdata/local/arduino15/packages/arduino/tools/arm-none-eabi-gcc/4.8.3-2014q1/bin/../lib/gcc/arm-none-eabi/4.8.3/armv7-m\libgcc.a(_arm_addsubsf3.o)
__aeabi_ul2d                                      c:/users/lenovo/appdata/local/arduino15/packages/arduino/tools/arm-none-eabi-gcc/4.8.3-2014q1/bin/../lib/gcc/arm-none-eabi/4.8.3/armv7-m\libgcc.a(_arm_addsubdf3.o)
__aeabi_ul2f                                      c:/users/lenovo/appdata/local/arduino15/packages/arduino/tools/arm-none-eabi-gcc/4.8.3-2014q1/bin/../lib/gcc/arm-none-eabi/4.8.3/armv7-m\libgcc.a(_arm_addsubsf3.o)
__aeabi_uldivmod                                  c:/users/lenovo/appdata/local/arduino15/packages/arduino/tools/arm-none-eabi-gcc/4.8.3-2014q1/bin/../lib/gcc/arm-none-eabi/4.8.3/armv7-m\libgcc.a(_aeabi_uldivmod.o)
                                                  C:\Users\Lenovo\AppData\Local\arduino\cores\6384da0a6fa2f70a2504de7ae90f6808\core.a(Print.cpp.o)
__assert_func                                     C:\Users\Lenovo\AppData\Local\arduino\cores\6384da0a6fa2f70a2504de7ae90f6808\core.a(util.c.o)
__bss_end__                                       C:\Users\Lenovo\AppData\Local\arduino\sketches\0A1F667BE7A1596EA767C94737D7EA1C\core\wirish\start_c.c.o
                                                  c:/users/lenovo/appdata/local/arduino15/packages/arduino/tools/arm-none-eabi-gcc/4.8.3-2014q1/bin/../lib/gcc/arm-none-eabi/4.8.3/../../../../arm-none-eabi/lib/armv7-m/crt0.o
__bss_start__                                     C:\Users\Lenovo\AppData\Local\arduino\sketches\0A1F667BE7A1596EA767C94737D7EA1C\core\wirish\start_c.c.o
                                                  c:/users/lenovo/appdata/local/arduino15/packages/arduino/tools/arm-none-eabi-gcc/4.8.3-2014q1/bin/../lib/gcc/arm-none-eabi/4.8.3/../../../../arm-none-eabi/lib/armv7-m/crt0.o
__call_exitprocs                                  c:/users/lenovo/appdata/local/arduino15/packages/arduino/tools/arm-none-eabi-gcc/4.8.3-2014q1/bin/../lib/gcc/arm-none-eabi/4.8.3/../../../../arm-none-eabi/lib/armv7-m\libc_s.a(lib_a-exit.o)
__cmpdf2                                          c:/users/lenovo/appdata/local/arduino15/packages/arduino/tools/arm-none-eabi-gcc/4.8.3-2014q1/bin/../lib/gcc/arm-none-eabi/4.8.3/armv7-m\libgcc.a(_arm_cmpdf2.o)
__cmpsf2                                          c:/users/lenovo/appdata/local/arduino15/packages/arduino/tools/arm-none-eabi-gcc/4.8.3-2014q1/bin/../lib/gcc/arm-none-eabi/4.8.3/armv7-m\libgcc.a(_arm_cmpsf2.o)
__cxa_demangle                                    C:\Users\Lenovo\AppData\Local\arduino\cores\6384da0a6fa2f70a2504de7ae90f6808\core.a(cxxabi-compat.cpp.o)
__cxa_pure_virtual                                C:\Users\Lenovo\AppData\Local\arduino\cores\6384da0a6fa2f70a2504de7ae90f6808\core.a(cxxabi-compat.cpp.o)
                                                  C:\Users\Lenovo\AppData\Local\arduino\cores\6384da0a6fa2f70a2504de7ae90f6808\core.a(Print.cpp.o)
                                                  C:\Users\Lenovo\AppData\Local\arduino\cores\6384da0a6fa2f70a2504de7ae90f6808\core.a(HardwareSerial.cpp.o)
__data_end__                                      C:\Users\Lenovo\AppData\Local\arduino\sketches\0A1F667BE7A1596EA767C94737D7EA1C\core\wirish\start_c.c.o
__data_start__                                    C:\Users\Lenovo\AppData\Local\arduino\sketches\0A1F667BE7A1596EA767C94737D7EA1C\core\wirish\start_c.c.o
__default_handler                                 C:\Users\Lenovo\AppData\Local\arduino\cores\6384da0a6fa2f70a2504de7ae90f6808\core.a(isrs.S.o)
__deregister_frame_info                           c:/users/lenovo/appdata/local/arduino15/packages/arduino/tools/arm-none-eabi-gcc/4.8.3-2014q1/bin/../lib/gcc/arm-none-eabi/4.8.3/armv7-m/crtbegin.o
__divdf3                                          c:/users/lenovo/appdata/local/arduino15/packages/arduino/tools/arm-none-eabi-gcc/4.8.3-2014q1/bin/../lib/gcc/arm-none-eabi/4.8.3/armv7-m\libgcc.a(_arm_muldivdf3.o)
__divdi3                                          c:/users/lenovo/appdata/local/arduino15/packages/arduino/tools/arm-none-eabi-gcc/4.8.3-2014q1/bin/../lib/gcc/arm-none-eabi/4.8.3/armv7-m\libgcc.a(_divdi3.o)
                                                  c:/users/lenovo/appdata/local/arduino15/packages/arduino/tools/arm-none-eabi-gcc/4.8.3-2014q1/bin/../lib/gcc/arm-none-eabi/4.8.3/armv7-m\libgcc.a(bpabi.o)
__divsf3                                          c:/users/lenovo/appdata/local/arduino15/packages/arduino/tools/arm-none-eabi-gcc/4.8.3-2014q1/bin/../lib/gcc/arm-none-eabi/4.8.3/armv7-m\libgcc.a(_arm_muldivsf3.o)
__dso_handle                                      c:/users/lenovo/appdata/local/arduino15/packages/arduino/tools/arm-none-eabi-gcc/4.8.3-2014q1/bin/../lib/gcc/arm-none-eabi/4.8.3/armv7-m/crtbegin.o
__eqdf2                                           c:/users/lenovo/appdata/local/arduino15/packages/arduino/tools/arm-none-eabi-gcc/4.8.3-2014q1/bin/../lib/gcc/arm-none-eabi/4.8.3/armv7-m\libgcc.a(_arm_cmpdf2.o)
__eqsf2                                           c:/users/lenovo/appdata/local/arduino15/packages/arduino/tools/arm-none-eabi-gcc/4.8.3-2014q1/bin/../lib/gcc/arm-none-eabi/4.8.3/armv7-m\libgcc.a(_arm_cmpsf2.o)
__errno                                           c:/users/lenovo/appdata/local/arduino15/packages/arduino/tools/arm-none-eabi-gcc/4.8.3-2014q1/bin/../lib/gcc/arm-none-eabi/4.8.3/../../../../arm-none-eabi/lib/armv7-m\libc_s.a(lib_a-errno.o)
                                                  C:\Users\Lenovo\AppData\Local\arduino\sketches\0A1F667BE7A1596EA767C94737D7EA1C\core\wirish\syscalls.c.o
__error                                           C:\Users\Lenovo\AppData\Local\arduino\cores\6384da0a6fa2f70a2504de7ae90f6808\core.a(util.c.o)
                                                  C:\Users\Lenovo\AppData\Local\arduino\cores\6384da0a6fa2f70a2504de7ae90f6808\core.a(exc.S.o)
__exc_busfault                                    C:\Users\Lenovo\AppData\Local\arduino\cores\6384da0a6fa2f70a2504de7ae90f6808\core.a(exc.S.o)
                                                  C:\Users\Lenovo\AppData\Local\arduino\cores\6384da0a6fa2f70a2504de7ae90f6808\core.a(vector_table.S.o)
__exc_debug_monitor                               C:\Users\Lenovo\AppData\Local\arduino\cores\6384da0a6fa2f70a2504de7ae90f6808\core.a(isrs.S.o)
                                                  C:\Users\Lenovo\AppData\Local\arduino\cores\6384da0a6fa2f70a2504de7ae90f6808\core.a(vector_table.S.o)
__exc_hardfault                                   C:\Users\Lenovo\AppData\Local\arduino\cores\6384da0a6fa2f70a2504de7ae90f6808\core.a(exc.S.o)
                                                  C:\Users\Lenovo\AppData\Local\arduino\cores\6384da0a6fa2f70a2504de7ae90f6808\core.a(vector_table.S.o)
__exc_memmanage                                   C:\Users\Lenovo\AppData\Local\arduino\cores\6384da0a6fa2f70a2504de7ae90f6808\core.a(exc.S.o)
                                                  C:\Users\Lenovo\AppData\Local\arduino\cores\6384da0a6fa2f70a2504de7ae90f6808\core.a(vector_table.S.o)
__exc_nmi                                         C:\Users\Lenovo\AppData\Local\arduino\cores\6384da0a6fa2f70a2504de7ae90f6808\core.a(exc.S.o)
                                                  C:\Users\Lenovo\AppData\Local\arduino\cores\6384da0a6fa2f70a2504de7ae90f6808\core.a(vector_table.S.o)
__exc_pendsv                                      C:\Users\Lenovo\AppData\Local\arduino\cores\6384da0a6fa2f70a2504de7ae90f6808\core.a(isrs.S.o)
                                                  C:\Users\Lenovo\AppData\Local\arduino\cores\6384da0a6fa2f70a2504de7ae90f6808\core.a(vector_table.S.o)
__exc_reset                                       C:\Users\Lenovo\AppData\Local\arduino\cores\6384da0a6fa2f70a2504de7ae90f6808\core.a(vector_table.S.o)
__exc_svc                                         C:\Users\Lenovo\AppData\Local\arduino\cores\6384da0a6fa2f70a2504de7ae90f6808\core.a(isrs.S.o)
                                                  C:\Users\Lenovo\AppData\Local\arduino\cores\6384da0a6fa2f70a2504de7ae90f6808\core.a(vector_table.S.o)
__exc_systick                                     C:\Users\Lenovo\AppData\Local\arduino\cores\6384da0a6fa2f70a2504de7ae90f6808\core.a(systick.c.o)
                                                  C:\Users\Lenovo\AppData\Local\arduino\cores\6384da0a6fa2f70a2504de7ae90f6808\core.a(vector_table.S.o)
__exc_usagefault                                  C:\Users\Lenovo\AppData\Local\arduino\cores\6384da0a6fa2f70a2504de7ae90f6808\core.a(exc.S.o)
                                                  C:\Users\Lenovo\AppData\Local\arduino\cores\6384da0a6fa2f70a2504de7ae90f6808\core.a(vector_table.S.o)
__extendsfdf2                                     c:/users/lenovo/appdata/local/arduino15/packages/arduino/tools/arm-none-eabi-gcc/4.8.3-2014q1/bin/../lib/gcc/arm-none-eabi/4.8.3/armv7-m\libgcc.a(_arm_addsubdf3.o)
__fixdfdi                                         c:/users/lenovo/appdata/local/arduino15/packages/arduino/tools/arm-none-eabi-gcc/4.8.3-2014q1/bin/../lib/gcc/arm-none-eabi/4.8.3/armv7-m\libgcc.a(_fixdfdi.o)
__fixdfsi                                         c:/users/lenovo/appdata/local/arduino15/packages/arduino/tools/arm-none-eabi-gcc/4.8.3-2014q1/bin/../lib/gcc/arm-none-eabi/4.8.3/armv7-m\libgcc.a(_arm_fixdfsi.o)
__fixsfsi                                         c:/users/lenovo/appdata/local/arduino15/packages/arduino/tools/arm-none-eabi-gcc/4.8.3-2014q1/bin/../lib/gcc/arm-none-eabi/4.8.3/armv7-m\libgcc.a(_arm_fixsfsi.o)
__fixunsdfdi                                      c:/users/lenovo/appdata/local/arduino15/packages/arduino/tools/arm-none-eabi-gcc/4.8.3-2014q1/bin/../lib/gcc/arm-none-eabi/4.8.3/armv7-m\libgcc.a(_fixunsdfdi.o)
__fixunsdfsi                                      c:/users/lenovo/appdata/local/arduino15/packages/arduino/tools/arm-none-eabi-gcc/4.8.3-2014q1/bin/../lib/gcc/arm-none-eabi/4.8.3/armv7-m\libgcc.a(_arm_fixunsdfsi.o)
__floatdidf                                       c:/users/lenovo/appdata/local/arduino15/packages/arduino/tools/arm-none-eabi-gcc/4.8.3-2014q1/bin/../lib/gcc/arm-none-eabi/4.8.3/armv7-m\libgcc.a(_arm_addsubdf3.o)
__floatdisf                                       c:/users/lenovo/appdata/local/arduino15/packages/arduino/tools/arm-none-eabi-gcc/4.8.3-2014q1/bin/../lib/gcc/arm-none-eabi/4.8.3/armv7-m\libgcc.a(_arm_addsubsf3.o)
__floatsidf                                       c:/users/lenovo/appdata/local/arduino15/packages/arduino/tools/arm-none-eabi-gcc/4.8.3-2014q1/bin/../lib/gcc/arm-none-eabi/4.8.3/armv7-m\libgcc.a(_arm_addsubdf3.o)
__floatsisf                                       c:/users/lenovo/appdata/local/arduino15/packages/arduino/tools/arm-none-eabi-gcc/4.8.3-2014q1/bin/../lib/gcc/arm-none-eabi/4.8.3/armv7-m\libgcc.a(_arm_addsubsf3.o)
__floatundidf                                     c:/users/lenovo/appdata/local/arduino15/packages/arduino/tools/arm-none-eabi-gcc/4.8.3-2014q1/bin/../lib/gcc/arm-none-eabi/4.8.3/armv7-m\libgcc.a(_arm_addsubdf3.o)
__floatundisf                                     c:/users/lenovo/appdata/local/arduino15/packages/arduino/tools/arm-none-eabi-gcc/4.8.3-2014q1/bin/../lib/gcc/arm-none-eabi/4.8.3/armv7-m\libgcc.a(_arm_addsubsf3.o)
__floatunsidf                                     c:/users/lenovo/appdata/local/arduino15/packages/arduino/tools/arm-none-eabi-gcc/4.8.3-2014q1/bin/../lib/gcc/arm-none-eabi/4.8.3/armv7-m\libgcc.a(_arm_addsubdf3.o)
__floatunsisf                                     c:/users/lenovo/appdata/local/arduino15/packages/arduino/tools/arm-none-eabi-gcc/4.8.3-2014q1/bin/../lib/gcc/arm-none-eabi/4.8.3/armv7-m\libgcc.a(_arm_addsubsf3.o)
__gedf2                                           c:/users/lenovo/appdata/local/arduino15/packages/arduino/tools/arm-none-eabi-gcc/4.8.3-2014q1/bin/../lib/gcc/arm-none-eabi/4.8.3/armv7-m\libgcc.a(_arm_cmpdf2.o)
__gesf2                                           c:/users/lenovo/appdata/local/arduino15/packages/arduino/tools/arm-none-eabi-gcc/4.8.3-2014q1/bin/../lib/gcc/arm-none-eabi/4.8.3/armv7-m\libgcc.a(_arm_cmpsf2.o)
__gnu_ldivmod_helper                              c:/users/lenovo/appdata/local/arduino15/packages/arduino/tools/arm-none-eabi-gcc/4.8.3-2014q1/bin/../lib/gcc/arm-none-eabi/4.8.3/armv7-m\libgcc.a(bpabi.o)
                                                  c:/users/lenovo/appdata/local/arduino15/packages/arduino/tools/arm-none-eabi-gcc/4.8.3-2014q1/bin/../lib/gcc/arm-none-eabi/4.8.3/armv7-m\libgcc.a(_aeabi_ldivmod.o)
__gnu_uldivmod_helper                             c:/users/lenovo/appdata/local/arduino15/packages/arduino/tools/arm-none-eabi-gcc/4.8.3-2014q1/bin/../lib/gcc/arm-none-eabi/4.8.3/armv7-m\libgcc.a(bpabi.o)
                                                  c:/users/lenovo/appdata/local/arduino15/packages/arduino/tools/arm-none-eabi-gcc/4.8.3-2014q1/bin/../lib/gcc/arm-none-eabi/4.8.3/armv7-m\libgcc.a(_aeabi_uldivmod.o)
__gtdf2                                           c:/users/lenovo/appdata/local/arduino15/packages/arduino/tools/arm-none-eabi-gcc/4.8.3-2014q1/bin/../lib/gcc/arm-none-eabi/4.8.3/armv7-m\libgcc.a(_arm_cmpdf2.o)
__gtsf2                                           c:/users/lenovo/appdata/local/arduino15/packages/arduino/tools/arm-none-eabi-gcc/4.8.3-2014q1/bin/../lib/gcc/arm-none-eabi/4.8.3/armv7-m\libgcc.a(_arm_cmpsf2.o)
__init_array_end                                  c:/users/lenovo/appdata/local/arduino15/packages/arduino/tools/arm-none-eabi-gcc/4.8.3-2014q1/bin/../lib/gcc/arm-none-eabi/4.8.3/../../../../arm-none-eabi/lib/armv7-m\libc_s.a(lib_a-init.o)
__init_array_start                                c:/users/lenovo/appdata/local/arduino15/packages/arduino/tools/arm-none-eabi-gcc/4.8.3-2014q1/bin/../lib/gcc/arm-none-eabi/4.8.3/../../../../arm-none-eabi/lib/armv7-m\libc_s.a(lib_a-init.o)
__irq_adc                                         C:\Users\Lenovo\AppData\Local\arduino\cores\6384da0a6fa2f70a2504de7ae90f6808\core.a(adc_f1.c.o)
                                                  C:\Users\Lenovo\AppData\Local\arduino\cores\6384da0a6fa2f70a2504de7ae90f6808\core.a(vector_table.S.o)
__irq_can_rx1                                     C:\Users\Lenovo\AppData\Local\arduino\cores\6384da0a6fa2f70a2504de7ae90f6808\core.a(isrs.S.o)
                                                  C:\Users\Lenovo\AppData\Local\arduino\cores\6384da0a6fa2f70a2504de7ae90f6808\core.a(vector_table.S.o)
__irq_can_sce                                     C:\Users\Lenovo\AppData\Local\arduino\cores\6384da0a6fa2f70a2504de7ae90f6808\core.a(isrs.S.o)
                                                  C:\Users\Lenovo\AppData\Local\arduino\cores\6384da0a6fa2f70a2504de7ae90f6808\core.a(vector_table.S.o)
__irq_dma1_channel1                               C:\Users\Lenovo\AppData\Local\arduino\cores\6384da0a6fa2f70a2504de7ae90f6808\core.a(dma_f1.c.o)
                                                  C:\Users\Lenovo\AppData\Local\arduino\cores\6384da0a6fa2f70a2504de7ae90f6808\core.a(vector_table.S.o)
__irq_dma1_channel2                               C:\Users\Lenovo\AppData\Local\arduino\cores\6384da0a6fa2f70a2504de7ae90f6808\core.a(dma_f1.c.o)
                                                  C:\Users\Lenovo\AppData\Local\arduino\cores\6384da0a6fa2f70a2504de7ae90f6808\core.a(vector_table.S.o)
__irq_dma1_channel3                               C:\Users\Lenovo\AppData\Local\arduino\cores\6384da0a6fa2f70a2504de7ae90f6808\core.a(dma_f1.c.o)
                                                  C:\Users\Lenovo\AppData\Local\arduino\cores\6384da0a6fa2f70a2504de7ae90f6808\core.a(vector_table.S.o)
__irq_dma1_channel4                               C:\Users\Lenovo\AppData\Local\arduino\cores\6384da0a6fa2f70a2504de7ae90f6808\core.a(dma_f1.c.o)
                                                  C:\Users\Lenovo\AppData\Local\arduino\cores\6384da0a6fa2f70a2504de7ae90f6808\core.a(vector_table.S.o)
__irq_dma1_channel5                               C:\Users\Lenovo\AppData\Local\arduino\cores\6384da0a6fa2f70a2504de7ae90f6808\core.a(dma_f1.c.o)
                                                  C:\Users\Lenovo\AppData\Local\arduino\cores\6384da0a6fa2f70a2504de7ae90f6808\core.a(vector_table.S.o)
__irq_dma1_channel6                               C:\Users\Lenovo\AppData\Local\arduino\cores\6384da0a6fa2f70a2504de7ae90f6808\core.a(dma_f1.c.o)
                                                  C:\Users\Lenovo\AppData\Local\arduino\cores\6384da0a6fa2f70a2504de7ae90f6808\core.a(vector_table.S.o)
__irq_dma1_channel7                               C:\Users\Lenovo\AppData\Local\arduino\cores\6384da0a6fa2f70a2504de7ae90f6808\core.a(dma_f1.c.o)
                                                  C:\Users\Lenovo\AppData\Local\arduino\cores\6384da0a6fa2f70a2504de7ae90f6808\core.a(vector_table.S.o)
__irq_exti0                                       C:\Users\Lenovo\AppData\Local\arduino\cores\6384da0a6fa2f70a2504de7ae90f6808\core.a(exti.c.o)
                                                  C:\Users\Lenovo\AppData\Local\arduino\cores\6384da0a6fa2f70a2504de7ae90f6808\core.a(vector_table.S.o)
__irq_exti1                                       C:\Users\Lenovo\AppData\Local\arduino\cores\6384da0a6fa2f70a2504de7ae90f6808\core.a(exti.c.o)
                                                  C:\Users\Lenovo\AppData\Local\arduino\cores\6384da0a6fa2f70a2504de7ae90f6808\core.a(vector_table.S.o)
__irq_exti15_10                                   C:\Users\Lenovo\AppData\Local\arduino\cores\6384da0a6fa2f70a2504de7ae90f6808\core.a(exti.c.o)
                                                  C:\Users\Lenovo\AppData\Local\arduino\cores\6384da0a6fa2f70a2504de7ae90f6808\core.a(vector_table.S.o)
__irq_exti2                                       C:\Users\Lenovo\AppData\Local\arduino\cores\6384da0a6fa2f70a2504de7ae90f6808\core.a(exti.c.o)
                                                  C:\Users\Lenovo\AppData\Local\arduino\cores\6384da0a6fa2f70a2504de7ae90f6808\core.a(vector_table.S.o)
__irq_exti3                                       C:\Users\Lenovo\AppData\Local\arduino\cores\6384da0a6fa2f70a2504de7ae90f6808\core.a(exti.c.o)
                                                  C:\Users\Lenovo\AppData\Local\arduino\cores\6384da0a6fa2f70a2504de7ae90f6808\core.a(vector_table.S.o)
__irq_exti4                                       C:\Users\Lenovo\AppData\Local\arduino\cores\6384da0a6fa2f70a2504de7ae90f6808\core.a(exti.c.o)
                                                  C:\Users\Lenovo\AppData\Local\arduino\cores\6384da0a6fa2f70a2504de7ae90f6808\core.a(vector_table.S.o)
__irq_exti9_5                                     C:\Users\Lenovo\AppData\Local\arduino\cores\6384da0a6fa2f70a2504de7ae90f6808\core.a(exti.c.o)
                                                  C:\Users\Lenovo\AppData\Local\arduino\cores\6384da0a6fa2f70a2504de7ae90f6808\core.a(vector_table.S.o)
__irq_flash                                       C:\Users\Lenovo\AppData\Local\arduino\cores\6384da0a6fa2f70a2504de7ae90f6808\core.a(isrs.S.o)
                                                  C:\Users\Lenovo\AppData\Local\arduino\cores\6384da0a6fa2f70a2504de7ae90f6808\core.a(vector_table.S.o)
__irq_i2c1_er                                     C:\Users\Lenovo\AppData\Local\arduino\cores\6384da0a6fa2f70a2504de7ae90f6808\core.a(i2c_f1.c.o)
                                                  C:\Users\Lenovo\AppData\Local\arduino\cores\6384da0a6fa2f70a2504de7ae90f6808\core.a(vector_table.S.o)
__irq_i2c1_ev                                     C:\Users\Lenovo\AppData\Local\arduino\cores\6384da0a6fa2f70a2504de7ae90f6808\core.a(i2c_f1.c.o)
                                                  C:\Users\Lenovo\AppData\Local\arduino\cores\6384da0a6fa2f70a2504de7ae90f6808\core.a(vector_table.S.o)
__irq_i2c2_er                                     C:\Users\Lenovo\AppData\Local\arduino\cores\6384da0a6fa2f70a2504de7ae90f6808\core.a(i2c_f1.c.o)
                                                  C:\Users\Lenovo\AppData\Local\arduino\cores\6384da0a6fa2f70a2504de7ae90f6808\core.a(vector_table.S.o)
__irq_i2c2_ev                                     C:\Users\Lenovo\AppData\Local\arduino\cores\6384da0a6fa2f70a2504de7ae90f6808\core.a(i2c_f1.c.o)
                                                  C:\Users\Lenovo\AppData\Local\arduino\cores\6384da0a6fa2f70a2504de7ae90f6808\core.a(vector_table.S.o)
__irq_pvd                                         C:\Users\Lenovo\AppData\Local\arduino\cores\6384da0a6fa2f70a2504de7ae90f6808\core.a(isrs.S.o)
                                                  C:\Users\Lenovo\AppData\Local\arduino\cores\6384da0a6fa2f70a2504de7ae90f6808\core.a(vector_table.S.o)
__irq_rcc                                         C:\Users\Lenovo\AppData\Local\arduino\cores\6384da0a6fa2f70a2504de7ae90f6808\core.a(isrs.S.o)
                                                  C:\Users\Lenovo\AppData\Local\arduino\cores\6384da0a6fa2f70a2504de7ae90f6808\core.a(vector_table.S.o)
__irq_rtc                                         C:\Users\Lenovo\AppData\Local\arduino\cores\6384da0a6fa2f70a2504de7ae90f6808\core.a(isrs.S.o)
                                                  C:\Users\Lenovo\AppData\Local\arduino\cores\6384da0a6fa2f70a2504de7ae90f6808\core.a(vector_table.S.o)
__irq_rtcalarm                                    C:\Users\Lenovo\AppData\Local\arduino\cores\6384da0a6fa2f70a2504de7ae90f6808\core.a(isrs.S.o)
                                                  C:\Users\Lenovo\AppData\Local\arduino\cores\6384da0a6fa2f70a2504de7ae90f6808\core.a(vector_table.S.o)
__irq_spi1                                        C:\Users\Lenovo\AppData\Local\arduino\cores\6384da0a6fa2f70a2504de7ae90f6808\core.a(isrs.S.o)
                                                  C:\Users\Lenovo\AppData\Local\arduino\cores\6384da0a6fa2f70a2504de7ae90f6808\core.a(vector_table.S.o)
__irq_spi2                                        C:\Users\Lenovo\AppData\Local\arduino\cores\6384da0a6fa2f70a2504de7ae90f6808\core.a(isrs.S.o)
                                                  C:\Users\Lenovo\AppData\Local\arduino\cores\6384da0a6fa2f70a2504de7ae90f6808\core.a(vector_table.S.o)
__irq_tamper                                      C:\Users\Lenovo\AppData\Local\arduino\cores\6384da0a6fa2f70a2504de7ae90f6808\core.a(isrs.S.o)
                                                  C:\Users\Lenovo\AppData\Local\arduino\cores\6384da0a6fa2f70a2504de7ae90f6808\core.a(vector_table.S.o)
__irq_tim1_brk                                    C:\Users\Lenovo\AppData\Local\arduino\cores\6384da0a6fa2f70a2504de7ae90f6808\core.a(timer.c.o)
                                                  C:\Users\Lenovo\AppData\Local\arduino\cores\6384da0a6fa2f70a2504de7ae90f6808\core.a(vector_table.S.o)
__irq_tim1_cc                                     C:\Users\Lenovo\AppData\Local\arduino\cores\6384da0a6fa2f70a2504de7ae90f6808\core.a(timer.c.o)
                                                  C:\Users\Lenovo\AppData\Local\arduino\cores\6384da0a6fa2f70a2504de7ae90f6808\core.a(vector_table.S.o)
__irq_tim1_trg_com                                C:\Users\Lenovo\AppData\Local\arduino\cores\6384da0a6fa2f70a2504de7ae90f6808\core.a(timer.c.o)
                                                  C:\Users\Lenovo\AppData\Local\arduino\cores\6384da0a6fa2f70a2504de7ae90f6808\core.a(vector_table.S.o)
__irq_tim1_up                                     C:\Users\Lenovo\AppData\Local\arduino\cores\6384da0a6fa2f70a2504de7ae90f6808\core.a(timer.c.o)
                                                  C:\Users\Lenovo\AppData\Local\arduino\cores\6384da0a6fa2f70a2504de7ae90f6808\core.a(vector_table.S.o)
__irq_tim2                                        C:\Users\Lenovo\AppData\Local\arduino\cores\6384da0a6fa2f70a2504de7ae90f6808\core.a(timer.c.o)
                                                  C:\Users\Lenovo\AppData\Local\arduino\cores\6384da0a6fa2f70a2504de7ae90f6808\core.a(vector_table.S.o)
__irq_tim3                                        C:\Users\Lenovo\AppData\Local\arduino\cores\6384da0a6fa2f70a2504de7ae90f6808\core.a(timer.c.o)
                                                  C:\Users\Lenovo\AppData\Local\arduino\cores\6384da0a6fa2f70a2504de7ae90f6808\core.a(vector_table.S.o)
__irq_tim4                                        C:\Users\Lenovo\AppData\Local\arduino\cores\6384da0a6fa2f70a2504de7ae90f6808\core.a(timer.c.o)
                                                  C:\Users\Lenovo\AppData\Local\arduino\cores\6384da0a6fa2f70a2504de7ae90f6808\core.a(vector_table.S.o)
__irq_usart1                                      C:\Users\Lenovo\AppData\Local\arduino\cores\6384da0a6fa2f70a2504de7ae90f6808\core.a(usart_f1.c.o)
                                                  C:\Users\Lenovo\AppData\Local\arduino\cores\6384da0a6fa2f70a2504de7ae90f6808\core.a(vector_table.S.o)
__irq_usart2                                      C:\Users\Lenovo\AppData\Local\arduino\cores\6384da0a6fa2f70a2504de7ae90f6808\core.a(usart_f1.c.o)
                                                  C:\Users\Lenovo\AppData\Local\arduino\cores\6384da0a6fa2f70a2504de7ae90f6808\core.a(vector_table.S.o)
__irq_usart3                                      C:\Users\Lenovo\AppData\Local\arduino\cores\6384da0a6fa2f70a2504de7ae90f6808\core.a(usart_f1.c.o)
                                                  C:\Users\Lenovo\AppData\Local\arduino\cores\6384da0a6fa2f70a2504de7ae90f6808\core.a(vector_table.S.o)
__irq_usb_hp_can_tx                               C:\Users\Lenovo\AppData\Local\arduino\cores\6384da0a6fa2f70a2504de7ae90f6808\core.a(isrs.S.o)
                                                  C:\Users\Lenovo\AppData\Local\arduino\cores\6384da0a6fa2f70a2504de7ae90f6808\core.a(vector_table.S.o)
__irq_usb_lp_can_rx0                              C:\Users\Lenovo\AppData\Local\arduino\cores\6384da0a6fa2f70a2504de7ae90f6808\core.a(usb.c.o)
                                                  C:\Users\Lenovo\AppData\Local\arduino\cores\6384da0a6fa2f70a2504de7ae90f6808\core.a(vector_table.S.o)
__irq_usbwakeup                                   C:\Users\Lenovo\AppData\Local\arduino\cores\6384da0a6fa2f70a2504de7ae90f6808\core.a(isrs.S.o)
                                                  C:\Users\Lenovo\AppData\Local\arduino\cores\6384da0a6fa2f70a2504de7ae90f6808\core.a(vector_table.S.o)
__irq_wwdg                                        C:\Users\Lenovo\AppData\Local\arduino\cores\6384da0a6fa2f70a2504de7ae90f6808\core.a(isrs.S.o)
                                                  C:\Users\Lenovo\AppData\Local\arduino\cores\6384da0a6fa2f70a2504de7ae90f6808\core.a(vector_table.S.o)
__ledf2                                           c:/users/lenovo/appdata/local/arduino15/packages/arduino/tools/arm-none-eabi-gcc/4.8.3-2014q1/bin/../lib/gcc/arm-none-eabi/4.8.3/armv7-m\libgcc.a(_arm_cmpdf2.o)
__lesf2                                           c:/users/lenovo/appdata/local/arduino15/packages/arduino/tools/arm-none-eabi-gcc/4.8.3-2014q1/bin/../lib/gcc/arm-none-eabi/4.8.3/armv7-m\libgcc.a(_arm_cmpsf2.o)
__libc_fini_array                                 c:/users/lenovo/appdata/local/arduino15/packages/arduino/tools/arm-none-eabi-gcc/4.8.3-2014q1/bin/../lib/gcc/arm-none-eabi/4.8.3/../../../../arm-none-eabi/lib/armv7-m/crt0.o
__libc_init_array                                 c:/users/lenovo/appdata/local/arduino15/packages/arduino/tools/arm-none-eabi-gcc/4.8.3-2014q1/bin/../lib/gcc/arm-none-eabi/4.8.3/../../../../arm-none-eabi/lib/armv7-m\libc_s.a(lib_a-init.o)
                                                  C:\Users\Lenovo\AppData\Local\arduino\sketches\0A1F667BE7A1596EA767C94737D7EA1C\core\wirish\start_c.c.o
                                                  c:/users/lenovo/appdata/local/arduino15/packages/arduino/tools/arm-none-eabi-gcc/4.8.3-2014q1/bin/../lib/gcc/arm-none-eabi/4.8.3/../../../../arm-none-eabi/lib/armv7-m/crt0.o
__lm_enable_error_usart                           C:\Users\Lenovo\AppData\Local\arduino\cores\6384da0a6fa2f70a2504de7ae90f6808\core.a(util.c.o)
__lm_error                                        C:\Users\Lenovo\AppData\Local\arduino\cores\6384da0a6fa2f70a2504de7ae90f6808\core.a(util.c.o)
__ltdf2                                           c:/users/lenovo/appdata/local/arduino15/packages/arduino/tools/arm-none-eabi-gcc/4.8.3-2014q1/bin/../lib/gcc/arm-none-eabi/4.8.3/armv7-m\libgcc.a(_arm_cmpdf2.o)
__ltsf2                                           c:/users/lenovo/appdata/local/arduino15/packages/arduino/tools/arm-none-eabi-gcc/4.8.3-2014q1/bin/../lib/gcc/arm-none-eabi/4.8.3/armv7-m\libgcc.a(_arm_cmpsf2.o)
__msp_init                                        C:\Users\Lenovo\AppData\Local\arduino\cores\6384da0a6fa2f70a2504de7ae90f6808\core.a(vector_table.S.o)
                                                  C:\Users\Lenovo\AppData\Local\arduino\sketches\0A1F667BE7A1596EA767C94737D7EA1C\core\wirish\start.S.o
__muldf3                                          c:/users/lenovo/appdata/local/arduino15/packages/arduino/tools/arm-none-eabi-gcc/4.8.3-2014q1/bin/../lib/gcc/arm-none-eabi/4.8.3/armv7-m\libgcc.a(_arm_muldivdf3.o)
__mulsf3                                          c:/users/lenovo/appdata/local/arduino15/packages/arduino/tools/arm-none-eabi-gcc/4.8.3-2014q1/bin/../lib/gcc/arm-none-eabi/4.8.3/armv7-m\libgcc.a(_arm_muldivsf3.o)
__nedf2                                           c:/users/lenovo/appdata/local/arduino15/packages/arduino/tools/arm-none-eabi-gcc/4.8.3-2014q1/bin/../lib/gcc/arm-none-eabi/4.8.3/armv7-m\libgcc.a(_arm_cmpdf2.o)
__nesf2                                           c:/users/lenovo/appdata/local/arduino15/packages/arduino/tools/arm-none-eabi-gcc/4.8.3-2014q1/bin/../lib/gcc/arm-none-eabi/4.8.3/armv7-m\libgcc.a(_arm_cmpsf2.o)
__preinit_array_end                               c:/users/lenovo/appdata/local/arduino15/packages/arduino/tools/arm-none-eabi-gcc/4.8.3-2014q1/bin/../lib/gcc/arm-none-eabi/4.8.3/../../../../arm-none-eabi/lib/armv7-m\libc_s.a(lib_a-init.o)
__preinit_array_start                             c:/users/lenovo/appdata/local/arduino15/packages/arduino/tools/arm-none-eabi-gcc/4.8.3-2014q1/bin/../lib/gcc/arm-none-eabi/4.8.3/../../../../arm-none-eabi/lib/armv7-m\libc_s.a(lib_a-init.o)
__register_frame_info                             c:/users/lenovo/appdata/local/arduino15/packages/arduino/tools/arm-none-eabi-gcc/4.8.3-2014q1/bin/../lib/gcc/arm-none-eabi/4.8.3/armv7-m/crtbegin.o
__sf_fake_stderr                                  c:/users/lenovo/appdata/local/arduino15/packages/arduino/tools/arm-none-eabi-gcc/4.8.3-2014q1/bin/../lib/gcc/arm-none-eabi/4.8.3/../../../../arm-none-eabi/lib/armv7-m\libc_s.a(lib_a-impure.o)
__sf_fake_stdin                                   c:/users/lenovo/appdata/local/arduino15/packages/arduino/tools/arm-none-eabi-gcc/4.8.3-2014q1/bin/../lib/gcc/arm-none-eabi/4.8.3/../../../../arm-none-eabi/lib/armv7-m\libc_s.a(lib_a-impure.o)
__sf_fake_stdout                                  c:/users/lenovo/appdata/local/arduino15/packages/arduino/tools/arm-none-eabi-gcc/4.8.3-2014q1/bin/../lib/gcc/arm-none-eabi/4.8.3/../../../../arm-none-eabi/lib/armv7-m\libc_s.a(lib_a-impure.o)
__stack                                           c:/users/lenovo/appdata/local/arduino15/packages/arduino/tools/arm-none-eabi-gcc/4.8.3-2014q1/bin/../lib/gcc/arm-none-eabi/4.8.3/../../../../arm-none-eabi/lib/armv7-m/crt0.o
__start__                                         C:\Users\Lenovo\AppData\Local\arduino\sketches\0A1F667BE7A1596EA767C94737D7EA1C\core\wirish\start.S.o
__stm32_vector_table                              C:\Users\Lenovo\AppData\Local\arduino\cores\6384da0a6fa2f70a2504de7ae90f6808\core.a(vector_table.S.o)
__stm32reservedexception10                        C:\Users\Lenovo\AppData\Local\arduino\cores\6384da0a6fa2f70a2504de7ae90f6808\core.a(isrs.S.o)
                                                  C:\Users\Lenovo\AppData\Local\arduino\cores\6384da0a6fa2f70a2504de7ae90f6808\core.a(vector_table.S.o)
__stm32reservedexception13                        C:\Users\Lenovo\AppData\Local\arduino\cores\6384da0a6fa2f70a2504de7ae90f6808\core.a(isrs.S.o)
                                                  C:\Users\Lenovo\AppData\Local\arduino\cores\6384da0a6fa2f70a2504de7ae90f6808\core.a(vector_table.S.o)
__stm32reservedexception7                         C:\Users\Lenovo\AppData\Local\arduino\cores\6384da0a6fa2f70a2504de7ae90f6808\core.a(isrs.S.o)
                                                  C:\Users\Lenovo\AppData\Local\arduino\cores\6384da0a6fa2f70a2504de7ae90f6808\core.a(vector_table.S.o)
__stm32reservedexception8                         C:\Users\Lenovo\AppData\Local\arduino\cores\6384da0a6fa2f70a2504de7ae90f6808\core.a(isrs.S.o)
                                                  C:\Users\Lenovo\AppData\Local\arduino\cores\6384da0a6fa2f70a2504de7ae90f6808\core.a(vector_table.S.o)
__stm32reservedexception9                         C:\Users\Lenovo\AppData\Local\arduino\cores\6384da0a6fa2f70a2504de7ae90f6808\core.a(isrs.S.o)
                                                  C:\Users\Lenovo\AppData\Local\arduino\cores\6384da0a6fa2f70a2504de7ae90f6808\core.a(vector_table.S.o)
__subdf3                                          c:/users/lenovo/appdata/local/arduino15/packages/arduino/tools/arm-none-eabi-gcc/4.8.3-2014q1/bin/../lib/gcc/arm-none-eabi/4.8.3/armv7-m\libgcc.a(_arm_addsubdf3.o)
__subsf3                                          c:/users/lenovo/appdata/local/arduino15/packages/arduino/tools/arm-none-eabi-gcc/4.8.3-2014q1/bin/../lib/gcc/arm-none-eabi/4.8.3/armv7-m\libgcc.a(_arm_addsubsf3.o)
__udivdi3                                         c:/users/lenovo/appdata/local/arduino15/packages/arduino/tools/arm-none-eabi-gcc/4.8.3-2014q1/bin/../lib/gcc/arm-none-eabi/4.8.3/armv7-m\libgcc.a(_udivdi3.o)
                                                  c:/users/lenovo/appdata/local/arduino15/packages/arduino/tools/arm-none-eabi-gcc/4.8.3-2014q1/bin/../lib/gcc/arm-none-eabi/4.8.3/armv7-m\libgcc.a(bpabi.o)
_close                                            C:\Users\Lenovo\AppData\Local\arduino\sketches\0A1F667BE7A1596EA767C94737D7EA1C\core\wirish\syscalls.c.o
_dma_addr_type                                    C:\Users\Lenovo\AppData\Local\arduino\cores\6384da0a6fa2f70a2504de7ae90f6808\core.a(dma.c.o)
                                                  C:\Users\Lenovo\AppData\Local\arduino\cores\6384da0a6fa2f70a2504de7ae90f6808\core.a(dma_f1.c.o)
_exit                                             C:\Users\Lenovo\AppData\Local\arduino\sketches\0A1F667BE7A1596EA767C94737D7EA1C\core\wirish\syscalls.c.o
                                                  c:/users/lenovo/appdata/local/arduino15/packages/arduino/tools/arm-none-eabi-gcc/4.8.3-2014q1/bin/../lib/gcc/arm-none-eabi/4.8.3/../../../../arm-none-eabi/lib/armv7-m\libc_s.a(lib_a-exit.o)
_fail                                             C:\Users\Lenovo\AppData\Local\arduino\cores\6384da0a6fa2f70a2504de7ae90f6808\core.a(util.c.o)
_fini                                             c:/users/lenovo/appdata/local/arduino15/packages/arduino/tools/arm-none-eabi-gcc/4.8.3-2014q1/bin/../lib/gcc/arm-none-eabi/4.8.3/armv7-m/crti.o
_fstat                                            C:\Users\Lenovo\AppData\Local\arduino\sketches\0A1F667BE7A1596EA767C94737D7EA1C\core\wirish\syscalls.c.o
_global_impure_ptr                                c:/users/lenovo/appdata/local/arduino15/packages/arduino/tools/arm-none-eabi-gcc/4.8.3-2014q1/bin/../lib/gcc/arm-none-eabi/4.8.3/../../../../arm-none-eabi/lib/armv7-m\libc_s.a(lib_a-impure.o)
                                                  c:/users/lenovo/appdata/local/arduino15/packages/arduino/tools/arm-none-eabi-gcc/4.8.3-2014q1/bin/../lib/gcc/arm-none-eabi/4.8.3/../../../../arm-none-eabi/lib/armv7-m\libc_s.a(lib_a-exit.o)
_i2c_irq_error_handler                            C:\Users\Lenovo\AppData\Local\arduino\cores\6384da0a6fa2f70a2504de7ae90f6808\core.a(i2c.c.o)
                                                  C:\Users\Lenovo\AppData\Local\arduino\cores\6384da0a6fa2f70a2504de7ae90f6808\core.a(i2c_f1.c.o)
_i2c_irq_handler                                  C:\Users\Lenovo\AppData\Local\arduino\cores\6384da0a6fa2f70a2504de7ae90f6808\core.a(i2c.c.o)
                                                  C:\Users\Lenovo\AppData\Local\arduino\cores\6384da0a6fa2f70a2504de7ae90f6808\core.a(i2c_f1.c.o)
_i2c_irq_priority_fixup                           C:\Users\Lenovo\AppData\Local\arduino\cores\6384da0a6fa2f70a2504de7ae90f6808\core.a(i2c_f1.c.o)
                                                  C:\Users\Lenovo\AppData\Local\arduino\cores\6384da0a6fa2f70a2504de7ae90f6808\core.a(i2c.c.o)
_impure_ptr                                       c:/users/lenovo/appdata/local/arduino15/packages/arduino/tools/arm-none-eabi-gcc/4.8.3-2014q1/bin/../lib/gcc/arm-none-eabi/4.8.3/../../../../arm-none-eabi/lib/armv7-m\libc_s.a(lib_a-impure.o)
                                                  c:/users/lenovo/appdata/local/arduino15/packages/arduino/tools/arm-none-eabi-gcc/4.8.3-2014q1/bin/../lib/gcc/arm-none-eabi/4.8.3/../../../../arm-none-eabi/lib/armv7-m\libc_s.a(lib_a-errno.o)
_init                                             c:/users/lenovo/appdata/local/arduino15/packages/arduino/tools/arm-none-eabi-gcc/4.8.3-2014q1/bin/../lib/gcc/arm-none-eabi/4.8.3/armv7-m/crti.o
                                                  c:/users/lenovo/appdata/local/arduino15/packages/arduino/tools/arm-none-eabi-gcc/4.8.3-2014q1/bin/../lib/gcc/arm-none-eabi/4.8.3/../../../../arm-none-eabi/lib/armv7-m\libc_s.a(lib_a-init.o)
_isatty                                           C:\Users\Lenovo\AppData\Local\arduino\sketches\0A1F667BE7A1596EA767C94737D7EA1C\core\wirish\syscalls.c.o
_lm_heap_end                                      C:\Users\Lenovo\AppData\Local\arduino\sketches\0A1F667BE7A1596EA767C94737D7EA1C\core\wirish\syscalls.c.o
_lm_heap_start                                    C:\Users\Lenovo\AppData\Local\arduino\sketches\0A1F667BE7A1596EA767C94737D7EA1C\core\wirish\syscalls.c.o
_lm_rom_img_cfgp                                  C:\Users\Lenovo\AppData\Local\arduino\sketches\0A1F667BE7A1596EA767C94737D7EA1C\core\wirish\start_c.c.o
_lseek                                            C:\Users\Lenovo\AppData\Local\arduino\sketches\0A1F667BE7A1596EA767C94737D7EA1C\core\wirish\syscalls.c.o
_mainCRTStartup                                   c:/users/lenovo/appdata/local/arduino15/packages/arduino/tools/arm-none-eabi-gcc/4.8.3-2014q1/bin/../lib/gcc/arm-none-eabi/4.8.3/../../../../arm-none-eabi/lib/armv7-m/crt0.o
_open                                             C:\Users\Lenovo\AppData\Local\arduino\sketches\0A1F667BE7A1596EA767C94737D7EA1C\core\wirish\syscalls.c.o
_read                                             C:\Users\Lenovo\AppData\Local\arduino\sketches\0A1F667BE7A1596EA767C94737D7EA1C\core\wirish\syscalls.c.o
_sbrk                                             C:\Users\Lenovo\AppData\Local\arduino\sketches\0A1F667BE7A1596EA767C94737D7EA1C\core\wirish\syscalls.c.o
_start                                            c:/users/lenovo/appdata/local/arduino15/packages/arduino/tools/arm-none-eabi-gcc/4.8.3-2014q1/bin/../lib/gcc/arm-none-eabi/4.8.3/../../../../arm-none-eabi/lib/armv7-m/crt0.o
_usart_clock_freq                                 C:\Users\Lenovo\AppData\Local\arduino\cores\6384da0a6fa2f70a2504de7ae90f6808\core.a(usart_private.c.o)
                                                  C:\Users\Lenovo\AppData\Local\arduino\cores\6384da0a6fa2f70a2504de7ae90f6808\core.a(usart_f1.c.o)
_write                                            C:\Users\Lenovo\AppData\Local\arduino\sketches\0A1F667BE7A1596EA767C94737D7EA1C\core\wirish\syscalls.c.o
abort                                             C:\Users\Lenovo\AppData\Local\arduino\cores\6384da0a6fa2f70a2504de7ae90f6808\core.a(util.c.o)
actualizarTemporizador()                          C:\Users\Lenovo\AppData\Local\arduino\sketches\0A1F667BE7A1596EA767C94737D7EA1C\sketch\Lavadora.ino.cpp.o
adc1                                              C:\Users\Lenovo\AppData\Local\arduino\cores\6384da0a6fa2f70a2504de7ae90f6808\core.a(adc_f1.c.o)
                                                  C:\Users\Lenovo\AppData\Local\arduino\sketches\0A1F667BE7A1596EA767C94737D7EA1C\core\board.cpp.o
adc2                                              C:\Users\Lenovo\AppData\Local\arduino\cores\6384da0a6fa2f70a2504de7ae90f6808\core.a(adc_f1.c.o)
adc_attach_interrupt                              C:\Users\Lenovo\AppData\Local\arduino\cores\6384da0a6fa2f70a2504de7ae90f6808\core.a(adc_f1.c.o)
adc_calibrate                                     C:\Users\Lenovo\AppData\Local\arduino\cores\6384da0a6fa2f70a2504de7ae90f6808\core.a(adc_f1.c.o)
adc_config_gpio                                   C:\Users\Lenovo\AppData\Local\arduino\cores\6384da0a6fa2f70a2504de7ae90f6808\core.a(adc_f1.c.o)
adc_enable_irq                                    C:\Users\Lenovo\AppData\Local\arduino\cores\6384da0a6fa2f70a2504de7ae90f6808\core.a(adc_f1.c.o)
adc_enable_single_swstart                         C:\Users\Lenovo\AppData\Local\arduino\cores\6384da0a6fa2f70a2504de7ae90f6808\core.a(adc_f1.c.o)
                                                  C:\Users\Lenovo\AppData\Local\arduino\sketches\0A1F667BE7A1596EA767C94737D7EA1C\core\wirish\boards.cpp.o
adc_foreach                                       C:\Users\Lenovo\AppData\Local\arduino\cores\6384da0a6fa2f70a2504de7ae90f6808\core.a(adc_f1.c.o)
                                                  C:\Users\Lenovo\AppData\Local\arduino\sketches\0A1F667BE7A1596EA767C94737D7EA1C\core\wirish\boards.cpp.o
adc_init                                          C:\Users\Lenovo\AppData\Local\arduino\cores\6384da0a6fa2f70a2504de7ae90f6808\core.a(adc.c.o)
                                                  C:\Users\Lenovo\AppData\Local\arduino\cores\6384da0a6fa2f70a2504de7ae90f6808\core.a(adc_f1.c.o)
adc_read                                          C:\Users\Lenovo\AppData\Local\arduino\cores\6384da0a6fa2f70a2504de7ae90f6808\core.a(adc.c.o)
adc_set_extsel                                    C:\Users\Lenovo\AppData\Local\arduino\cores\6384da0a6fa2f70a2504de7ae90f6808\core.a(adc.c.o)
                                                  C:\Users\Lenovo\AppData\Local\arduino\cores\6384da0a6fa2f70a2504de7ae90f6808\core.a(adc_f1.c.o)
adc_set_prescaler                                 C:\Users\Lenovo\AppData\Local\arduino\cores\6384da0a6fa2f70a2504de7ae90f6808\core.a(adc_f1.c.o)
                                                  C:\Users\Lenovo\AppData\Local\arduino\sketches\0A1F667BE7A1596EA767C94737D7EA1C\core\wirish\boards.cpp.o
adc_set_sample_rate                               C:\Users\Lenovo\AppData\Local\arduino\cores\6384da0a6fa2f70a2504de7ae90f6808\core.a(adc.c.o)
                                                  C:\Users\Lenovo\AppData\Local\arduino\sketches\0A1F667BE7A1596EA767C94737D7EA1C\core\wirish\boards.cpp.o
afio_init                                         C:\Users\Lenovo\AppData\Local\arduino\cores\6384da0a6fa2f70a2504de7ae90f6808\core.a(gpio_f1.c.o)
                                                  C:\Users\Lenovo\AppData\Local\arduino\sketches\0A1F667BE7A1596EA767C94737D7EA1C\core\wirish\boards_setup.cpp.o
afio_is_remapped                                  C:\Users\Lenovo\AppData\Local\arduino\cores\6384da0a6fa2f70a2504de7ae90f6808\core.a(gpio_f1.c.o)
afio_remap                                        C:\Users\Lenovo\AppData\Local\arduino\cores\6384da0a6fa2f70a2504de7ae90f6808\core.a(gpio_f1.c.o)
                                                  C:\Users\Lenovo\AppData\Local\arduino\cores\6384da0a6fa2f70a2504de7ae90f6808\core.a(i2c.c.o)
                                                  C:\Users\Lenovo\AppData\Local\arduino\cores\6384da0a6fa2f70a2504de7ae90f6808\core.a(i2c_f1.c.o)
                                                  C:\Users\Lenovo\AppData\Local\arduino\sketches\0A1F667BE7A1596EA767C94737D7EA1C\core\board.cpp.o
ajustarTiempo()                                   C:\Users\Lenovo\AppData\Local\arduino\sketches\0A1F667BE7A1596EA767C94737D7EA1C\sketch\Lavadora.ino.cpp.o
apagarTodo()                                      C:\Users\Lenovo\AppData\Local\arduino\sketches\0A1F667BE7A1596EA767C94737D7EA1C\sketch\Lavadora.ino.cpp.o
atexit                                            c:/users/lenovo/appdata/local/arduino15/packages/arduino/tools/arm-none-eabi-gcc/4.8.3-2014q1/bin/../lib/gcc/arm-none-eabi/4.8.3/../../../../arm-none-eabi/lib/armv7-m/crt0.o
boardADCPins                                      C:\Users\Lenovo\AppData\Local\arduino\sketches\0A1F667BE7A1596EA767C94737D7EA1C\core\board.cpp.o
boardInit()                                       C:\Users\Lenovo\AppData\Local\arduino\sketches\0A1F667BE7A1596EA767C94737D7EA1C\core\board.cpp.o
boardPWMPins                                      C:\Users\Lenovo\AppData\Local\arduino\sketches\0A1F667BE7A1596EA767C94737D7EA1C\core\board.cpp.o
boardUsedPins                                     C:\Users\Lenovo\AppData\Local\arduino\sketches\0A1F667BE7A1596EA767C94737D7EA1C\core\wirish\boards.cpp.o
boardUsesPin(unsigned char)                       C:\Users\Lenovo\AppData\Local\arduino\sketches\0A1F667BE7A1596EA767C94737D7EA1C\core\wirish\boards.cpp.o
cambiarTemperatura()                              C:\Users\Lenovo\AppData\Local\arduino\sketches\0A1F667BE7A1596EA767C94737D7EA1C\sketch\Lavadora.ino.cpp.o
cantidadSeleccionada                              C:\Users\Lenovo\AppData\Local\arduino\sketches\0A1F667BE7A1596EA767C94737D7EA1C\sketch\Lavadora.ino.cpp.o
centrifugadoSeleccionado                          C:\Users\Lenovo\AppData\Local\arduino\sketches\0A1F667BE7A1596EA767C94737D7EA1C\sketch\Lavadora.ino.cpp.o
cgets                                             C:\Users\Lenovo\AppData\Local\arduino\sketches\0A1F667BE7A1596EA767C94737D7EA1C\core\wirish\syscalls.c.o
configurarCantidadRopa(int)                       C:\Users\Lenovo\AppData\Local\arduino\sketches\0A1F667BE7A1596EA767C94737D7EA1C\sketch\Lavadora.ino.cpp.o
configurarCentrifugado(int)                       C:\Users\Lenovo\AppData\Local\arduino\sketches\0A1F667BE7A1596EA767C94737D7EA1C\sketch\Lavadora.ino.cpp.o
configurarEnjuague(int)                           C:\Users\Lenovo\AppData\Local\arduino\sketches\0A1F667BE7A1596EA767C94737D7EA1C\sketch\Lavadora.ino.cpp.o
configurarNivelAgua(int)                          C:\Users\Lenovo\AppData\Local\arduino\sketches\0A1F667BE7A1596EA767C94737D7EA1C\sketch\Lavadora.ino.cpp.o
configurarNivelLavado(int)                        C:\Users\Lenovo\AppData\Local\arduino\sketches\0A1F667BE7A1596EA767C94737D7EA1C\sketch\Lavadora.ino.cpp.o
configurarTipoLavado(int)                         C:\Users\Lenovo\AppData\Local\arduino\sketches\0A1F667BE7A1596EA767C94737D7EA1C\sketch\Lavadora.ino.cpp.o
contadorAgua                                      C:\Users\Lenovo\AppData\Local\arduino\sketches\0A1F667BE7A1596EA767C94737D7EA1C\sketch\Lavadora.ino.cpp.o
contadorCentrifugado                              C:\Users\Lenovo\AppData\Local\arduino\sketches\0A1F667BE7A1596EA767C94737D7EA1C\sketch\Lavadora.ino.cpp.o
contadorEnjuague                                  C:\Users\Lenovo\AppData\Local\arduino\sketches\0A1F667BE7A1596EA767C94737D7EA1C\sketch\Lavadora.ino.cpp.o
contadorLavado                                    C:\Users\Lenovo\AppData\Local\arduino\sketches\0A1F667BE7A1596EA767C94737D7EA1C\sketch\Lavadora.ino.cpp.o
debounce(int, bool&, unsigned long&)              C:\Users\Lenovo\AppData\Local\arduino\sketches\0A1F667BE7A1596EA767C94737D7EA1C\sketch\Lavadora.ino.cpp.o
delay                                             C:\Users\Lenovo\AppData\Local\arduino\cores\6384da0a6fa2f70a2504de7ae90f6808\core.a(wirish_time.cpp.o)
delayMicroseconds                                 C:\Users\Lenovo\AppData\Local\arduino\cores\6384da0a6fa2f70a2504de7ae90f6808\core.a(wirish_time.cpp.o)
                                                  C:\Users\Lenovo\AppData\Local\arduino\sketches\0A1F667BE7A1596EA767C94737D7EA1C\sketch\SevSeg.cpp.o
digitalRead(unsigned char)                        C:\Users\Lenovo\AppData\Local\arduino\cores\6384da0a6fa2f70a2504de7ae90f6808\core.a(wirish_digital.cpp.o)
                                                  C:\Users\Lenovo\AppData\Local\arduino\sketches\0A1F667BE7A1596EA767C94737D7EA1C\sketch\Lavadora.ino.cpp.o
digitalWrite(unsigned char, unsigned char)        C:\Users\Lenovo\AppData\Local\arduino\cores\6384da0a6fa2f70a2504de7ae90f6808\core.a(wirish_digital.cpp.o)
                                                  C:\Users\Lenovo\AppData\Local\arduino\sketches\0A1F667BE7A1596EA767C94737D7EA1C\sketch\SevSeg.cpp.o
                                                  C:\Users\Lenovo\AppData\Local\arduino\sketches\0A1F667BE7A1596EA767C94737D7EA1C\sketch\Lavadora.ino.cpp.o
dispatch_extis                                    C:\Users\Lenovo\AppData\Local\arduino\cores\6384da0a6fa2f70a2504de7ae90f6808\core.a(exti.c.o)
dispatch_single_exti                              C:\Users\Lenovo\AppData\Local\arduino\cores\6384da0a6fa2f70a2504de7ae90f6808\core.a(exti.c.o)
dma2Ch4_5                                         C:\Users\Lenovo\AppData\Local\arduino\cores\6384da0a6fa2f70a2504de7ae90f6808\core.a(dma_f1.c.o)
dma_attach_interrupt                              C:\Users\Lenovo\AppData\Local\arduino\cores\6384da0a6fa2f70a2504de7ae90f6808\core.a(dma_f1.c.o)
dma_detach_interrupt                              C:\Users\Lenovo\AppData\Local\arduino\cores\6384da0a6fa2f70a2504de7ae90f6808\core.a(dma_f1.c.o)
dma_disable                                       C:\Users\Lenovo\AppData\Local\arduino\cores\6384da0a6fa2f70a2504de7ae90f6808\core.a(dma_f1.c.o)
dma_enable                                        C:\Users\Lenovo\AppData\Local\arduino\cores\6384da0a6fa2f70a2504de7ae90f6808\core.a(dma_f1.c.o)
dma_get_irq_cause                                 C:\Users\Lenovo\AppData\Local\arduino\cores\6384da0a6fa2f70a2504de7ae90f6808\core.a(dma_f1.c.o)
dma_init                                          C:\Users\Lenovo\AppData\Local\arduino\cores\6384da0a6fa2f70a2504de7ae90f6808\core.a(dma.c.o)
dma_set_mem_addr                                  C:\Users\Lenovo\AppData\Local\arduino\cores\6384da0a6fa2f70a2504de7ae90f6808\core.a(dma_f1.c.o)
dma_set_num_transfers                             C:\Users\Lenovo\AppData\Local\arduino\cores\6384da0a6fa2f70a2504de7ae90f6808\core.a(dma_f1.c.o)
dma_set_per_addr                                  C:\Users\Lenovo\AppData\Local\arduino\cores\6384da0a6fa2f70a2504de7ae90f6808\core.a(dma_f1.c.o)
dma_set_priority                                  C:\Users\Lenovo\AppData\Local\arduino\cores\6384da0a6fa2f70a2504de7ae90f6808\core.a(dma_f1.c.o)
dma_setup_transfer                                C:\Users\Lenovo\AppData\Local\arduino\cores\6384da0a6fa2f70a2504de7ae90f6808\core.a(dma_f1.c.o)
dma_tube_cfg                                      C:\Users\Lenovo\AppData\Local\arduino\cores\6384da0a6fa2f70a2504de7ae90f6808\core.a(dma_f1.c.o)
enMarcha                                          C:\Users\Lenovo\AppData\Local\arduino\sketches\0A1F667BE7A1596EA767C94737D7EA1C\sketch\Lavadora.ino.cpp.o
enjuagueSeleccionado                              C:\Users\Lenovo\AppData\Local\arduino\sketches\0A1F667BE7A1596EA767C94737D7EA1C\sketch\Lavadora.ino.cpp.o
exit                                              c:/users/lenovo/appdata/local/arduino15/packages/arduino/tools/arm-none-eabi-gcc/4.8.3-2014q1/bin/../lib/gcc/arm-none-eabi/4.8.3/../../../../arm-none-eabi/lib/armv7-m\libc_s.a(lib_a-exit.o)
                                                  C:\Users\Lenovo\AppData\Local\arduino\sketches\0A1F667BE7A1596EA767C94737D7EA1C\core\wirish\start_c.c.o
                                                  c:/users/lenovo/appdata/local/arduino15/packages/arduino/tools/arm-none-eabi-gcc/4.8.3-2014q1/bin/../lib/gcc/arm-none-eabi/4.8.3/../../../../arm-none-eabi/lib/armv7-m/crt0.o
exti_attach_callback                              C:\Users\Lenovo\AppData\Local\arduino\cores\6384da0a6fa2f70a2504de7ae90f6808\core.a(exti.c.o)
exti_attach_interrupt                             C:\Users\Lenovo\AppData\Local\arduino\cores\6384da0a6fa2f70a2504de7ae90f6808\core.a(exti.c.o)
exti_channels                                     C:\Users\Lenovo\AppData\Local\arduino\cores\6384da0a6fa2f70a2504de7ae90f6808\core.a(exti.c.o)
exti_detach_interrupt                             C:\Users\Lenovo\AppData\Local\arduino\cores\6384da0a6fa2f70a2504de7ae90f6808\core.a(exti.c.o)
exti_do_select                                    C:\Users\Lenovo\AppData\Local\arduino\cores\6384da0a6fa2f70a2504de7ae90f6808\core.a(exti.c.o)
                                                  C:\Users\Lenovo\AppData\Local\arduino\cores\6384da0a6fa2f70a2504de7ae90f6808\core.a(exti_f1.c.o)
exti_select                                       C:\Users\Lenovo\AppData\Local\arduino\cores\6384da0a6fa2f70a2504de7ae90f6808\core.a(exti_f1.c.o)
                                                  C:\Users\Lenovo\AppData\Local\arduino\cores\6384da0a6fa2f70a2504de7ae90f6808\core.a(exti.c.o)
fgets                                             C:\Users\Lenovo\AppData\Local\arduino\sketches\0A1F667BE7A1596EA767C94737D7EA1C\core\wirish\syscalls.c.o
flash_set_latency                                 C:\Users\Lenovo\AppData\Local\arduino\cores\6384da0a6fa2f70a2504de7ae90f6808\core.a(flash.c.o)
                                                  C:\Users\Lenovo\AppData\Local\arduino\sketches\0A1F667BE7A1596EA767C94737D7EA1C\core\wirish\boards.cpp.o
get_direction                                     C:\Users\Lenovo\AppData\Local\arduino\cores\6384da0a6fa2f70a2504de7ae90f6808\core.a(timer.c.o)
getch                                             C:\Users\Lenovo\AppData\Local\arduino\sketches\0A1F667BE7A1596EA767C94737D7EA1C\core\wirish\syscalls.c.o
gpio_get_mode                                     C:\Users\Lenovo\AppData\Local\arduino\cores\6384da0a6fa2f70a2504de7ae90f6808\core.a(gpio_f1.c.o)
gpio_init                                         C:\Users\Lenovo\AppData\Local\arduino\cores\6384da0a6fa2f70a2504de7ae90f6808\core.a(gpio.c.o)
                                                  C:\Users\Lenovo\AppData\Local\arduino\cores\6384da0a6fa2f70a2504de7ae90f6808\core.a(gpio_f1.c.o)
gpio_init_all                                     C:\Users\Lenovo\AppData\Local\arduino\cores\6384da0a6fa2f70a2504de7ae90f6808\core.a(gpio_f1.c.o)
                                                  C:\Users\Lenovo\AppData\Local\arduino\sketches\0A1F667BE7A1596EA767C94737D7EA1C\core\wirish\boards_setup.cpp.o
gpio_set_mode                                     C:\Users\Lenovo\AppData\Local\arduino\cores\6384da0a6fa2f70a2504de7ae90f6808\core.a(gpio_f1.c.o)
                                                  C:\Users\Lenovo\AppData\Local\arduino\cores\6384da0a6fa2f70a2504de7ae90f6808\core.a(wirish_digital_f1.cpp.o)
                                                  C:\Users\Lenovo\AppData\Local\arduino\cores\6384da0a6fa2f70a2504de7ae90f6808\core.a(util.c.o)
                                                  C:\Users\Lenovo\AppData\Local\arduino\cores\6384da0a6fa2f70a2504de7ae90f6808\core.a(usb_cdcacm.c.o)
                                                  C:\Users\Lenovo\AppData\Local\arduino\cores\6384da0a6fa2f70a2504de7ae90f6808\core.a(usart_f1.c.o)
                                                  C:\Users\Lenovo\AppData\Local\arduino\cores\6384da0a6fa2f70a2504de7ae90f6808\core.a(i2c_f1.c.o)
                                                  C:\Users\Lenovo\AppData\Local\arduino\cores\6384da0a6fa2f70a2504de7ae90f6808\core.a(adc_f1.c.o)
gpioa                                             C:\Users\Lenovo\AppData\Local\arduino\cores\6384da0a6fa2f70a2504de7ae90f6808\core.a(gpio_f1.c.o)
                                                  C:\Users\Lenovo\AppData\Local\arduino\sketches\0A1F667BE7A1596EA767C94737D7EA1C\core\board.cpp.o
gpiob                                             C:\Users\Lenovo\AppData\Local\arduino\cores\6384da0a6fa2f70a2504de7ae90f6808\core.a(gpio_f1.c.o)
                                                  C:\Users\Lenovo\AppData\Local\arduino\cores\6384da0a6fa2f70a2504de7ae90f6808\core.a(i2c_f1.c.o)
                                                  C:\Users\Lenovo\AppData\Local\arduino\sketches\0A1F667BE7A1596EA767C94737D7EA1C\core\board.cpp.o
gpioc                                             C:\Users\Lenovo\AppData\Local\arduino\cores\6384da0a6fa2f70a2504de7ae90f6808\core.a(gpio_f1.c.o)
                                                  C:\Users\Lenovo\AppData\Local\arduino\sketches\0A1F667BE7A1596EA767C94737D7EA1C\core\board.cpp.o
gpiod                                             C:\Users\Lenovo\AppData\Local\arduino\cores\6384da0a6fa2f70a2504de7ae90f6808\core.a(gpio_f1.c.o)
                                                  C:\Users\Lenovo\AppData\Local\arduino\sketches\0A1F667BE7A1596EA767C94737D7EA1C\core\board.cpp.o
hardware_init_hook                                c:/users/lenovo/appdata/local/arduino15/packages/arduino/tools/arm-none-eabi-gcc/4.8.3-2014q1/bin/../lib/gcc/arm-none-eabi/4.8.3/../../../../arm-none-eabi/lib/armv7-m/crt0.o
horas                                             C:\Users\Lenovo\AppData\Local\arduino\sketches\0A1F667BE7A1596EA767C94737D7EA1C\sketch\Lavadora.ino.cpp.o
i2c_bus_reset                                     C:\Users\Lenovo\AppData\Local\arduino\cores\6384da0a6fa2f70a2504de7ae90f6808\core.a(i2c.c.o)
i2c_config_gpios                                  C:\Users\Lenovo\AppData\Local\arduino\cores\6384da0a6fa2f70a2504de7ae90f6808\core.a(i2c_f1.c.o)
                                                  C:\Users\Lenovo\AppData\Local\arduino\cores\6384da0a6fa2f70a2504de7ae90f6808\core.a(i2c.c.o)
i2c_init                                          C:\Users\Lenovo\AppData\Local\arduino\cores\6384da0a6fa2f70a2504de7ae90f6808\core.a(i2c.c.o)
i2c_master_enable                                 C:\Users\Lenovo\AppData\Local\arduino\cores\6384da0a6fa2f70a2504de7ae90f6808\core.a(i2c.c.o)
i2c_master_release_bus                            C:\Users\Lenovo\AppData\Local\arduino\cores\6384da0a6fa2f70a2504de7ae90f6808\core.a(i2c_f1.c.o)
                                                  C:\Users\Lenovo\AppData\Local\arduino\cores\6384da0a6fa2f70a2504de7ae90f6808\core.a(i2c.c.o)
i2c_master_xfer                                   C:\Users\Lenovo\AppData\Local\arduino\cores\6384da0a6fa2f70a2504de7ae90f6808\core.a(i2c.c.o)
i2c_set_ccr_trise                                 C:\Users\Lenovo\AppData\Local\arduino\cores\6384da0a6fa2f70a2504de7ae90f6808\core.a(i2c.c.o)
i2c_slave_attach_recv_handler                     C:\Users\Lenovo\AppData\Local\arduino\cores\6384da0a6fa2f70a2504de7ae90f6808\core.a(i2c.c.o)
i2c_slave_attach_transmit_handler                 C:\Users\Lenovo\AppData\Local\arduino\cores\6384da0a6fa2f70a2504de7ae90f6808\core.a(i2c.c.o)
i2c_slave_enable                                  C:\Users\Lenovo\AppData\Local\arduino\cores\6384da0a6fa2f70a2504de7ae90f6808\core.a(i2c.c.o)
init()                                            C:\Users\Lenovo\AppData\Local\arduino\sketches\0A1F667BE7A1596EA767C94737D7EA1C\core\wirish\boards.cpp.o
                                                  C:\Users\Lenovo\AppData\Local\arduino\cores\6384da0a6fa2f70a2504de7ae90f6808\core.a(main.cpp.o)
input_capture_mode                                C:\Users\Lenovo\AppData\Local\arduino\cores\6384da0a6fa2f70a2504de7ae90f6808\core.a(timer.c.o)
isatty                                            C:\Users\Lenovo\AppData\Local\arduino\sketches\0A1F667BE7A1596EA767C94737D7EA1C\core\wirish\syscalls.c.o
lastDebounceTimeCentrifugado                      C:\Users\Lenovo\AppData\Local\arduino\sketches\0A1F667BE7A1596EA767C94737D7EA1C\sketch\Lavadora.ino.cpp.o
lastDebounceTimeEnjuague                          C:\Users\Lenovo\AppData\Local\arduino\sketches\0A1F667BE7A1596EA767C94737D7EA1C\sketch\Lavadora.ino.cpp.o
lastDebounceTimeLavado                            C:\Users\Lenovo\AppData\Local\arduino\sketches\0A1F667BE7A1596EA767C94737D7EA1C\sketch\Lavadora.ino.cpp.o
lastDebounceTimeNivelAgua                         C:\Users\Lenovo\AppData\Local\arduino\sketches\0A1F667BE7A1596EA767C94737D7EA1C\sketch\Lavadora.ino.cpp.o
lastUpdateTime                                    C:\Users\Lenovo\AppData\Local\arduino\sketches\0A1F667BE7A1596EA767C94737D7EA1C\sketch\Lavadora.ino.cpp.o
loop()                                            C:\Users\Lenovo\AppData\Local\arduino\sketches\0A1F667BE7A1596EA767C94737D7EA1C\sketch\Lavadora.ino.cpp.o
                                                  C:\Users\Lenovo\AppData\Local\arduino\cores\6384da0a6fa2f70a2504de7ae90f6808\core.a(main.cpp.o)
main                                              C:\Users\Lenovo\AppData\Local\arduino\cores\6384da0a6fa2f70a2504de7ae90f6808\core.a(main.cpp.o)
                                                  C:\Users\Lenovo\AppData\Local\arduino\sketches\0A1F667BE7A1596EA767C94737D7EA1C\core\wirish\start_c.c.o
                                                  c:/users/lenovo/appdata/local/arduino15/packages/arduino/tools/arm-none-eabi-gcc/4.8.3-2014q1/bin/../lib/gcc/arm-none-eabi/4.8.3/../../../../arm-none-eabi/lib/armv7-m/crt0.o
manejarBotonEncender()                            C:\Users\Lenovo\AppData\Local\arduino\sketches\0A1F667BE7A1596EA767C94737D7EA1C\sketch\Lavadora.ino.cpp.o
manejarBotones()                                  C:\Users\Lenovo\AppData\Local\arduino\sketches\0A1F667BE7A1596EA767C94737D7EA1C\sketch\Lavadora.ino.cpp.o
memset                                            c:/users/lenovo/appdata/local/arduino15/packages/arduino/tools/arm-none-eabi-gcc/4.8.3-2014q1/bin/../lib/gcc/arm-none-eabi/4.8.3/../../../../arm-none-eabi/lib/armv7-m\libc_s.a(lib_a-memset.o)
                                                  c:/users/lenovo/appdata/local/arduino15/packages/arduino/tools/arm-none-eabi-gcc/4.8.3-2014q1/bin/../lib/gcc/arm-none-eabi/4.8.3/../../../../arm-none-eabi/lib/armv7-m/crt0.o
minutos                                           C:\Users\Lenovo\AppData\Local\arduino\sketches\0A1F667BE7A1596EA767C94737D7EA1C\sketch\Lavadora.ino.cpp.o
mostrarTiempo()                                   C:\Users\Lenovo\AppData\Local\arduino\sketches\0A1F667BE7A1596EA767C94737D7EA1C\sketch\Lavadora.ino.cpp.o
nivelAguaSeleccionado                             C:\Users\Lenovo\AppData\Local\arduino\sketches\0A1F667BE7A1596EA767C94737D7EA1C\sketch\Lavadora.ino.cpp.o
nvic_init                                         C:\Users\Lenovo\AppData\Local\arduino\cores\6384da0a6fa2f70a2504de7ae90f6808\core.a(nvic.c.o)
                                                  C:\Users\Lenovo\AppData\Local\arduino\sketches\0A1F667BE7A1596EA767C94737D7EA1C\core\wirish\boards.cpp.o
nvic_irq_set_priority                             C:\Users\Lenovo\AppData\Local\arduino\cores\6384da0a6fa2f70a2504de7ae90f6808\core.a(nvic.c.o)
                                                  C:\Users\Lenovo\AppData\Local\arduino\cores\6384da0a6fa2f70a2504de7ae90f6808\core.a(i2c_f1.c.o)
nvic_set_vector_table                             C:\Users\Lenovo\AppData\Local\arduino\cores\6384da0a6fa2f70a2504de7ae90f6808\core.a(nvic.c.o)
nvic_sys_reset                                    C:\Users\Lenovo\AppData\Local\arduino\cores\6384da0a6fa2f70a2504de7ae90f6808\core.a(nvic.c.o)
pInformation                                      C:\Users\Lenovo\AppData\Local\arduino\cores\6384da0a6fa2f70a2504de7ae90f6808\core.a(usb_init.c.o)
                                                  C:\Users\Lenovo\AppData\Local\arduino\cores\6384da0a6fa2f70a2504de7ae90f6808\core.a(usb_core.c.o)
                                                  C:\Users\Lenovo\AppData\Local\arduino\cores\6384da0a6fa2f70a2504de7ae90f6808\core.a(usb_cdcacm.c.o)
                                                  C:\Users\Lenovo\AppData\Local\arduino\cores\6384da0a6fa2f70a2504de7ae90f6808\core.a(usb.c.o)
pProperty                                         C:\Users\Lenovo\AppData\Local\arduino\cores\6384da0a6fa2f70a2504de7ae90f6808\core.a(usb_init.c.o)
                                                  C:\Users\Lenovo\AppData\Local\arduino\cores\6384da0a6fa2f70a2504de7ae90f6808\core.a(usb_core.c.o)
                                                  C:\Users\Lenovo\AppData\Local\arduino\cores\6384da0a6fa2f70a2504de7ae90f6808\core.a(usb_cdcacm.c.o)
                                                  C:\Users\Lenovo\AppData\Local\arduino\cores\6384da0a6fa2f70a2504de7ae90f6808\core.a(usb.c.o)
pUser_Standard_Requests                           C:\Users\Lenovo\AppData\Local\arduino\cores\6384da0a6fa2f70a2504de7ae90f6808\core.a(usb_init.c.o)
                                                  C:\Users\Lenovo\AppData\Local\arduino\cores\6384da0a6fa2f70a2504de7ae90f6808\core.a(usb_core.c.o)
                                                  C:\Users\Lenovo\AppData\Local\arduino\cores\6384da0a6fa2f70a2504de7ae90f6808\core.a(usb.c.o)
pinMode(unsigned char, WiringPinMode)             C:\Users\Lenovo\AppData\Local\arduino\cores\6384da0a6fa2f70a2504de7ae90f6808\core.a(wirish_digital_f1.cpp.o)
                                                  C:\Users\Lenovo\AppData\Local\arduino\sketches\0A1F667BE7A1596EA767C94737D7EA1C\sketch\SevSeg.cpp.o
                                                  C:\Users\Lenovo\AppData\Local\arduino\sketches\0A1F667BE7A1596EA767C94737D7EA1C\sketch\Lavadora.ino.cpp.o
premain()                                         C:\Users\Lenovo\AppData\Local\arduino\cores\6384da0a6fa2f70a2504de7ae90f6808\core.a(main.cpp.o)
prevEstadoCentrifugado                            C:\Users\Lenovo\AppData\Local\arduino\sketches\0A1F667BE7A1596EA767C94737D7EA1C\sketch\Lavadora.ino.cpp.o
prevEstadoEncender                                C:\Users\Lenovo\AppData\Local\arduino\sketches\0A1F667BE7A1596EA767C94737D7EA1C\sketch\Lavadora.ino.cpp.o
prevEstadoEnjuague                                C:\Users\Lenovo\AppData\Local\arduino\sketches\0A1F667BE7A1596EA767C94737D7EA1C\sketch\Lavadora.ino.cpp.o
prevEstadoIniciar                                 C:\Users\Lenovo\AppData\Local\arduino\sketches\0A1F667BE7A1596EA767C94737D7EA1C\sketch\Lavadora.ino.cpp.o
prevEstadoLavado                                  C:\Users\Lenovo\AppData\Local\arduino\sketches\0A1F667BE7A1596EA767C94737D7EA1C\sketch\Lavadora.ino.cpp.o
prevEstadoNivelAgua                               C:\Users\Lenovo\AppData\Local\arduino\sketches\0A1F667BE7A1596EA767C94737D7EA1C\sketch\Lavadora.ino.cpp.o
prevEstadoRopa                                    C:\Users\Lenovo\AppData\Local\arduino\sketches\0A1F667BE7A1596EA767C94737D7EA1C\sketch\Lavadora.ino.cpp.o
prevEstadoTemperatura                             C:\Users\Lenovo\AppData\Local\arduino\sketches\0A1F667BE7A1596EA767C94737D7EA1C\sketch\Lavadora.ino.cpp.o
prevEstadoTipoLavado                              C:\Users\Lenovo\AppData\Local\arduino\sketches\0A1F667BE7A1596EA767C94737D7EA1C\sketch\Lavadora.ino.cpp.o
putch                                             C:\Users\Lenovo\AppData\Local\arduino\sketches\0A1F667BE7A1596EA767C94737D7EA1C\core\wirish\syscalls.c.o
rcc_clk_disable                                   C:\Users\Lenovo\AppData\Local\arduino\cores\6384da0a6fa2f70a2504de7ae90f6808\core.a(rcc_f1.c.o)
                                                  C:\Users\Lenovo\AppData\Local\arduino\sketches\0A1F667BE7A1596EA767C94737D7EA1C\core\wirish\boards_setup.cpp.o
rcc_clk_enable                                    C:\Users\Lenovo\AppData\Local\arduino\cores\6384da0a6fa2f70a2504de7ae90f6808\core.a(rcc_f1.c.o)
                                                  C:\Users\Lenovo\AppData\Local\arduino\cores\6384da0a6fa2f70a2504de7ae90f6808\core.a(i2c.c.o)
                                                  C:\Users\Lenovo\AppData\Local\arduino\cores\6384da0a6fa2f70a2504de7ae90f6808\core.a(gpio.c.o)
                                                  C:\Users\Lenovo\AppData\Local\arduino\cores\6384da0a6fa2f70a2504de7ae90f6808\core.a(dma.c.o)
                                                  C:\Users\Lenovo\AppData\Local\arduino\cores\6384da0a6fa2f70a2504de7ae90f6808\core.a(usb.c.o)
                                                  C:\Users\Lenovo\AppData\Local\arduino\cores\6384da0a6fa2f70a2504de7ae90f6808\core.a(usart.c.o)
                                                  C:\Users\Lenovo\AppData\Local\arduino\cores\6384da0a6fa2f70a2504de7ae90f6808\core.a(timer.c.o)
                                                  C:\Users\Lenovo\AppData\Local\arduino\cores\6384da0a6fa2f70a2504de7ae90f6808\core.a(gpio_f1.c.o)
                                                  C:\Users\Lenovo\AppData\Local\arduino\cores\6384da0a6fa2f70a2504de7ae90f6808\core.a(adc.c.o)
rcc_clk_init                                      C:\Users\Lenovo\AppData\Local\arduino\cores\6384da0a6fa2f70a2504de7ae90f6808\core.a(rcc_f1.c.o)
rcc_configure_pll                                 C:\Users\Lenovo\AppData\Local\arduino\cores\6384da0a6fa2f70a2504de7ae90f6808\core.a(rcc_f1.c.o)
                                                  C:\Users\Lenovo\AppData\Local\arduino\sketches\0A1F667BE7A1596EA767C94737D7EA1C\core\wirish\boards.cpp.o
rcc_dev_clk                                       C:\Users\Lenovo\AppData\Local\arduino\cores\6384da0a6fa2f70a2504de7ae90f6808\core.a(rcc.c.o)
                                                  C:\Users\Lenovo\AppData\Local\arduino\cores\6384da0a6fa2f70a2504de7ae90f6808\core.a(usart_private.c.o)
                                                  C:\Users\Lenovo\AppData\Local\arduino\cores\6384da0a6fa2f70a2504de7ae90f6808\core.a(rcc_f1.c.o)
rcc_dev_table                                     C:\Users\Lenovo\AppData\Local\arduino\cores\6384da0a6fa2f70a2504de7ae90f6808\core.a(rcc_f1.c.o)
                                                  C:\Users\Lenovo\AppData\Local\arduino\cores\6384da0a6fa2f70a2504de7ae90f6808\core.a(rcc.c.o)
rcc_is_clk_on                                     C:\Users\Lenovo\AppData\Local\arduino\cores\6384da0a6fa2f70a2504de7ae90f6808\core.a(rcc.c.o)
rcc_is_clk_ready                                  C:\Users\Lenovo\AppData\Local\arduino\cores\6384da0a6fa2f70a2504de7ae90f6808\core.a(rcc.c.o)
                                                  C:\Users\Lenovo\AppData\Local\arduino\cores\6384da0a6fa2f70a2504de7ae90f6808\core.a(rcc_f1.c.o)
                                                  C:\Users\Lenovo\AppData\Local\arduino\sketches\0A1F667BE7A1596EA767C94737D7EA1C\core\wirish\boards.cpp.o
rcc_reset_dev                                     C:\Users\Lenovo\AppData\Local\arduino\cores\6384da0a6fa2f70a2504de7ae90f6808\core.a(rcc_f1.c.o)
                                                  C:\Users\Lenovo\AppData\Local\arduino\cores\6384da0a6fa2f70a2504de7ae90f6808\core.a(i2c.c.o)
                                                  C:\Users\Lenovo\AppData\Local\arduino\cores\6384da0a6fa2f70a2504de7ae90f6808\core.a(gpio.c.o)
                                                  C:\Users\Lenovo\AppData\Local\arduino\cores\6384da0a6fa2f70a2504de7ae90f6808\core.a(timer.c.o)
                                                  C:\Users\Lenovo\AppData\Local\arduino\cores\6384da0a6fa2f70a2504de7ae90f6808\core.a(gpio_f1.c.o)
                                                  C:\Users\Lenovo\AppData\Local\arduino\cores\6384da0a6fa2f70a2504de7ae90f6808\core.a(adc.c.o)
rcc_set_prescaler                                 C:\Users\Lenovo\AppData\Local\arduino\cores\6384da0a6fa2f70a2504de7ae90f6808\core.a(rcc_f1.c.o)
                                                  C:\Users\Lenovo\AppData\Local\arduino\cores\6384da0a6fa2f70a2504de7ae90f6808\core.a(adc_f1.c.o)
                                                  C:\Users\Lenovo\AppData\Local\arduino\sketches\0A1F667BE7A1596EA767C94737D7EA1C\core\wirish\boards_setup.cpp.o
rcc_switch_sysclk                                 C:\Users\Lenovo\AppData\Local\arduino\cores\6384da0a6fa2f70a2504de7ae90f6808\core.a(rcc.c.o)
                                                  C:\Users\Lenovo\AppData\Local\arduino\cores\6384da0a6fa2f70a2504de7ae90f6808\core.a(rcc_f1.c.o)
                                                  C:\Users\Lenovo\AppData\Local\arduino\sketches\0A1F667BE7A1596EA767C94737D7EA1C\core\wirish\boards.cpp.o
rcc_turn_off_clk                                  C:\Users\Lenovo\AppData\Local\arduino\cores\6384da0a6fa2f70a2504de7ae90f6808\core.a(rcc.c.o)
                                                  C:\Users\Lenovo\AppData\Local\arduino\sketches\0A1F667BE7A1596EA767C94737D7EA1C\core\wirish\boards.cpp.o
rcc_turn_on_clk                                   C:\Users\Lenovo\AppData\Local\arduino\cores\6384da0a6fa2f70a2504de7ae90f6808\core.a(rcc.c.o)
                                                  C:\Users\Lenovo\AppData\Local\arduino\cores\6384da0a6fa2f70a2504de7ae90f6808\core.a(rcc_f1.c.o)
                                                  C:\Users\Lenovo\AppData\Local\arduino\sketches\0A1F667BE7A1596EA767C94737D7EA1C\core\wirish\boards.cpp.o
segundos                                          C:\Users\Lenovo\AppData\Local\arduino\sketches\0A1F667BE7A1596EA767C94737D7EA1C\sketch\Lavadora.ino.cpp.o
setup()                                           C:\Users\Lenovo\AppData\Local\arduino\sketches\0A1F667BE7A1596EA767C94737D7EA1C\sketch\Lavadora.ino.cpp.o
                                                  C:\Users\Lenovo\AppData\Local\arduino\cores\6384da0a6fa2f70a2504de7ae90f6808\core.a(main.cpp.o)
sevseg                                            C:\Users\Lenovo\AppData\Local\arduino\sketches\0A1F667BE7A1596EA767C94737D7EA1C\sketch\Lavadora.ino.cpp.o
sistemaEncendido                                  C:\Users\Lenovo\AppData\Local\arduino\sketches\0A1F667BE7A1596EA767C94737D7EA1C\sketch\Lavadora.ino.cpp.o
software_init_hook                                c:/users/lenovo/appdata/local/arduino15/packages/arduino/tools/arm-none-eabi-gcc/4.8.3-2014q1/bin/../lib/gcc/arm-none-eabi/4.8.3/../../../../arm-none-eabi/lib/armv7-m/crt0.o
start_c                                           C:\Users\Lenovo\AppData\Local\arduino\sketches\0A1F667BE7A1596EA767C94737D7EA1C\core\wirish\start_c.c.o
                                                  C:\Users\Lenovo\AppData\Local\arduino\sketches\0A1F667BE7A1596EA767C94737D7EA1C\core\wirish\start.S.o
strcpy                                            c:/users/lenovo/appdata/local/arduino15/packages/arduino/tools/arm-none-eabi-gcc/4.8.3-2014q1/bin/../lib/gcc/arm-none-eabi/4.8.3/../../../../arm-none-eabi/lib/armv7-m\libc_s.a(lib_a-strcpy.o)
                                                  C:\Users\Lenovo\AppData\Local\arduino\cores\6384da0a6fa2f70a2504de7ae90f6808\core.a(cxxabi-compat.cpp.o)
strlen                                            c:/users/lenovo/appdata/local/arduino15/packages/arduino/tools/arm-none-eabi-gcc/4.8.3-2014q1/bin/../lib/gcc/arm-none-eabi/4.8.3/../../../../arm-none-eabi/lib/armv7-m\libc_s.a(lib_a-strlen.o)
                                                  C:\Users\Lenovo\AppData\Local\arduino\cores\6384da0a6fa2f70a2504de7ae90f6808\core.a(Print.cpp.o)
systick_attach_callback                           C:\Users\Lenovo\AppData\Local\arduino\cores\6384da0a6fa2f70a2504de7ae90f6808\core.a(systick.c.o)
systick_disable                                   C:\Users\Lenovo\AppData\Local\arduino\cores\6384da0a6fa2f70a2504de7ae90f6808\core.a(systick.c.o)
systick_enable                                    C:\Users\Lenovo\AppData\Local\arduino\cores\6384da0a6fa2f70a2504de7ae90f6808\core.a(systick.c.o)
systick_init                                      C:\Users\Lenovo\AppData\Local\arduino\cores\6384da0a6fa2f70a2504de7ae90f6808\core.a(systick.c.o)
                                                  C:\Users\Lenovo\AppData\Local\arduino\sketches\0A1F667BE7A1596EA767C94737D7EA1C\core\wirish\boards.cpp.o
systick_uptime_millis                             C:\Users\Lenovo\AppData\Local\arduino\cores\6384da0a6fa2f70a2504de7ae90f6808\core.a(i2c.c.o)
                                                  C:\Users\Lenovo\AppData\Local\arduino\cores\6384da0a6fa2f70a2504de7ae90f6808\core.a(wirish_time.cpp.o)
                                                  C:\Users\Lenovo\AppData\Local\arduino\cores\6384da0a6fa2f70a2504de7ae90f6808\core.a(systick.c.o)
                                                  C:\Users\Lenovo\AppData\Local\arduino\sketches\0A1F667BE7A1596EA767C94737D7EA1C\sketch\SevSeg.cpp.o
                                                  C:\Users\Lenovo\AppData\Local\arduino\sketches\0A1F667BE7A1596EA767C94737D7EA1C\sketch\Lavadora.ino.cpp.o
temperaturaBloqueada                              C:\Users\Lenovo\AppData\Local\arduino\sketches\0A1F667BE7A1596EA767C94737D7EA1C\sketch\Lavadora.ino.cpp.o
temperaturaSeleccionada                           C:\Users\Lenovo\AppData\Local\arduino\sketches\0A1F667BE7A1596EA767C94737D7EA1C\sketch\Lavadora.ino.cpp.o
throb                                             C:\Users\Lenovo\AppData\Local\arduino\cores\6384da0a6fa2f70a2504de7ae90f6808\core.a(util.c.o)
tiempoLavadoSeleccionado                          C:\Users\Lenovo\AppData\Local\arduino\sketches\0A1F667BE7A1596EA767C94737D7EA1C\sketch\Lavadora.ino.cpp.o
timer1                                            C:\Users\Lenovo\AppData\Local\arduino\cores\6384da0a6fa2f70a2504de7ae90f6808\core.a(timer.c.o)
                                                  C:\Users\Lenovo\AppData\Local\arduino\sketches\0A1F667BE7A1596EA767C94737D7EA1C\core\board.cpp.o
timer2                                            C:\Users\Lenovo\AppData\Local\arduino\cores\6384da0a6fa2f70a2504de7ae90f6808\core.a(timer.c.o)
                                                  C:\Users\Lenovo\AppData\Local\arduino\sketches\0A1F667BE7A1596EA767C94737D7EA1C\core\board.cpp.o
timer3                                            C:\Users\Lenovo\AppData\Local\arduino\cores\6384da0a6fa2f70a2504de7ae90f6808\core.a(timer.c.o)
                                                  C:\Users\Lenovo\AppData\Local\arduino\sketches\0A1F667BE7A1596EA767C94737D7EA1C\core\board.cpp.o
timer4                                            C:\Users\Lenovo\AppData\Local\arduino\cores\6384da0a6fa2f70a2504de7ae90f6808\core.a(timer.c.o)
                                                  C:\Users\Lenovo\AppData\Local\arduino\sketches\0A1F667BE7A1596EA767C94737D7EA1C\core\board.cpp.o
timer_attach_interrupt                            C:\Users\Lenovo\AppData\Local\arduino\cores\6384da0a6fa2f70a2504de7ae90f6808\core.a(timer.c.o)
timer_detach_interrupt                            C:\Users\Lenovo\AppData\Local\arduino\cores\6384da0a6fa2f70a2504de7ae90f6808\core.a(timer.c.o)
timer_disable                                     C:\Users\Lenovo\AppData\Local\arduino\cores\6384da0a6fa2f70a2504de7ae90f6808\core.a(timer.c.o)
timer_foreach                                     C:\Users\Lenovo\AppData\Local\arduino\cores\6384da0a6fa2f70a2504de7ae90f6808\core.a(timer.c.o)
                                                  C:\Users\Lenovo\AppData\Local\arduino\sketches\0A1F667BE7A1596EA767C94737D7EA1C\core\wirish\boards.cpp.o
timer_has_cc_channel                              C:\Users\Lenovo\AppData\Local\arduino\cores\6384da0a6fa2f70a2504de7ae90f6808\core.a(timer.c.o)
                                                  C:\Users\Lenovo\AppData\Local\arduino\sketches\0A1F667BE7A1596EA767C94737D7EA1C\core\wirish\boards.cpp.o
timer_init                                        C:\Users\Lenovo\AppData\Local\arduino\cores\6384da0a6fa2f70a2504de7ae90f6808\core.a(timer.c.o)
                                                  C:\Users\Lenovo\AppData\Local\arduino\sketches\0A1F667BE7A1596EA767C94737D7EA1C\core\wirish\boards.cpp.o
timer_set_mode                                    C:\Users\Lenovo\AppData\Local\arduino\cores\6384da0a6fa2f70a2504de7ae90f6808\core.a(timer.c.o)
                                                  C:\Users\Lenovo\AppData\Local\arduino\cores\6384da0a6fa2f70a2504de7ae90f6808\core.a(wirish_digital_f1.cpp.o)
                                                  C:\Users\Lenovo\AppData\Local\arduino\cores\6384da0a6fa2f70a2504de7ae90f6808\core.a(HardwareSerial.cpp.o)
tipoLavadoSeleccionado                            C:\Users\Lenovo\AppData\Local\arduino\sketches\0A1F667BE7A1596EA767C94737D7EA1C\sketch\Lavadora.ino.cpp.o
usart_config_gpios_async                          C:\Users\Lenovo\AppData\Local\arduino\cores\6384da0a6fa2f70a2504de7ae90f6808\core.a(usart_f1.c.o)
                                                  C:\Users\Lenovo\AppData\Local\arduino\cores\6384da0a6fa2f70a2504de7ae90f6808\core.a(HardwareSerial.cpp.o)
usart_disable                                     C:\Users\Lenovo\AppData\Local\arduino\cores\6384da0a6fa2f70a2504de7ae90f6808\core.a(usart.c.o)
                                                  C:\Users\Lenovo\AppData\Local\arduino\cores\6384da0a6fa2f70a2504de7ae90f6808\core.a(HardwareSerial.cpp.o)
usart_enable                                      C:\Users\Lenovo\AppData\Local\arduino\cores\6384da0a6fa2f70a2504de7ae90f6808\core.a(usart.c.o)
                                                  C:\Users\Lenovo\AppData\Local\arduino\cores\6384da0a6fa2f70a2504de7ae90f6808\core.a(HardwareSerial.cpp.o)
usart_foreach                                     C:\Users\Lenovo\AppData\Local\arduino\cores\6384da0a6fa2f70a2504de7ae90f6808\core.a(usart_f1.c.o)
usart_init                                        C:\Users\Lenovo\AppData\Local\arduino\cores\6384da0a6fa2f70a2504de7ae90f6808\core.a(usart.c.o)
                                                  C:\Users\Lenovo\AppData\Local\arduino\cores\6384da0a6fa2f70a2504de7ae90f6808\core.a(HardwareSerial.cpp.o)
usart_putudec                                     C:\Users\Lenovo\AppData\Local\arduino\cores\6384da0a6fa2f70a2504de7ae90f6808\core.a(usart.c.o)
                                                  C:\Users\Lenovo\AppData\Local\arduino\cores\6384da0a6fa2f70a2504de7ae90f6808\core.a(util.c.o)
usart_rx                                          C:\Users\Lenovo\AppData\Local\arduino\cores\6384da0a6fa2f70a2504de7ae90f6808\core.a(usart.c.o)
usart_set_baud_rate                               C:\Users\Lenovo\AppData\Local\arduino\cores\6384da0a6fa2f70a2504de7ae90f6808\core.a(usart_f1.c.o)
                                                  C:\Users\Lenovo\AppData\Local\arduino\cores\6384da0a6fa2f70a2504de7ae90f6808\core.a(HardwareSerial.cpp.o)
usart_tx                                          C:\Users\Lenovo\AppData\Local\arduino\cores\6384da0a6fa2f70a2504de7ae90f6808\core.a(usart.c.o)
                                                  C:\Users\Lenovo\AppData\Local\arduino\cores\6384da0a6fa2f70a2504de7ae90f6808\core.a(util.c.o)
                                                  C:\Users\Lenovo\AppData\Local\arduino\cores\6384da0a6fa2f70a2504de7ae90f6808\core.a(HardwareSerial.cpp.o)
usb_cdcacm_data_available                         C:\Users\Lenovo\AppData\Local\arduino\cores\6384da0a6fa2f70a2504de7ae90f6808\core.a(usb_cdcacm.c.o)
usb_cdcacm_disable                                C:\Users\Lenovo\AppData\Local\arduino\cores\6384da0a6fa2f70a2504de7ae90f6808\core.a(usb_cdcacm.c.o)
usb_cdcacm_enable                                 C:\Users\Lenovo\AppData\Local\arduino\cores\6384da0a6fa2f70a2504de7ae90f6808\core.a(usb_cdcacm.c.o)
usb_cdcacm_get_baud                               C:\Users\Lenovo\AppData\Local\arduino\cores\6384da0a6fa2f70a2504de7ae90f6808\core.a(usb_cdcacm.c.o)
usb_cdcacm_get_dtr                                C:\Users\Lenovo\AppData\Local\arduino\cores\6384da0a6fa2f70a2504de7ae90f6808\core.a(usb_cdcacm.c.o)
usb_cdcacm_get_line_coding                        C:\Users\Lenovo\AppData\Local\arduino\cores\6384da0a6fa2f70a2504de7ae90f6808\core.a(usb_cdcacm.c.o)
usb_cdcacm_get_n_data_bits                        C:\Users\Lenovo\AppData\Local\arduino\cores\6384da0a6fa2f70a2504de7ae90f6808\core.a(usb_cdcacm.c.o)
usb_cdcacm_get_parity                             C:\Users\Lenovo\AppData\Local\arduino\cores\6384da0a6fa2f70a2504de7ae90f6808\core.a(usb_cdcacm.c.o)
usb_cdcacm_get_pending                            C:\Users\Lenovo\AppData\Local\arduino\cores\6384da0a6fa2f70a2504de7ae90f6808\core.a(usb_cdcacm.c.o)
usb_cdcacm_get_rts                                C:\Users\Lenovo\AppData\Local\arduino\cores\6384da0a6fa2f70a2504de7ae90f6808\core.a(usb_cdcacm.c.o)
usb_cdcacm_get_stop_bits                          C:\Users\Lenovo\AppData\Local\arduino\cores\6384da0a6fa2f70a2504de7ae90f6808\core.a(usb_cdcacm.c.o)
usb_cdcacm_is_transmitting                        C:\Users\Lenovo\AppData\Local\arduino\cores\6384da0a6fa2f70a2504de7ae90f6808\core.a(usb_cdcacm.c.o)
usb_cdcacm_peek                                   C:\Users\Lenovo\AppData\Local\arduino\cores\6384da0a6fa2f70a2504de7ae90f6808\core.a(usb_cdcacm.c.o)
usb_cdcacm_peek_char                              C:\Users\Lenovo\AppData\Local\arduino\cores\6384da0a6fa2f70a2504de7ae90f6808\core.a(usb_cdcacm.c.o)
usb_cdcacm_peek_ex                                C:\Users\Lenovo\AppData\Local\arduino\cores\6384da0a6fa2f70a2504de7ae90f6808\core.a(usb_cdcacm.c.o)
usb_cdcacm_putc                                   C:\Users\Lenovo\AppData\Local\arduino\cores\6384da0a6fa2f70a2504de7ae90f6808\core.a(usb_cdcacm.c.o)
usb_cdcacm_rx                                     C:\Users\Lenovo\AppData\Local\arduino\cores\6384da0a6fa2f70a2504de7ae90f6808\core.a(usb_cdcacm.c.o)
usb_cdcacm_set_hooks                              C:\Users\Lenovo\AppData\Local\arduino\cores\6384da0a6fa2f70a2504de7ae90f6808\core.a(usb_cdcacm.c.o)
usb_cdcacm_tx                                     C:\Users\Lenovo\AppData\Local\arduino\cores\6384da0a6fa2f70a2504de7ae90f6808\core.a(usb_cdcacm.c.o)
usb_cdcacm_tx_available                           C:\Users\Lenovo\AppData\Local\arduino\cores\6384da0a6fa2f70a2504de7ae90f6808\core.a(usb_cdcacm.c.o)
usb_init_usblib                                   C:\Users\Lenovo\AppData\Local\arduino\cores\6384da0a6fa2f70a2504de7ae90f6808\core.a(usb.c.o)
                                                  C:\Users\Lenovo\AppData\Local\arduino\cores\6384da0a6fa2f70a2504de7ae90f6808\core.a(usb_cdcacm.c.o)
usb_power_off                                     C:\Users\Lenovo\AppData\Local\arduino\cores\6384da0a6fa2f70a2504de7ae90f6808\core.a(usb.c.o)
                                                  C:\Users\Lenovo\AppData\Local\arduino\cores\6384da0a6fa2f70a2504de7ae90f6808\core.a(usb_cdcacm.c.o)
usb_set_ep_rx_count                               C:\Users\Lenovo\AppData\Local\arduino\cores\6384da0a6fa2f70a2504de7ae90f6808\core.a(usb_reg_map.c.o)
                                                  C:\Users\Lenovo\AppData\Local\arduino\cores\6384da0a6fa2f70a2504de7ae90f6808\core.a(usb_cdcacm.c.o)
vtable for HardwareSerial                         C:\Users\Lenovo\AppData\Local\arduino\cores\6384da0a6fa2f70a2504de7ae90f6808\core.a(HardwareSerial.cpp.o)
vtable for Print                                  C:\Users\Lenovo\AppData\Local\arduino\cores\6384da0a6fa2f70a2504de7ae90f6808\core.a(Print.cpp.o)
vtable for Stream                                 C:\Users\Lenovo\AppData\Local\arduino\cores\6384da0a6fa2f70a2504de7ae90f6808\core.a(HardwareSerial.cpp.o)
wInterrupt_Mask                                   C:\Users\Lenovo\AppData\Local\arduino\cores\6384da0a6fa2f70a2504de7ae90f6808\core.a(usb_init.c.o)
wait_for_state_change                             C:\Users\Lenovo\AppData\Local\arduino\cores\6384da0a6fa2f70a2504de7ae90f6808\core.a(i2c.c.o)
wirish::priv::board_reset_pll()                   C:\Users\Lenovo\AppData\Local\arduino\sketches\0A1F667BE7A1596EA767C94737D7EA1C\core\wirish\boards_setup.cpp.o
                                                  C:\Users\Lenovo\AppData\Local\arduino\sketches\0A1F667BE7A1596EA767C94737D7EA1C\core\wirish\boards.cpp.o
wirish::priv::board_setup_clock_prescalers()      C:\Users\Lenovo\AppData\Local\arduino\sketches\0A1F667BE7A1596EA767C94737D7EA1C\core\wirish\boards_setup.cpp.o
                                                  C:\Users\Lenovo\AppData\Local\arduino\sketches\0A1F667BE7A1596EA767C94737D7EA1C\core\wirish\boards.cpp.o
wirish::priv::board_setup_gpio()                  C:\Users\Lenovo\AppData\Local\arduino\sketches\0A1F667BE7A1596EA767C94737D7EA1C\core\wirish\boards_setup.cpp.o
                                                  C:\Users\Lenovo\AppData\Local\arduino\sketches\0A1F667BE7A1596EA767C94737D7EA1C\core\wirish\boards.cpp.o
wirish::priv::board_setup_usb()                   C:\Users\Lenovo\AppData\Local\arduino\sketches\0A1F667BE7A1596EA767C94737D7EA1C\core\wirish\boards_setup.cpp.o
                                                  C:\Users\Lenovo\AppData\Local\arduino\sketches\0A1F667BE7A1596EA767C94737D7EA1C\core\wirish\boards.cpp.o
wirish::priv::series_init()                       C:\Users\Lenovo\AppData\Local\arduino\sketches\0A1F667BE7A1596EA767C94737D7EA1C\core\wirish\boards_setup.cpp.o
                                                  C:\Users\Lenovo\AppData\Local\arduino\sketches\0A1F667BE7A1596EA767C94737D7EA1C\core\wirish\boards.cpp.o
wirish::priv::w_adc_pre                           C:\Users\Lenovo\AppData\Local\arduino\sketches\0A1F667BE7A1596EA767C94737D7EA1C\core\wirish\boards_setup.cpp.o
                                                  C:\Users\Lenovo\AppData\Local\arduino\sketches\0A1F667BE7A1596EA767C94737D7EA1C\core\wirish\boards.cpp.o
wirish::priv::w_adc_smp                           C:\Users\Lenovo\AppData\Local\arduino\sketches\0A1F667BE7A1596EA767C94737D7EA1C\core\wirish\boards_setup.cpp.o
                                                  C:\Users\Lenovo\AppData\Local\arduino\sketches\0A1F667BE7A1596EA767C94737D7EA1C\core\wirish\boards.cpp.o
wirish::priv::w_board_pll_cfg                     C:\Users\Lenovo\AppData\Local\arduino\sketches\0A1F667BE7A1596EA767C94737D7EA1C\core\wirish\boards_setup.cpp.o
                                                  C:\Users\Lenovo\AppData\Local\arduino\sketches\0A1F667BE7A1596EA767C94737D7EA1C\core\wirish\boards.cpp.o
yield                                             C:\Users\Lenovo\AppData\Local\arduino\cores\6384da0a6fa2f70a2504de7ae90f6808\core.a(hooks.c.o)
                                                  C:\Users\Lenovo\AppData\Local\arduino\cores\6384da0a6fa2f70a2504de7ae90f6808\core.a(wirish_time.cpp.o)
