Archive member included because of file (symbol)

C:\Users\USER\AppData\Local\arduino\cores\7bf7b0ebd1cd5824297d9ecc843c1978\core.a(HardwareSerial.cpp.o)
                              C:\Users\USER\AppData\Local\arduino\sketches\452188ACB23955C2F3838071FEF76B93\core\board.cpp.o (HardwareSerial::HardwareSerial(usart_dev*, unsigned char, unsigned char))
C:\Users\USER\AppData\Local\arduino\cores\7bf7b0ebd1cd5824297d9ecc843c1978\core.a(Print.cpp.o)
                              C:\Users\USER\AppData\Local\arduino\cores\7bf7b0ebd1cd5824297d9ecc843c1978\core.a(HardwareSerial.cpp.o) (Print::write(void const*, unsigned long))
C:\Users\USER\AppData\Local\arduino\cores\7bf7b0ebd1cd5824297d9ecc843c1978\core.a(cxxabi-compat.cpp.o)
                              C:\Users\USER\AppData\Local\arduino\cores\7bf7b0ebd1cd5824297d9ecc843c1978\core.a(HardwareSerial.cpp.o) (__cxa_pure_virtual)
C:\Users\USER\AppData\Local\arduino\cores\7bf7b0ebd1cd5824297d9ecc843c1978\core.a(adc.c.o)
                              C:\Users\USER\AppData\Local\arduino\sketches\452188ACB23955C2F3838071FEF76B93\core\wirish\boards.cpp.o (adc_set_sample_rate)
C:\Users\USER\AppData\Local\arduino\cores\7bf7b0ebd1cd5824297d9ecc843c1978\core.a(adc_f1.c.o)
                              (__irq_adc)
C:\Users\USER\AppData\Local\arduino\cores\7bf7b0ebd1cd5824297d9ecc843c1978\core.a(dma_f1.c.o)
                              (__irq_dma1_channel1)
C:\Users\USER\AppData\Local\arduino\cores\7bf7b0ebd1cd5824297d9ecc843c1978\core.a(exc.S.o)
                              (__exc_nmi)
C:\Users\USER\AppData\Local\arduino\cores\7bf7b0ebd1cd5824297d9ecc843c1978\core.a(exti.c.o)
                              (__irq_exti0)
C:\Users\USER\AppData\Local\arduino\cores\7bf7b0ebd1cd5824297d9ecc843c1978\core.a(exti_f1.c.o)
                              C:\Users\USER\AppData\Local\arduino\cores\7bf7b0ebd1cd5824297d9ecc843c1978\core.a(exti.c.o) (exti_select)
C:\Users\USER\AppData\Local\arduino\cores\7bf7b0ebd1cd5824297d9ecc843c1978\core.a(flash.c.o)
                              C:\Users\USER\AppData\Local\arduino\sketches\452188ACB23955C2F3838071FEF76B93\core\wirish\boards.cpp.o (flash_set_latency)
C:\Users\USER\AppData\Local\arduino\cores\7bf7b0ebd1cd5824297d9ecc843c1978\core.a(gpio_f1.c.o)
                              C:\Users\USER\AppData\Local\arduino\sketches\452188ACB23955C2F3838071FEF76B93\core\wirish\boards_setup.cpp.o (gpio_init_all)
C:\Users\USER\AppData\Local\arduino\cores\7bf7b0ebd1cd5824297d9ecc843c1978\core.a(i2c_f1.c.o)
                              (__irq_i2c1_ev)
C:\Users\USER\AppData\Local\arduino\cores\7bf7b0ebd1cd5824297d9ecc843c1978\core.a(nvic.c.o)
                              C:\Users\USER\AppData\Local\arduino\cores\7bf7b0ebd1cd5824297d9ecc843c1978\core.a(i2c_f1.c.o) (nvic_irq_set_priority)
C:\Users\USER\AppData\Local\arduino\cores\7bf7b0ebd1cd5824297d9ecc843c1978\core.a(rcc.c.o)
                              C:\Users\USER\AppData\Local\arduino\sketches\452188ACB23955C2F3838071FEF76B93\core\wirish\boards.cpp.o (rcc_switch_sysclk)
C:\Users\USER\AppData\Local\arduino\cores\7bf7b0ebd1cd5824297d9ecc843c1978\core.a(rcc_f1.c.o)
                              C:\Users\USER\AppData\Local\arduino\sketches\452188ACB23955C2F3838071FEF76B93\core\wirish\boards.cpp.o (rcc_configure_pll)
C:\Users\USER\AppData\Local\arduino\cores\7bf7b0ebd1cd5824297d9ecc843c1978\core.a(isrs.S.o)
                              (__stm32reservedexception7)
C:\Users\USER\AppData\Local\arduino\cores\7bf7b0ebd1cd5824297d9ecc843c1978\core.a(vector_table.S.o)
                              (__stm32_vector_table)
C:\Users\USER\AppData\Local\arduino\cores\7bf7b0ebd1cd5824297d9ecc843c1978\core.a(systick.c.o)
                              C:\Users\USER\AppData\Local\arduino\sketches\452188ACB23955C2F3838071FEF76B93\core\wirish\boards.cpp.o (systick_init)
C:\Users\USER\AppData\Local\arduino\cores\7bf7b0ebd1cd5824297d9ecc843c1978\core.a(timer.c.o)
                              C:\Users\USER\AppData\Local\arduino\sketches\452188ACB23955C2F3838071FEF76B93\core\wirish\boards.cpp.o (timer_foreach)
C:\Users\USER\AppData\Local\arduino\cores\7bf7b0ebd1cd5824297d9ecc843c1978\core.a(usart.c.o)
                              C:\Users\USER\AppData\Local\arduino\cores\7bf7b0ebd1cd5824297d9ecc843c1978\core.a(HardwareSerial.cpp.o) (usart_init)
C:\Users\USER\AppData\Local\arduino\cores\7bf7b0ebd1cd5824297d9ecc843c1978\core.a(usart_f1.c.o)
                              C:\Users\USER\AppData\Local\arduino\cores\7bf7b0ebd1cd5824297d9ecc843c1978\core.a(HardwareSerial.cpp.o) (usart_config_gpios_async)
C:\Users\USER\AppData\Local\arduino\cores\7bf7b0ebd1cd5824297d9ecc843c1978\core.a(usart_private.c.o)
                              C:\Users\USER\AppData\Local\arduino\cores\7bf7b0ebd1cd5824297d9ecc843c1978\core.a(usart_f1.c.o) (_usart_clock_freq)
C:\Users\USER\AppData\Local\arduino\cores\7bf7b0ebd1cd5824297d9ecc843c1978\core.a(usb.c.o)
                              (__irq_usb_lp_can_rx0)
C:\Users\USER\AppData\Local\arduino\cores\7bf7b0ebd1cd5824297d9ecc843c1978\core.a(usb_cdcacm.c.o)
                              C:\Users\USER\AppData\Local\arduino\cores\7bf7b0ebd1cd5824297d9ecc843c1978\core.a(usb.c.o) (User_Standard_Requests)
C:\Users\USER\AppData\Local\arduino\cores\7bf7b0ebd1cd5824297d9ecc843c1978\core.a(usb_reg_map.c.o)
                              C:\Users\USER\AppData\Local\arduino\cores\7bf7b0ebd1cd5824297d9ecc843c1978\core.a(usb_cdcacm.c.o) (usb_set_ep_rx_count)
C:\Users\USER\AppData\Local\arduino\cores\7bf7b0ebd1cd5824297d9ecc843c1978\core.a(usb_core.c.o)
                              C:\Users\USER\AppData\Local\arduino\cores\7bf7b0ebd1cd5824297d9ecc843c1978\core.a(usb_cdcacm.c.o) (Standard_GetDescriptorData)
C:\Users\USER\AppData\Local\arduino\cores\7bf7b0ebd1cd5824297d9ecc843c1978\core.a(usb_init.c.o)
                              C:\Users\USER\AppData\Local\arduino\cores\7bf7b0ebd1cd5824297d9ecc843c1978\core.a(usb.c.o) (pInformation)
C:\Users\USER\AppData\Local\arduino\cores\7bf7b0ebd1cd5824297d9ecc843c1978\core.a(usb_mem.c.o)
                              C:\Users\USER\AppData\Local\arduino\cores\7bf7b0ebd1cd5824297d9ecc843c1978\core.a(usb_core.c.o) (UserToPMABufferCopy)
C:\Users\USER\AppData\Local\arduino\cores\7bf7b0ebd1cd5824297d9ecc843c1978\core.a(usb_regs.c.o)
                              C:\Users\USER\AppData\Local\arduino\cores\7bf7b0ebd1cd5824297d9ecc843c1978\core.a(usb_core.c.o) (SetEPTxStatus)
C:\Users\USER\AppData\Local\arduino\cores\7bf7b0ebd1cd5824297d9ecc843c1978\core.a(util.c.o)
                              C:\Users\USER\AppData\Local\arduino\cores\7bf7b0ebd1cd5824297d9ecc843c1978\core.a(exc.S.o) (__error)
C:\Users\USER\AppData\Local\arduino\cores\7bf7b0ebd1cd5824297d9ecc843c1978\core.a(main.cpp.o)
                              (main)
C:\Users\USER\AppData\Local\arduino\cores\7bf7b0ebd1cd5824297d9ecc843c1978\core.a(wirish_digital_f1.cpp.o)
                              C:\Users\USER\AppData\Local\arduino\sketches\452188ACB23955C2F3838071FEF76B93\sketch\Lavadora.ino.cpp.o (pinMode(unsigned char, WiringPinMode))
C:\Users\USER\AppData\Local\arduino\cores\7bf7b0ebd1cd5824297d9ecc843c1978\core.a(wirish_digital.cpp.o)
                              C:\Users\USER\AppData\Local\arduino\sketches\452188ACB23955C2F3838071FEF76B93\sketch\Lavadora.ino.cpp.o (digitalRead(unsigned char))
C:\Users\USER\AppData\Local\arduino\cores\7bf7b0ebd1cd5824297d9ecc843c1978\core.a(wirish_time.cpp.o)
                              C:\Users\USER\AppData\Local\arduino\sketches\452188ACB23955C2F3838071FEF76B93\sketch\SevSeg.cpp.o (delayMicroseconds)
C:\Users\USER\AppData\Local\arduino\cores\7bf7b0ebd1cd5824297d9ecc843c1978\core.a(hooks.c.o)
                              C:\Users\USER\AppData\Local\arduino\cores\7bf7b0ebd1cd5824297d9ecc843c1978\core.a(wirish_time.cpp.o) (yield)
C:\Users\USER\AppData\Local\arduino\cores\7bf7b0ebd1cd5824297d9ecc843c1978\core.a(dma.c.o)
                              C:\Users\USER\AppData\Local\arduino\cores\7bf7b0ebd1cd5824297d9ecc843c1978\core.a(dma_f1.c.o) (_dma_addr_type)
C:\Users\USER\AppData\Local\arduino\cores\7bf7b0ebd1cd5824297d9ecc843c1978\core.a(gpio.c.o)
                              C:\Users\USER\AppData\Local\arduino\cores\7bf7b0ebd1cd5824297d9ecc843c1978\core.a(gpio_f1.c.o) (gpio_init)
C:\Users\USER\AppData\Local\arduino\cores\7bf7b0ebd1cd5824297d9ecc843c1978\core.a(i2c.c.o)
                              C:\Users\USER\AppData\Local\arduino\cores\7bf7b0ebd1cd5824297d9ecc843c1978\core.a(i2c_f1.c.o) (_i2c_irq_handler)
c:/users/user/appdata/local/arduino15/packages/arduino/tools/arm-none-eabi-gcc/4.8.3-2014q1/bin/../lib/gcc/arm-none-eabi/4.8.3/armv7-m\libgcc.a(_arm_addsubdf3.o)
                              C:\Users\USER\AppData\Local\arduino\cores\7bf7b0ebd1cd5824297d9ecc843c1978\core.a(Print.cpp.o) (__aeabi_dsub)
c:/users/user/appdata/local/arduino15/packages/arduino/tools/arm-none-eabi-gcc/4.8.3-2014q1/bin/../lib/gcc/arm-none-eabi/4.8.3/armv7-m\libgcc.a(_arm_muldivdf3.o)
                              C:\Users\USER\AppData\Local\arduino\cores\7bf7b0ebd1cd5824297d9ecc843c1978\core.a(Print.cpp.o) (__aeabi_dmul)
c:/users/user/appdata/local/arduino15/packages/arduino/tools/arm-none-eabi-gcc/4.8.3-2014q1/bin/../lib/gcc/arm-none-eabi/4.8.3/armv7-m\libgcc.a(_arm_cmpdf2.o)
                              C:\Users\USER\AppData\Local\arduino\cores\7bf7b0ebd1cd5824297d9ecc843c1978\core.a(Print.cpp.o) (__aeabi_dcmplt)
c:/users/user/appdata/local/arduino15/packages/arduino/tools/arm-none-eabi-gcc/4.8.3-2014q1/bin/../lib/gcc/arm-none-eabi/4.8.3/armv7-m\libgcc.a(_arm_fixdfsi.o)
                              C:\Users\USER\AppData\Local\arduino\cores\7bf7b0ebd1cd5824297d9ecc843c1978\core.a(Print.cpp.o) (__aeabi_d2iz)
c:/users/user/appdata/local/arduino15/packages/arduino/tools/arm-none-eabi-gcc/4.8.3-2014q1/bin/../lib/gcc/arm-none-eabi/4.8.3/armv7-m\libgcc.a(_arm_addsubsf3.o)
                              C:\Users\USER\AppData\Local\arduino\sketches\452188ACB23955C2F3838071FEF76B93\sketch\SevSeg.cpp.o (__aeabi_fadd)
c:/users/user/appdata/local/arduino15/packages/arduino/tools/arm-none-eabi-gcc/4.8.3-2014q1/bin/../lib/gcc/arm-none-eabi/4.8.3/armv7-m\libgcc.a(_arm_muldivsf3.o)
                              C:\Users\USER\AppData\Local\arduino\sketches\452188ACB23955C2F3838071FEF76B93\sketch\SevSeg.cpp.o (__aeabi_fmul)
c:/users/user/appdata/local/arduino15/packages/arduino/tools/arm-none-eabi-gcc/4.8.3-2014q1/bin/../lib/gcc/arm-none-eabi/4.8.3/armv7-m\libgcc.a(_arm_cmpsf2.o)
                              C:\Users\USER\AppData\Local\arduino\sketches\452188ACB23955C2F3838071FEF76B93\sketch\SevSeg.cpp.o (__aeabi_fcmpge)
c:/users/user/appdata/local/arduino15/packages/arduino/tools/arm-none-eabi-gcc/4.8.3-2014q1/bin/../lib/gcc/arm-none-eabi/4.8.3/armv7-m\libgcc.a(_arm_fixsfsi.o)
                              C:\Users\USER\AppData\Local\arduino\sketches\452188ACB23955C2F3838071FEF76B93\sketch\SevSeg.cpp.o (__aeabi_f2iz)
c:/users/user/appdata/local/arduino15/packages/arduino/tools/arm-none-eabi-gcc/4.8.3-2014q1/bin/../lib/gcc/arm-none-eabi/4.8.3/armv7-m\libgcc.a(_aeabi_ldivmod.o)
                              C:\Users\USER\AppData\Local\arduino\sketches\452188ACB23955C2F3838071FEF76B93\sketch\SevSeg.cpp.o (__aeabi_ldivmod)
c:/users/user/appdata/local/arduino15/packages/arduino/tools/arm-none-eabi-gcc/4.8.3-2014q1/bin/../lib/gcc/arm-none-eabi/4.8.3/armv7-m\libgcc.a(_aeabi_uldivmod.o)
                              C:\Users\USER\AppData\Local\arduino\cores\7bf7b0ebd1cd5824297d9ecc843c1978\core.a(Print.cpp.o) (__aeabi_uldivmod)
c:/users/user/appdata/local/arduino15/packages/arduino/tools/arm-none-eabi-gcc/4.8.3-2014q1/bin/../lib/gcc/arm-none-eabi/4.8.3/armv7-m\libgcc.a(_fixdfdi.o)
                              C:\Users\USER\AppData\Local\arduino\cores\7bf7b0ebd1cd5824297d9ecc843c1978\core.a(Print.cpp.o) (__aeabi_d2lz)
c:/users/user/appdata/local/arduino15/packages/arduino/tools/arm-none-eabi-gcc/4.8.3-2014q1/bin/../lib/gcc/arm-none-eabi/4.8.3/armv7-m\libgcc.a(_fixunsdfdi.o)
                              c:/users/user/appdata/local/arduino15/packages/arduino/tools/arm-none-eabi-gcc/4.8.3-2014q1/bin/../lib/gcc/arm-none-eabi/4.8.3/armv7-m\libgcc.a(_fixdfdi.o) (__aeabi_d2ulz)
c:/users/user/appdata/local/arduino15/packages/arduino/tools/arm-none-eabi-gcc/4.8.3-2014q1/bin/../lib/gcc/arm-none-eabi/4.8.3/armv7-m\libgcc.a(bpabi.o)
                              c:/users/user/appdata/local/arduino15/packages/arduino/tools/arm-none-eabi-gcc/4.8.3-2014q1/bin/../lib/gcc/arm-none-eabi/4.8.3/armv7-m\libgcc.a(_aeabi_ldivmod.o) (__gnu_ldivmod_helper)
c:/users/user/appdata/local/arduino15/packages/arduino/tools/arm-none-eabi-gcc/4.8.3-2014q1/bin/../lib/gcc/arm-none-eabi/4.8.3/armv7-m\libgcc.a(_dvmd_tls.o)
                              c:/users/user/appdata/local/arduino15/packages/arduino/tools/arm-none-eabi-gcc/4.8.3-2014q1/bin/../lib/gcc/arm-none-eabi/4.8.3/armv7-m\libgcc.a(_aeabi_ldivmod.o) (__aeabi_ldiv0)
c:/users/user/appdata/local/arduino15/packages/arduino/tools/arm-none-eabi-gcc/4.8.3-2014q1/bin/../lib/gcc/arm-none-eabi/4.8.3/armv7-m\libgcc.a(_arm_fixunsdfsi.o)
                              c:/users/user/appdata/local/arduino15/packages/arduino/tools/arm-none-eabi-gcc/4.8.3-2014q1/bin/../lib/gcc/arm-none-eabi/4.8.3/armv7-m\libgcc.a(_fixunsdfdi.o) (__aeabi_d2uiz)
c:/users/user/appdata/local/arduino15/packages/arduino/tools/arm-none-eabi-gcc/4.8.3-2014q1/bin/../lib/gcc/arm-none-eabi/4.8.3/armv7-m\libgcc.a(_divdi3.o)
                              c:/users/user/appdata/local/arduino15/packages/arduino/tools/arm-none-eabi-gcc/4.8.3-2014q1/bin/../lib/gcc/arm-none-eabi/4.8.3/armv7-m\libgcc.a(bpabi.o) (__divdi3)
c:/users/user/appdata/local/arduino15/packages/arduino/tools/arm-none-eabi-gcc/4.8.3-2014q1/bin/../lib/gcc/arm-none-eabi/4.8.3/armv7-m\libgcc.a(_udivdi3.o)
                              c:/users/user/appdata/local/arduino15/packages/arduino/tools/arm-none-eabi-gcc/4.8.3-2014q1/bin/../lib/gcc/arm-none-eabi/4.8.3/armv7-m\libgcc.a(bpabi.o) (__udivdi3)
c:/users/user/appdata/local/arduino15/packages/arduino/tools/arm-none-eabi-gcc/4.8.3-2014q1/bin/../lib/gcc/arm-none-eabi/4.8.3/../../../../arm-none-eabi/lib/armv7-m\libc_s.a(lib_a-errno.o)
                              C:\Users\USER\AppData\Local\arduino\sketches\452188ACB23955C2F3838071FEF76B93\core\wirish\syscalls.c.o (__errno)
c:/users/user/appdata/local/arduino15/packages/arduino/tools/arm-none-eabi-gcc/4.8.3-2014q1/bin/../lib/gcc/arm-none-eabi/4.8.3/../../../../arm-none-eabi/lib/armv7-m\libc_s.a(lib_a-exit.o)
                              c:/users/user/appdata/local/arduino15/packages/arduino/tools/arm-none-eabi-gcc/4.8.3-2014q1/bin/../lib/gcc/arm-none-eabi/4.8.3/../../../../arm-none-eabi/lib/armv7-m/crt0.o (exit)
c:/users/user/appdata/local/arduino15/packages/arduino/tools/arm-none-eabi-gcc/4.8.3-2014q1/bin/../lib/gcc/arm-none-eabi/4.8.3/../../../../arm-none-eabi/lib/armv7-m\libc_s.a(lib_a-impure.o)
                              c:/users/user/appdata/local/arduino15/packages/arduino/tools/arm-none-eabi-gcc/4.8.3-2014q1/bin/../lib/gcc/arm-none-eabi/4.8.3/../../../../arm-none-eabi/lib/armv7-m\libc_s.a(lib_a-exit.o) (_global_impure_ptr)
c:/users/user/appdata/local/arduino15/packages/arduino/tools/arm-none-eabi-gcc/4.8.3-2014q1/bin/../lib/gcc/arm-none-eabi/4.8.3/../../../../arm-none-eabi/lib/armv7-m\libc_s.a(lib_a-init.o)
                              c:/users/user/appdata/local/arduino15/packages/arduino/tools/arm-none-eabi-gcc/4.8.3-2014q1/bin/../lib/gcc/arm-none-eabi/4.8.3/../../../../arm-none-eabi/lib/armv7-m/crt0.o (__libc_init_array)
c:/users/user/appdata/local/arduino15/packages/arduino/tools/arm-none-eabi-gcc/4.8.3-2014q1/bin/../lib/gcc/arm-none-eabi/4.8.3/../../../../arm-none-eabi/lib/armv7-m\libc_s.a(lib_a-memcpy-stub.o)
                              C:\Users\USER\AppData\Local\arduino\sketches\452188ACB23955C2F3838071FEF76B93\sketch\Lavadora.ino.cpp.o (memcpy)
c:/users/user/appdata/local/arduino15/packages/arduino/tools/arm-none-eabi-gcc/4.8.3-2014q1/bin/../lib/gcc/arm-none-eabi/4.8.3/../../../../arm-none-eabi/lib/armv7-m\libc_s.a(lib_a-memset.o)
                              c:/users/user/appdata/local/arduino15/packages/arduino/tools/arm-none-eabi-gcc/4.8.3-2014q1/bin/../lib/gcc/arm-none-eabi/4.8.3/../../../../arm-none-eabi/lib/armv7-m/crt0.o (memset)
c:/users/user/appdata/local/arduino15/packages/arduino/tools/arm-none-eabi-gcc/4.8.3-2014q1/bin/../lib/gcc/arm-none-eabi/4.8.3/../../../../arm-none-eabi/lib/armv7-m\libc_s.a(lib_a-strcpy.o)
                              C:\Users\USER\AppData\Local\arduino\cores\7bf7b0ebd1cd5824297d9ecc843c1978\core.a(cxxabi-compat.cpp.o) (strcpy)
c:/users/user/appdata/local/arduino15/packages/arduino/tools/arm-none-eabi-gcc/4.8.3-2014q1/bin/../lib/gcc/arm-none-eabi/4.8.3/../../../../arm-none-eabi/lib/armv7-m\libc_s.a(lib_a-strlen.o)
                              C:\Users\USER\AppData\Local\arduino\cores\7bf7b0ebd1cd5824297d9ecc843c1978\core.a(Print.cpp.o) (strlen)

Allocating common symbols
Common symbol       size              file

SaveRState          0x2               C:\Users\USER\AppData\Local\arduino\cores\7bf7b0ebd1cd5824297d9ecc843c1978\core.a(usb.c.o)
SaveState           0x2               C:\Users\USER\AppData\Local\arduino\cores\7bf7b0ebd1cd5824297d9ecc843c1978\core.a(usb_init.c.o)
pProperty           0x4               C:\Users\USER\AppData\Local\arduino\cores\7bf7b0ebd1cd5824297d9ecc843c1978\core.a(usb_init.c.o)
EPindex             0x1               C:\Users\USER\AppData\Local\arduino\cores\7bf7b0ebd1cd5824297d9ecc843c1978\core.a(usb_init.c.o)
SaveTState          0x2               C:\Users\USER\AppData\Local\arduino\cores\7bf7b0ebd1cd5824297d9ecc843c1978\core.a(usb.c.o)
systick_uptime_millis
                    0x4               C:\Users\USER\AppData\Local\arduino\cores\7bf7b0ebd1cd5824297d9ecc843c1978\core.a(systick.c.o)
Device_Info         0x1c              C:\Users\USER\AppData\Local\arduino\cores\7bf7b0ebd1cd5824297d9ecc843c1978\core.a(usb_init.c.o)
pUser_Standard_Requests
                    0x4               C:\Users\USER\AppData\Local\arduino\cores\7bf7b0ebd1cd5824297d9ecc843c1978\core.a(usb_init.c.o)
StatusInfo          0x2               C:\Users\USER\AppData\Local\arduino\cores\7bf7b0ebd1cd5824297d9ecc843c1978\core.a(usb_core.c.o)
pInformation        0x4               C:\Users\USER\AppData\Local\arduino\cores\7bf7b0ebd1cd5824297d9ecc843c1978\core.a(usb_init.c.o)
ResumeS             0x2               C:\Users\USER\AppData\Local\arduino\cores\7bf7b0ebd1cd5824297d9ecc843c1978\core.a(usb.c.o)
wInterrupt_Mask     0x2               C:\Users\USER\AppData\Local\arduino\cores\7bf7b0ebd1cd5824297d9ecc843c1978\core.a(usb_init.c.o)

Discarded input sections

 .text          0x00000000        0x0 c:/users/user/appdata/local/arduino15/packages/arduino/tools/arm-none-eabi-gcc/4.8.3-2014q1/bin/../lib/gcc/arm-none-eabi/4.8.3/armv7-m/crti.o
 .data          0x00000000        0x0 c:/users/user/appdata/local/arduino15/packages/arduino/tools/arm-none-eabi-gcc/4.8.3-2014q1/bin/../lib/gcc/arm-none-eabi/4.8.3/armv7-m/crti.o
 .bss           0x00000000        0x0 c:/users/user/appdata/local/arduino15/packages/arduino/tools/arm-none-eabi-gcc/4.8.3-2014q1/bin/../lib/gcc/arm-none-eabi/4.8.3/armv7-m/crti.o
 .data          0x00000000        0x4 c:/users/user/appdata/local/arduino15/packages/arduino/tools/arm-none-eabi-gcc/4.8.3-2014q1/bin/../lib/gcc/arm-none-eabi/4.8.3/armv7-m/crtbegin.o
 .text          0x00000000       0x74 c:/users/user/appdata/local/arduino15/packages/arduino/tools/arm-none-eabi-gcc/4.8.3-2014q1/bin/../lib/gcc/arm-none-eabi/4.8.3/../../../../arm-none-eabi/lib/armv7-m/crt0.o
 .data          0x00000000        0x0 c:/users/user/appdata/local/arduino15/packages/arduino/tools/arm-none-eabi-gcc/4.8.3-2014q1/bin/../lib/gcc/arm-none-eabi/4.8.3/../../../../arm-none-eabi/lib/armv7-m/crt0.o
 .bss           0x00000000        0x0 c:/users/user/appdata/local/arduino15/packages/arduino/tools/arm-none-eabi-gcc/4.8.3-2014q1/bin/../lib/gcc/arm-none-eabi/4.8.3/../../../../arm-none-eabi/lib/armv7-m/crt0.o
 .ARM.extab     0x00000000        0x0 c:/users/user/appdata/local/arduino15/packages/arduino/tools/arm-none-eabi-gcc/4.8.3-2014q1/bin/../lib/gcc/arm-none-eabi/4.8.3/../../../../arm-none-eabi/lib/armv7-m/crt0.o
 .ARM.exidx     0x00000000        0x8 c:/users/user/appdata/local/arduino15/packages/arduino/tools/arm-none-eabi-gcc/4.8.3-2014q1/bin/../lib/gcc/arm-none-eabi/4.8.3/../../../../arm-none-eabi/lib/armv7-m/crt0.o
 .text          0x00000000        0x0 C:\Users\USER\AppData\Local\arduino\sketches\452188ACB23955C2F3838071FEF76B93\sketch\Lavadora.ino.cpp.o
 .data          0x00000000        0x0 C:\Users\USER\AppData\Local\arduino\sketches\452188ACB23955C2F3838071FEF76B93\sketch\Lavadora.ino.cpp.o
 .bss           0x00000000        0x0 C:\Users\USER\AppData\Local\arduino\sketches\452188ACB23955C2F3838071FEF76B93\sketch\Lavadora.ino.cpp.o
 .bss.lastDebounceTimeNivelAgua
                0x00000000        0x4 C:\Users\USER\AppData\Local\arduino\sketches\452188ACB23955C2F3838071FEF76B93\sketch\Lavadora.ino.cpp.o
 .bss.lastDebounceTimeLavado
                0x00000000        0x4 C:\Users\USER\AppData\Local\arduino\sketches\452188ACB23955C2F3838071FEF76B93\sketch\Lavadora.ino.cpp.o
 .bss.lastDebounceTimeCentrifugado
                0x00000000        0x4 C:\Users\USER\AppData\Local\arduino\sketches\452188ACB23955C2F3838071FEF76B93\sketch\Lavadora.ino.cpp.o
 .bss.lastDebounceTimeEnjuague
                0x00000000        0x4 C:\Users\USER\AppData\Local\arduino\sketches\452188ACB23955C2F3838071FEF76B93\sketch\Lavadora.ino.cpp.o
 .text          0x00000000        0x0 C:\Users\USER\AppData\Local\arduino\sketches\452188ACB23955C2F3838071FEF76B93\sketch\SevSeg.cpp.o
 .data          0x00000000        0x0 C:\Users\USER\AppData\Local\arduino\sketches\452188ACB23955C2F3838071FEF76B93\sketch\SevSeg.cpp.o
 .bss           0x00000000        0x0 C:\Users\USER\AppData\Local\arduino\sketches\452188ACB23955C2F3838071FEF76B93\sketch\SevSeg.cpp.o
 .text._ZN6SevSeg11setSegmentsEPKh
                0x00000000       0x18 C:\Users\USER\AppData\Local\arduino\sketches\452188ACB23955C2F3838071FEF76B93\sketch\SevSeg.cpp.o
 .text._ZN6SevSeg16setSegmentsDigitEhh
                0x00000000        0xc C:\Users\USER\AppData\Local\arduino\sketches\452188ACB23955C2F3838071FEF76B93\sketch\SevSeg.cpp.o
 .text._ZN6SevSeg11getSegmentsEPh
                0x00000000       0x1a C:\Users\USER\AppData\Local\arduino\sketches\452188ACB23955C2F3838071FEF76B93\sketch\SevSeg.cpp.o
 .text._ZN6SevSeg10setNumberFEfab
                0x00000000       0x64 C:\Users\USER\AppData\Local\arduino\sketches\452188ACB23955C2F3838071FEF76B93\sketch\SevSeg.cpp.o
 .text          0x00000000        0x0 C:\Users\USER\AppData\Local\arduino\sketches\452188ACB23955C2F3838071FEF76B93\core\board.cpp.o
 .data          0x00000000        0x0 C:\Users\USER\AppData\Local\arduino\sketches\452188ACB23955C2F3838071FEF76B93\core\board.cpp.o
 .bss           0x00000000        0x0 C:\Users\USER\AppData\Local\arduino\sketches\452188ACB23955C2F3838071FEF76B93\core\board.cpp.o
 .USER_FLASH    0x00000000       0x1d C:\Users\USER\AppData\Local\arduino\sketches\452188ACB23955C2F3838071FEF76B93\core\board.cpp.o
 .text          0x00000000        0x0 C:\Users\USER\AppData\Local\arduino\sketches\452188ACB23955C2F3838071FEF76B93\core\wirish\boards.cpp.o
 .data          0x00000000        0x0 C:\Users\USER\AppData\Local\arduino\sketches\452188ACB23955C2F3838071FEF76B93\core\wirish\boards.cpp.o
 .bss           0x00000000        0x0 C:\Users\USER\AppData\Local\arduino\sketches\452188ACB23955C2F3838071FEF76B93\core\wirish\boards.cpp.o
 .text._Z9boardInitv
                0x00000000        0x2 C:\Users\USER\AppData\Local\arduino\sketches\452188ACB23955C2F3838071FEF76B93\core\wirish\boards.cpp.o
 .text._Z12boardUsesPinh
                0x00000000       0x1c C:\Users\USER\AppData\Local\arduino\sketches\452188ACB23955C2F3838071FEF76B93\core\wirish\boards.cpp.o
 .text          0x00000000        0x0 C:\Users\USER\AppData\Local\arduino\sketches\452188ACB23955C2F3838071FEF76B93\core\wirish\boards_setup.cpp.o
 .data          0x00000000        0x0 C:\Users\USER\AppData\Local\arduino\sketches\452188ACB23955C2F3838071FEF76B93\core\wirish\boards_setup.cpp.o
 .bss           0x00000000        0x0 C:\Users\USER\AppData\Local\arduino\sketches\452188ACB23955C2F3838071FEF76B93\core\wirish\boards_setup.cpp.o
 .data          0x00000000        0x0 C:\Users\USER\AppData\Local\arduino\sketches\452188ACB23955C2F3838071FEF76B93\core\wirish\start.S.o
 .bss           0x00000000        0x0 C:\Users\USER\AppData\Local\arduino\sketches\452188ACB23955C2F3838071FEF76B93\core\wirish\start.S.o
 .ARM.extab     0x00000000        0x0 C:\Users\USER\AppData\Local\arduino\sketches\452188ACB23955C2F3838071FEF76B93\core\wirish\start.S.o
 .text          0x00000000        0x0 C:\Users\USER\AppData\Local\arduino\sketches\452188ACB23955C2F3838071FEF76B93\core\wirish\start_c.c.o
 .data          0x00000000        0x0 C:\Users\USER\AppData\Local\arduino\sketches\452188ACB23955C2F3838071FEF76B93\core\wirish\start_c.c.o
 .bss           0x00000000        0x0 C:\Users\USER\AppData\Local\arduino\sketches\452188ACB23955C2F3838071FEF76B93\core\wirish\start_c.c.o
 .text          0x00000000        0x0 C:\Users\USER\AppData\Local\arduino\sketches\452188ACB23955C2F3838071FEF76B93\core\wirish\syscalls.c.o
 .data          0x00000000        0x0 C:\Users\USER\AppData\Local\arduino\sketches\452188ACB23955C2F3838071FEF76B93\core\wirish\syscalls.c.o
 .bss           0x00000000        0x0 C:\Users\USER\AppData\Local\arduino\sketches\452188ACB23955C2F3838071FEF76B93\core\wirish\syscalls.c.o
 .text._sbrk    0x00000000       0x44 C:\Users\USER\AppData\Local\arduino\sketches\452188ACB23955C2F3838071FEF76B93\core\wirish\syscalls.c.o
 .text._open    0x00000000        0x8 C:\Users\USER\AppData\Local\arduino\sketches\452188ACB23955C2F3838071FEF76B93\core\wirish\syscalls.c.o
 .text._close   0x00000000        0x4 C:\Users\USER\AppData\Local\arduino\sketches\452188ACB23955C2F3838071FEF76B93\core\wirish\syscalls.c.o
 .text._fstat   0x00000000        0xa C:\Users\USER\AppData\Local\arduino\sketches\452188ACB23955C2F3838071FEF76B93\core\wirish\syscalls.c.o
 .text._isatty  0x00000000        0x4 C:\Users\USER\AppData\Local\arduino\sketches\452188ACB23955C2F3838071FEF76B93\core\wirish\syscalls.c.o
 .text.isatty   0x00000000        0x4 C:\Users\USER\AppData\Local\arduino\sketches\452188ACB23955C2F3838071FEF76B93\core\wirish\syscalls.c.o
 .text._lseek   0x00000000        0x6 C:\Users\USER\AppData\Local\arduino\sketches\452188ACB23955C2F3838071FEF76B93\core\wirish\syscalls.c.o
 .text.getch    0x00000000        0x4 C:\Users\USER\AppData\Local\arduino\sketches\452188ACB23955C2F3838071FEF76B93\core\wirish\syscalls.c.o
 .text._read    0x00000000        0xe C:\Users\USER\AppData\Local\arduino\sketches\452188ACB23955C2F3838071FEF76B93\core\wirish\syscalls.c.o
 .text.putch    0x00000000        0x2 C:\Users\USER\AppData\Local\arduino\sketches\452188ACB23955C2F3838071FEF76B93\core\wirish\syscalls.c.o
 .text.cgets    0x00000000       0x78 C:\Users\USER\AppData\Local\arduino\sketches\452188ACB23955C2F3838071FEF76B93\core\wirish\syscalls.c.o
 .text._write   0x00000000       0x1a C:\Users\USER\AppData\Local\arduino\sketches\452188ACB23955C2F3838071FEF76B93\core\wirish\syscalls.c.o
 .text.fgets    0x00000000        0xc C:\Users\USER\AppData\Local\arduino\sketches\452188ACB23955C2F3838071FEF76B93\core\wirish\syscalls.c.o
 .bss.pbreak.4444
                0x00000000        0x4 C:\Users\USER\AppData\Local\arduino\sketches\452188ACB23955C2F3838071FEF76B93\core\wirish\syscalls.c.o
 .group         0x00000000        0x8 C:\Users\USER\AppData\Local\arduino\cores\7bf7b0ebd1cd5824297d9ecc843c1978\core.a(HardwareSerial.cpp.o)
 .text          0x00000000        0x0 C:\Users\USER\AppData\Local\arduino\cores\7bf7b0ebd1cd5824297d9ecc843c1978\core.a(HardwareSerial.cpp.o)
 .data          0x00000000        0x0 C:\Users\USER\AppData\Local\arduino\cores\7bf7b0ebd1cd5824297d9ecc843c1978\core.a(HardwareSerial.cpp.o)
 .bss           0x00000000        0x0 C:\Users\USER\AppData\Local\arduino\cores\7bf7b0ebd1cd5824297d9ecc843c1978\core.a(HardwareSerial.cpp.o)
 .text._ZN14HardwareSerial5beginEmh
                0x00000000       0x78 C:\Users\USER\AppData\Local\arduino\cores\7bf7b0ebd1cd5824297d9ecc843c1978\core.a(HardwareSerial.cpp.o)
 .text._ZN14HardwareSerial5beginEm
                0x00000000        0x6 C:\Users\USER\AppData\Local\arduino\cores\7bf7b0ebd1cd5824297d9ecc843c1978\core.a(HardwareSerial.cpp.o)
 .text._ZN14HardwareSerial3endEv
                0x00000000        0x6 C:\Users\USER\AppData\Local\arduino\cores\7bf7b0ebd1cd5824297d9ecc843c1978\core.a(HardwareSerial.cpp.o)
 .text._ZN14HardwareSerial17availableForWriteEv
                0x00000000       0x12 C:\Users\USER\AppData\Local\arduino\cores\7bf7b0ebd1cd5824297d9ecc843c1978\core.a(HardwareSerial.cpp.o)
 .rodata._ZTV6Stream
                0x00000000       0x28 C:\Users\USER\AppData\Local\arduino\cores\7bf7b0ebd1cd5824297d9ecc843c1978\core.a(HardwareSerial.cpp.o)
 .text          0x00000000        0x0 C:\Users\USER\AppData\Local\arduino\cores\7bf7b0ebd1cd5824297d9ecc843c1978\core.a(Print.cpp.o)
 .data          0x00000000        0x0 C:\Users\USER\AppData\Local\arduino\cores\7bf7b0ebd1cd5824297d9ecc843c1978\core.a(Print.cpp.o)
 .bss           0x00000000        0x0 C:\Users\USER\AppData\Local\arduino\cores\7bf7b0ebd1cd5824297d9ecc843c1978\core.a(Print.cpp.o)
 .text._ZN5Print5printERK6String
                0x00000000       0x10 C:\Users\USER\AppData\Local\arduino\cores\7bf7b0ebd1cd5824297d9ecc843c1978\core.a(Print.cpp.o)
 .text._ZN5Print5printEc
                0x00000000        0xa C:\Users\USER\AppData\Local\arduino\cores\7bf7b0ebd1cd5824297d9ecc843c1978\core.a(Print.cpp.o)
 .text._ZN5Print5printEPKc
                0x00000000        0xa C:\Users\USER\AppData\Local\arduino\cores\7bf7b0ebd1cd5824297d9ecc843c1978\core.a(Print.cpp.o)
 .text._ZN5Print5printEPK19__FlashStringHelper
                0x00000000        0x4 C:\Users\USER\AppData\Local\arduino\cores\7bf7b0ebd1cd5824297d9ecc843c1978\core.a(Print.cpp.o)
 .text._ZN5Print5printERK9Printable
                0x00000000       0x10 C:\Users\USER\AppData\Local\arduino\cores\7bf7b0ebd1cd5824297d9ecc843c1978\core.a(Print.cpp.o)
 .text._ZN5Print7printlnEv
                0x00000000       0x18 C:\Users\USER\AppData\Local\arduino\cores\7bf7b0ebd1cd5824297d9ecc843c1978\core.a(Print.cpp.o)
 .text._ZN5Print7printlnERK6String
                0x00000000       0x14 C:\Users\USER\AppData\Local\arduino\cores\7bf7b0ebd1cd5824297d9ecc843c1978\core.a(Print.cpp.o)
 .text._ZN5Print7printlnEc
                0x00000000       0x14 C:\Users\USER\AppData\Local\arduino\cores\7bf7b0ebd1cd5824297d9ecc843c1978\core.a(Print.cpp.o)
 .text._ZN5Print7printlnEPKc
                0x00000000       0x14 C:\Users\USER\AppData\Local\arduino\cores\7bf7b0ebd1cd5824297d9ecc843c1978\core.a(Print.cpp.o)
 .text._ZN5Print7printlnEPK19__FlashStringHelper
                0x00000000       0x14 C:\Users\USER\AppData\Local\arduino\cores\7bf7b0ebd1cd5824297d9ecc843c1978\core.a(Print.cpp.o)
 .text._ZN5Print7printlnERK9Printable
                0x00000000       0x14 C:\Users\USER\AppData\Local\arduino\cores\7bf7b0ebd1cd5824297d9ecc843c1978\core.a(Print.cpp.o)
 .text._ZN5Print11printNumberEyh
                0x00000000       0x84 C:\Users\USER\AppData\Local\arduino\cores\7bf7b0ebd1cd5824297d9ecc843c1978\core.a(Print.cpp.o)
 .text._ZN5Print5printExi
                0x00000000       0x32 C:\Users\USER\AppData\Local\arduino\cores\7bf7b0ebd1cd5824297d9ecc843c1978\core.a(Print.cpp.o)
 .text._ZN5Print5printEii
                0x00000000       0x12 C:\Users\USER\AppData\Local\arduino\cores\7bf7b0ebd1cd5824297d9ecc843c1978\core.a(Print.cpp.o)
 .text._ZN5Print7printlnEii
                0x00000000       0x14 C:\Users\USER\AppData\Local\arduino\cores\7bf7b0ebd1cd5824297d9ecc843c1978\core.a(Print.cpp.o)
 .text._ZN5Print5printEli
                0x00000000       0x12 C:\Users\USER\AppData\Local\arduino\cores\7bf7b0ebd1cd5824297d9ecc843c1978\core.a(Print.cpp.o)
 .text._ZN5Print7printlnEli
                0x00000000       0x1c C:\Users\USER\AppData\Local\arduino\cores\7bf7b0ebd1cd5824297d9ecc843c1978\core.a(Print.cpp.o)
 .text._ZN5Print7printlnExi
                0x00000000       0x1a C:\Users\USER\AppData\Local\arduino\cores\7bf7b0ebd1cd5824297d9ecc843c1978\core.a(Print.cpp.o)
 .text._ZN5Print5printEyi
                0x00000000        0xa C:\Users\USER\AppData\Local\arduino\cores\7bf7b0ebd1cd5824297d9ecc843c1978\core.a(Print.cpp.o)
 .text._ZN5Print5printEhi
                0x00000000       0x14 C:\Users\USER\AppData\Local\arduino\cores\7bf7b0ebd1cd5824297d9ecc843c1978\core.a(Print.cpp.o)
 .text._ZN5Print7printlnEhi
                0x00000000       0x14 C:\Users\USER\AppData\Local\arduino\cores\7bf7b0ebd1cd5824297d9ecc843c1978\core.a(Print.cpp.o)
 .text._ZN5Print5printEji
                0x00000000       0x14 C:\Users\USER\AppData\Local\arduino\cores\7bf7b0ebd1cd5824297d9ecc843c1978\core.a(Print.cpp.o)
 .text._ZN5Print7printlnEji
                0x00000000       0x14 C:\Users\USER\AppData\Local\arduino\cores\7bf7b0ebd1cd5824297d9ecc843c1978\core.a(Print.cpp.o)
 .text._ZN5Print5printEmi
                0x00000000       0x14 C:\Users\USER\AppData\Local\arduino\cores\7bf7b0ebd1cd5824297d9ecc843c1978\core.a(Print.cpp.o)
 .text._ZN5Print7printlnEmi
                0x00000000       0x1e C:\Users\USER\AppData\Local\arduino\cores\7bf7b0ebd1cd5824297d9ecc843c1978\core.a(Print.cpp.o)
 .text._ZN5Print7printlnEyi
                0x00000000       0x1c C:\Users\USER\AppData\Local\arduino\cores\7bf7b0ebd1cd5824297d9ecc843c1978\core.a(Print.cpp.o)
 .text._ZN5Print10printFloatEdh
                0x00000000      0x158 C:\Users\USER\AppData\Local\arduino\cores\7bf7b0ebd1cd5824297d9ecc843c1978\core.a(Print.cpp.o)
 .text._ZN5Print5printEdi
                0x00000000        0xa C:\Users\USER\AppData\Local\arduino\cores\7bf7b0ebd1cd5824297d9ecc843c1978\core.a(Print.cpp.o)
 .text._ZN5Print7printlnEdi
                0x00000000       0x1c C:\Users\USER\AppData\Local\arduino\cores\7bf7b0ebd1cd5824297d9ecc843c1978\core.a(Print.cpp.o)
 .rodata._ZTV5Print
                0x00000000       0x18 C:\Users\USER\AppData\Local\arduino\cores\7bf7b0ebd1cd5824297d9ecc843c1978\core.a(Print.cpp.o)
 .rodata.str1.1
                0x00000000       0x11 C:\Users\USER\AppData\Local\arduino\cores\7bf7b0ebd1cd5824297d9ecc843c1978\core.a(Print.cpp.o)
 .text          0x00000000        0x0 C:\Users\USER\AppData\Local\arduino\cores\7bf7b0ebd1cd5824297d9ecc843c1978\core.a(cxxabi-compat.cpp.o)
 .data          0x00000000        0x0 C:\Users\USER\AppData\Local\arduino\cores\7bf7b0ebd1cd5824297d9ecc843c1978\core.a(cxxabi-compat.cpp.o)
 .bss           0x00000000        0x0 C:\Users\USER\AppData\Local\arduino\cores\7bf7b0ebd1cd5824297d9ecc843c1978\core.a(cxxabi-compat.cpp.o)
 .text.__cxa_pure_virtual
                0x00000000        0x2 C:\Users\USER\AppData\Local\arduino\cores\7bf7b0ebd1cd5824297d9ecc843c1978\core.a(cxxabi-compat.cpp.o)
 .text.__cxa_demangle
                0x00000000        0xc C:\Users\USER\AppData\Local\arduino\cores\7bf7b0ebd1cd5824297d9ecc843c1978\core.a(cxxabi-compat.cpp.o)
 .text          0x00000000        0x0 C:\Users\USER\AppData\Local\arduino\cores\7bf7b0ebd1cd5824297d9ecc843c1978\core.a(adc.c.o)
 .data          0x00000000        0x0 C:\Users\USER\AppData\Local\arduino\cores\7bf7b0ebd1cd5824297d9ecc843c1978\core.a(adc.c.o)
 .bss           0x00000000        0x0 C:\Users\USER\AppData\Local\arduino\cores\7bf7b0ebd1cd5824297d9ecc843c1978\core.a(adc.c.o)
 .text.adc_read
                0x00000000       0x20 C:\Users\USER\AppData\Local\arduino\cores\7bf7b0ebd1cd5824297d9ecc843c1978\core.a(adc.c.o)
 .text          0x00000000        0x0 C:\Users\USER\AppData\Local\arduino\cores\7bf7b0ebd1cd5824297d9ecc843c1978\core.a(adc_f1.c.o)
 .data          0x00000000        0x0 C:\Users\USER\AppData\Local\arduino\cores\7bf7b0ebd1cd5824297d9ecc843c1978\core.a(adc_f1.c.o)
 .bss           0x00000000        0x0 C:\Users\USER\AppData\Local\arduino\cores\7bf7b0ebd1cd5824297d9ecc843c1978\core.a(adc_f1.c.o)
 .text.adc_enable_irq
                0x00000000       0x30 C:\Users\USER\AppData\Local\arduino\cores\7bf7b0ebd1cd5824297d9ecc843c1978\core.a(adc_f1.c.o)
 .text.adc_attach_interrupt
                0x00000000        0xa C:\Users\USER\AppData\Local\arduino\cores\7bf7b0ebd1cd5824297d9ecc843c1978\core.a(adc_f1.c.o)
 .text.adc_config_gpio
                0x00000000        0xa C:\Users\USER\AppData\Local\arduino\cores\7bf7b0ebd1cd5824297d9ecc843c1978\core.a(adc_f1.c.o)
 .text          0x00000000        0x0 C:\Users\USER\AppData\Local\arduino\cores\7bf7b0ebd1cd5824297d9ecc843c1978\core.a(dma_f1.c.o)
 .data          0x00000000        0x0 C:\Users\USER\AppData\Local\arduino\cores\7bf7b0ebd1cd5824297d9ecc843c1978\core.a(dma_f1.c.o)
 .bss           0x00000000        0x0 C:\Users\USER\AppData\Local\arduino\cores\7bf7b0ebd1cd5824297d9ecc843c1978\core.a(dma_f1.c.o)
 .text.dma_set_priority
                0x00000000       0x18 C:\Users\USER\AppData\Local\arduino\cores\7bf7b0ebd1cd5824297d9ecc843c1978\core.a(dma_f1.c.o)
 .text.dma_set_num_transfers
                0x00000000       0x10 C:\Users\USER\AppData\Local\arduino\cores\7bf7b0ebd1cd5824297d9ecc843c1978\core.a(dma_f1.c.o)
 .text.dma_attach_interrupt
                0x00000000       0x40 C:\Users\USER\AppData\Local\arduino\cores\7bf7b0ebd1cd5824297d9ecc843c1978\core.a(dma_f1.c.o)
 .text.dma_detach_interrupt
                0x00000000       0x60 C:\Users\USER\AppData\Local\arduino\cores\7bf7b0ebd1cd5824297d9ecc843c1978\core.a(dma_f1.c.o)
 .text.dma_enable
                0x00000000       0x18 C:\Users\USER\AppData\Local\arduino\cores\7bf7b0ebd1cd5824297d9ecc843c1978\core.a(dma_f1.c.o)
 .text.dma_disable
                0x00000000       0x18 C:\Users\USER\AppData\Local\arduino\cores\7bf7b0ebd1cd5824297d9ecc843c1978\core.a(dma_f1.c.o)
 .text.dma_tube_cfg
                0x00000000      0x15c C:\Users\USER\AppData\Local\arduino\cores\7bf7b0ebd1cd5824297d9ecc843c1978\core.a(dma_f1.c.o)
 .text.dma_get_irq_cause
                0x00000000       0x3c C:\Users\USER\AppData\Local\arduino\cores\7bf7b0ebd1cd5824297d9ecc843c1978\core.a(dma_f1.c.o)
 .text.dma_set_mem_addr
                0x00000000       0x10 C:\Users\USER\AppData\Local\arduino\cores\7bf7b0ebd1cd5824297d9ecc843c1978\core.a(dma_f1.c.o)
 .text.dma_set_per_addr
                0x00000000       0x10 C:\Users\USER\AppData\Local\arduino\cores\7bf7b0ebd1cd5824297d9ecc843c1978\core.a(dma_f1.c.o)
 .text.dma_setup_transfer
                0x00000000       0x36 C:\Users\USER\AppData\Local\arduino\cores\7bf7b0ebd1cd5824297d9ecc843c1978\core.a(dma_f1.c.o)
 .bss.dma2Ch4_5
                0x00000000        0x4 C:\Users\USER\AppData\Local\arduino\cores\7bf7b0ebd1cd5824297d9ecc843c1978\core.a(dma_f1.c.o)
 .data          0x00000000        0x0 C:\Users\USER\AppData\Local\arduino\cores\7bf7b0ebd1cd5824297d9ecc843c1978\core.a(exc.S.o)
 .bss           0x00000000        0x0 C:\Users\USER\AppData\Local\arduino\cores\7bf7b0ebd1cd5824297d9ecc843c1978\core.a(exc.S.o)
 .text          0x00000000        0x0 C:\Users\USER\AppData\Local\arduino\cores\7bf7b0ebd1cd5824297d9ecc843c1978\core.a(exti.c.o)
 .data          0x00000000        0x0 C:\Users\USER\AppData\Local\arduino\cores\7bf7b0ebd1cd5824297d9ecc843c1978\core.a(exti.c.o)
 .bss           0x00000000        0x0 C:\Users\USER\AppData\Local\arduino\cores\7bf7b0ebd1cd5824297d9ecc843c1978\core.a(exti.c.o)
 .text.exti_attach_callback
                0x00000000       0xac C:\Users\USER\AppData\Local\arduino\cores\7bf7b0ebd1cd5824297d9ecc843c1978\core.a(exti.c.o)
 .text.exti_attach_interrupt
                0x00000000       0x10 C:\Users\USER\AppData\Local\arduino\cores\7bf7b0ebd1cd5824297d9ecc843c1978\core.a(exti.c.o)
 .text.exti_detach_interrupt
                0x00000000       0x28 C:\Users\USER\AppData\Local\arduino\cores\7bf7b0ebd1cd5824297d9ecc843c1978\core.a(exti.c.o)
 .text.exti_do_select
                0x00000000       0x1a C:\Users\USER\AppData\Local\arduino\cores\7bf7b0ebd1cd5824297d9ecc843c1978\core.a(exti.c.o)
 .text          0x00000000        0x0 C:\Users\USER\AppData\Local\arduino\cores\7bf7b0ebd1cd5824297d9ecc843c1978\core.a(exti_f1.c.o)
 .data          0x00000000        0x0 C:\Users\USER\AppData\Local\arduino\cores\7bf7b0ebd1cd5824297d9ecc843c1978\core.a(exti_f1.c.o)
 .bss           0x00000000        0x0 C:\Users\USER\AppData\Local\arduino\cores\7bf7b0ebd1cd5824297d9ecc843c1978\core.a(exti_f1.c.o)
 .text.exti_select
                0x00000000       0x18 C:\Users\USER\AppData\Local\arduino\cores\7bf7b0ebd1cd5824297d9ecc843c1978\core.a(exti_f1.c.o)
 .text          0x00000000        0x0 C:\Users\USER\AppData\Local\arduino\cores\7bf7b0ebd1cd5824297d9ecc843c1978\core.a(flash.c.o)
 .data          0x00000000        0x0 C:\Users\USER\AppData\Local\arduino\cores\7bf7b0ebd1cd5824297d9ecc843c1978\core.a(flash.c.o)
 .bss           0x00000000        0x0 C:\Users\USER\AppData\Local\arduino\cores\7bf7b0ebd1cd5824297d9ecc843c1978\core.a(flash.c.o)
 .text          0x00000000        0x0 C:\Users\USER\AppData\Local\arduino\cores\7bf7b0ebd1cd5824297d9ecc843c1978\core.a(gpio_f1.c.o)
 .data          0x00000000        0x0 C:\Users\USER\AppData\Local\arduino\cores\7bf7b0ebd1cd5824297d9ecc843c1978\core.a(gpio_f1.c.o)
 .bss           0x00000000        0x0 C:\Users\USER\AppData\Local\arduino\cores\7bf7b0ebd1cd5824297d9ecc843c1978\core.a(gpio_f1.c.o)
 .text.gpio_get_mode
                0x00000000       0x2a C:\Users\USER\AppData\Local\arduino\cores\7bf7b0ebd1cd5824297d9ecc843c1978\core.a(gpio_f1.c.o)
 .text.afio_is_remapped
                0x00000000       0x20 C:\Users\USER\AppData\Local\arduino\cores\7bf7b0ebd1cd5824297d9ecc843c1978\core.a(gpio_f1.c.o)
 .rodata.GPIOA  0x00000000        0x4 C:\Users\USER\AppData\Local\arduino\cores\7bf7b0ebd1cd5824297d9ecc843c1978\core.a(gpio_f1.c.o)
 .rodata.GPIOC  0x00000000        0x4 C:\Users\USER\AppData\Local\arduino\cores\7bf7b0ebd1cd5824297d9ecc843c1978\core.a(gpio_f1.c.o)
 .rodata.GPIOD  0x00000000        0x4 C:\Users\USER\AppData\Local\arduino\cores\7bf7b0ebd1cd5824297d9ecc843c1978\core.a(gpio_f1.c.o)
 .text          0x00000000        0x0 C:\Users\USER\AppData\Local\arduino\cores\7bf7b0ebd1cd5824297d9ecc843c1978\core.a(i2c_f1.c.o)
 .data          0x00000000        0x0 C:\Users\USER\AppData\Local\arduino\cores\7bf7b0ebd1cd5824297d9ecc843c1978\core.a(i2c_f1.c.o)
 .bss           0x00000000        0x0 C:\Users\USER\AppData\Local\arduino\cores\7bf7b0ebd1cd5824297d9ecc843c1978\core.a(i2c_f1.c.o)
 .text.i2c_config_gpios
                0x00000000       0x58 C:\Users\USER\AppData\Local\arduino\cores\7bf7b0ebd1cd5824297d9ecc843c1978\core.a(i2c_f1.c.o)
 .text.i2c_master_release_bus
                0x00000000       0x4c C:\Users\USER\AppData\Local\arduino\cores\7bf7b0ebd1cd5824297d9ecc843c1978\core.a(i2c_f1.c.o)
 .text._i2c_irq_priority_fixup
                0x00000000        0xa C:\Users\USER\AppData\Local\arduino\cores\7bf7b0ebd1cd5824297d9ecc843c1978\core.a(i2c_f1.c.o)
 .rodata.I2C1   0x00000000        0x4 C:\Users\USER\AppData\Local\arduino\cores\7bf7b0ebd1cd5824297d9ecc843c1978\core.a(i2c_f1.c.o)
 .rodata.I2C2   0x00000000        0x4 C:\Users\USER\AppData\Local\arduino\cores\7bf7b0ebd1cd5824297d9ecc843c1978\core.a(i2c_f1.c.o)
 .text          0x00000000        0x0 C:\Users\USER\AppData\Local\arduino\cores\7bf7b0ebd1cd5824297d9ecc843c1978\core.a(nvic.c.o)
 .data          0x00000000        0x0 C:\Users\USER\AppData\Local\arduino\cores\7bf7b0ebd1cd5824297d9ecc843c1978\core.a(nvic.c.o)
 .bss           0x00000000        0x0 C:\Users\USER\AppData\Local\arduino\cores\7bf7b0ebd1cd5824297d9ecc843c1978\core.a(nvic.c.o)
 .text.nvic_set_vector_table
                0x00000000       0x14 C:\Users\USER\AppData\Local\arduino\cores\7bf7b0ebd1cd5824297d9ecc843c1978\core.a(nvic.c.o)
 .text.nvic_sys_reset
                0x00000000       0x1c C:\Users\USER\AppData\Local\arduino\cores\7bf7b0ebd1cd5824297d9ecc843c1978\core.a(nvic.c.o)
 .text          0x00000000        0x0 C:\Users\USER\AppData\Local\arduino\cores\7bf7b0ebd1cd5824297d9ecc843c1978\core.a(rcc.c.o)
 .data          0x00000000        0x0 C:\Users\USER\AppData\Local\arduino\cores\7bf7b0ebd1cd5824297d9ecc843c1978\core.a(rcc.c.o)
 .bss           0x00000000        0x0 C:\Users\USER\AppData\Local\arduino\cores\7bf7b0ebd1cd5824297d9ecc843c1978\core.a(rcc.c.o)
 .text.rcc_is_clk_on
                0x00000000       0x1e C:\Users\USER\AppData\Local\arduino\cores\7bf7b0ebd1cd5824297d9ecc843c1978\core.a(rcc.c.o)
 .text          0x00000000        0x0 C:\Users\USER\AppData\Local\arduino\cores\7bf7b0ebd1cd5824297d9ecc843c1978\core.a(rcc_f1.c.o)
 .data          0x00000000        0x0 C:\Users\USER\AppData\Local\arduino\cores\7bf7b0ebd1cd5824297d9ecc843c1978\core.a(rcc_f1.c.o)
 .bss           0x00000000        0x0 C:\Users\USER\AppData\Local\arduino\cores\7bf7b0ebd1cd5824297d9ecc843c1978\core.a(rcc_f1.c.o)
 .text.rcc_clk_init
                0x00000000       0x3c C:\Users\USER\AppData\Local\arduino\cores\7bf7b0ebd1cd5824297d9ecc843c1978\core.a(rcc_f1.c.o)
 .data          0x00000000        0x0 C:\Users\USER\AppData\Local\arduino\cores\7bf7b0ebd1cd5824297d9ecc843c1978\core.a(isrs.S.o)
 .bss           0x00000000        0x0 C:\Users\USER\AppData\Local\arduino\cores\7bf7b0ebd1cd5824297d9ecc843c1978\core.a(isrs.S.o)
 .text          0x00000000        0x0 C:\Users\USER\AppData\Local\arduino\cores\7bf7b0ebd1cd5824297d9ecc843c1978\core.a(vector_table.S.o)
 .data          0x00000000        0x0 C:\Users\USER\AppData\Local\arduino\cores\7bf7b0ebd1cd5824297d9ecc843c1978\core.a(vector_table.S.o)
 .bss           0x00000000        0x0 C:\Users\USER\AppData\Local\arduino\cores\7bf7b0ebd1cd5824297d9ecc843c1978\core.a(vector_table.S.o)
 .text          0x00000000        0x0 C:\Users\USER\AppData\Local\arduino\cores\7bf7b0ebd1cd5824297d9ecc843c1978\core.a(systick.c.o)
 .data          0x00000000        0x0 C:\Users\USER\AppData\Local\arduino\cores\7bf7b0ebd1cd5824297d9ecc843c1978\core.a(systick.c.o)
 .bss           0x00000000        0x0 C:\Users\USER\AppData\Local\arduino\cores\7bf7b0ebd1cd5824297d9ecc843c1978\core.a(systick.c.o)
 .text.systick_disable
                0x00000000        0xc C:\Users\USER\AppData\Local\arduino\cores\7bf7b0ebd1cd5824297d9ecc843c1978\core.a(systick.c.o)
 .text.systick_enable
                0x00000000        0xc C:\Users\USER\AppData\Local\arduino\cores\7bf7b0ebd1cd5824297d9ecc843c1978\core.a(systick.c.o)
 .text.systick_attach_callback
                0x00000000        0xc C:\Users\USER\AppData\Local\arduino\cores\7bf7b0ebd1cd5824297d9ecc843c1978\core.a(systick.c.o)
 .text          0x00000000        0x0 C:\Users\USER\AppData\Local\arduino\cores\7bf7b0ebd1cd5824297d9ecc843c1978\core.a(timer.c.o)
 .data          0x00000000        0x0 C:\Users\USER\AppData\Local\arduino\cores\7bf7b0ebd1cd5824297d9ecc843c1978\core.a(timer.c.o)
 .bss           0x00000000        0x0 C:\Users\USER\AppData\Local\arduino\cores\7bf7b0ebd1cd5824297d9ecc843c1978\core.a(timer.c.o)
 .text.timer_disable
                0x00000000       0x12 C:\Users\USER\AppData\Local\arduino\cores\7bf7b0ebd1cd5824297d9ecc843c1978\core.a(timer.c.o)
 .text.timer_attach_interrupt
                0x00000000       0xe0 C:\Users\USER\AppData\Local\arduino\cores\7bf7b0ebd1cd5824297d9ecc843c1978\core.a(timer.c.o)
 .text.get_direction
                0x00000000        0xe C:\Users\USER\AppData\Local\arduino\cores\7bf7b0ebd1cd5824297d9ecc843c1978\core.a(timer.c.o)
 .rodata.TIMER1
                0x00000000        0x4 C:\Users\USER\AppData\Local\arduino\cores\7bf7b0ebd1cd5824297d9ecc843c1978\core.a(timer.c.o)
 .rodata.TIMER2
                0x00000000        0x4 C:\Users\USER\AppData\Local\arduino\cores\7bf7b0ebd1cd5824297d9ecc843c1978\core.a(timer.c.o)
 .rodata.TIMER3
                0x00000000        0x4 C:\Users\USER\AppData\Local\arduino\cores\7bf7b0ebd1cd5824297d9ecc843c1978\core.a(timer.c.o)
 .rodata.TIMER4
                0x00000000        0x4 C:\Users\USER\AppData\Local\arduino\cores\7bf7b0ebd1cd5824297d9ecc843c1978\core.a(timer.c.o)
 .text          0x00000000        0x0 C:\Users\USER\AppData\Local\arduino\cores\7bf7b0ebd1cd5824297d9ecc843c1978\core.a(usart.c.o)
 .data          0x00000000        0x0 C:\Users\USER\AppData\Local\arduino\cores\7bf7b0ebd1cd5824297d9ecc843c1978\core.a(usart.c.o)
 .bss           0x00000000        0x0 C:\Users\USER\AppData\Local\arduino\cores\7bf7b0ebd1cd5824297d9ecc843c1978\core.a(usart.c.o)
 .text.usart_init
                0x00000000       0x4c C:\Users\USER\AppData\Local\arduino\cores\7bf7b0ebd1cd5824297d9ecc843c1978\core.a(usart.c.o)
 .text.usart_enable
                0x00000000       0x14 C:\Users\USER\AppData\Local\arduino\cores\7bf7b0ebd1cd5824297d9ecc843c1978\core.a(usart.c.o)
 .text.usart_disable
                0x00000000       0x38 C:\Users\USER\AppData\Local\arduino\cores\7bf7b0ebd1cd5824297d9ecc843c1978\core.a(usart.c.o)
 .text.usart_rx
                0x00000000       0x58 C:\Users\USER\AppData\Local\arduino\cores\7bf7b0ebd1cd5824297d9ecc843c1978\core.a(usart.c.o)
 .text.usart_putudec
                0x00000000       0x44 C:\Users\USER\AppData\Local\arduino\cores\7bf7b0ebd1cd5824297d9ecc843c1978\core.a(usart.c.o)
 .text          0x00000000        0x0 C:\Users\USER\AppData\Local\arduino\cores\7bf7b0ebd1cd5824297d9ecc843c1978\core.a(usart_f1.c.o)
 .data          0x00000000        0x0 C:\Users\USER\AppData\Local\arduino\cores\7bf7b0ebd1cd5824297d9ecc843c1978\core.a(usart_f1.c.o)
 .bss           0x00000000        0x0 C:\Users\USER\AppData\Local\arduino\cores\7bf7b0ebd1cd5824297d9ecc843c1978\core.a(usart_f1.c.o)
 .text.usart_config_gpios_async
                0x00000000       0x4a C:\Users\USER\AppData\Local\arduino\cores\7bf7b0ebd1cd5824297d9ecc843c1978\core.a(usart_f1.c.o)
 .text.usart_set_baud_rate
                0x00000000       0x3c C:\Users\USER\AppData\Local\arduino\cores\7bf7b0ebd1cd5824297d9ecc843c1978\core.a(usart_f1.c.o)
 .text.usart_foreach
                0x00000000       0x24 C:\Users\USER\AppData\Local\arduino\cores\7bf7b0ebd1cd5824297d9ecc843c1978\core.a(usart_f1.c.o)
 .text          0x00000000        0x0 C:\Users\USER\AppData\Local\arduino\cores\7bf7b0ebd1cd5824297d9ecc843c1978\core.a(usart_private.c.o)
 .data          0x00000000        0x0 C:\Users\USER\AppData\Local\arduino\cores\7bf7b0ebd1cd5824297d9ecc843c1978\core.a(usart_private.c.o)
 .bss           0x00000000        0x0 C:\Users\USER\AppData\Local\arduino\cores\7bf7b0ebd1cd5824297d9ecc843c1978\core.a(usart_private.c.o)
 .text._usart_clock_freq
                0x00000000       0x24 C:\Users\USER\AppData\Local\arduino\cores\7bf7b0ebd1cd5824297d9ecc843c1978\core.a(usart_private.c.o)
 .text          0x00000000        0x0 C:\Users\USER\AppData\Local\arduino\cores\7bf7b0ebd1cd5824297d9ecc843c1978\core.a(usb.c.o)
 .data          0x00000000        0x0 C:\Users\USER\AppData\Local\arduino\cores\7bf7b0ebd1cd5824297d9ecc843c1978\core.a(usb.c.o)
 .bss           0x00000000        0x0 C:\Users\USER\AppData\Local\arduino\cores\7bf7b0ebd1cd5824297d9ecc843c1978\core.a(usb.c.o)
 .text.usb_init_usblib
                0x00000000       0x48 C:\Users\USER\AppData\Local\arduino\cores\7bf7b0ebd1cd5824297d9ecc843c1978\core.a(usb.c.o)
 .text.usb_power_off
                0x00000000       0x14 C:\Users\USER\AppData\Local\arduino\cores\7bf7b0ebd1cd5824297d9ecc843c1978\core.a(usb.c.o)
 .text          0x00000000        0x0 C:\Users\USER\AppData\Local\arduino\cores\7bf7b0ebd1cd5824297d9ecc843c1978\core.a(usb_cdcacm.c.o)
 .data          0x00000000        0x0 C:\Users\USER\AppData\Local\arduino\cores\7bf7b0ebd1cd5824297d9ecc843c1978\core.a(usb_cdcacm.c.o)
 .bss           0x00000000        0x0 C:\Users\USER\AppData\Local\arduino\cores\7bf7b0ebd1cd5824297d9ecc843c1978\core.a(usb_cdcacm.c.o)
 .text.usbSetConfiguration
                0x00000000       0x1c C:\Users\USER\AppData\Local\arduino\cores\7bf7b0ebd1cd5824297d9ecc843c1978\core.a(usb_cdcacm.c.o)
 .text.usbSetDeviceAddress
                0x00000000       0x10 C:\Users\USER\AppData\Local\arduino\cores\7bf7b0ebd1cd5824297d9ecc843c1978\core.a(usb_cdcacm.c.o)
 .text.vcomDataTxCb
                0x00000000       0xa0 C:\Users\USER\AppData\Local\arduino\cores\7bf7b0ebd1cd5824297d9ecc843c1978\core.a(usb_cdcacm.c.o)
 .text.vcomDataRxCb
                0x00000000       0x7c C:\Users\USER\AppData\Local\arduino\cores\7bf7b0ebd1cd5824297d9ecc843c1978\core.a(usb_cdcacm.c.o)
 .text.usb_cdcacm_set_hooks
                0x00000000       0x1c C:\Users\USER\AppData\Local\arduino\cores\7bf7b0ebd1cd5824297d9ecc843c1978\core.a(usb_cdcacm.c.o)
 .text.usb_cdcacm_enable
                0x00000000       0x38 C:\Users\USER\AppData\Local\arduino\cores\7bf7b0ebd1cd5824297d9ecc843c1978\core.a(usb_cdcacm.c.o)
 .text.usb_cdcacm_disable
                0x00000000       0x20 C:\Users\USER\AppData\Local\arduino\cores\7bf7b0ebd1cd5824297d9ecc843c1978\core.a(usb_cdcacm.c.o)
 .text.usb_cdcacm_tx
                0x00000000       0x60 C:\Users\USER\AppData\Local\arduino\cores\7bf7b0ebd1cd5824297d9ecc843c1978\core.a(usb_cdcacm.c.o)
 .text.usb_cdcacm_putc
                0x00000000       0x1a C:\Users\USER\AppData\Local\arduino\cores\7bf7b0ebd1cd5824297d9ecc843c1978\core.a(usb_cdcacm.c.o)
 .text.usb_cdcacm_data_available
                0x00000000       0x18 C:\Users\USER\AppData\Local\arduino\cores\7bf7b0ebd1cd5824297d9ecc843c1978\core.a(usb_cdcacm.c.o)
 .text.usb_cdcacm_is_transmitting
                0x00000000       0x14 C:\Users\USER\AppData\Local\arduino\cores\7bf7b0ebd1cd5824297d9ecc843c1978\core.a(usb_cdcacm.c.o)
 .text.usb_cdcacm_get_pending
                0x00000000       0x18 C:\Users\USER\AppData\Local\arduino\cores\7bf7b0ebd1cd5824297d9ecc843c1978\core.a(usb_cdcacm.c.o)
 .text.usb_cdcacm_tx_available
                0x00000000        0xc C:\Users\USER\AppData\Local\arduino\cores\7bf7b0ebd1cd5824297d9ecc843c1978\core.a(usb_cdcacm.c.o)
 .text.usb_cdcacm_peek
                0x00000000       0x38 C:\Users\USER\AppData\Local\arduino\cores\7bf7b0ebd1cd5824297d9ecc843c1978\core.a(usb_cdcacm.c.o)
 .text.usb_cdcacm_rx
                0x00000000       0x34 C:\Users\USER\AppData\Local\arduino\cores\7bf7b0ebd1cd5824297d9ecc843c1978\core.a(usb_cdcacm.c.o)
 .text.usb_cdcacm_peek_ex
                0x00000000       0x3c C:\Users\USER\AppData\Local\arduino\cores\7bf7b0ebd1cd5824297d9ecc843c1978\core.a(usb_cdcacm.c.o)
 .text.usb_cdcacm_peek_char
                0x00000000       0x24 C:\Users\USER\AppData\Local\arduino\cores\7bf7b0ebd1cd5824297d9ecc843c1978\core.a(usb_cdcacm.c.o)
 .text.usb_cdcacm_get_dtr
                0x00000000       0x10 C:\Users\USER\AppData\Local\arduino\cores\7bf7b0ebd1cd5824297d9ecc843c1978\core.a(usb_cdcacm.c.o)
 .text.usb_cdcacm_get_rts
                0x00000000       0x10 C:\Users\USER\AppData\Local\arduino\cores\7bf7b0ebd1cd5824297d9ecc843c1978\core.a(usb_cdcacm.c.o)
 .text.usb_cdcacm_get_line_coding
                0x00000000       0x18 C:\Users\USER\AppData\Local\arduino\cores\7bf7b0ebd1cd5824297d9ecc843c1978\core.a(usb_cdcacm.c.o)
 .text.usb_cdcacm_get_baud
                0x00000000        0xc C:\Users\USER\AppData\Local\arduino\cores\7bf7b0ebd1cd5824297d9ecc843c1978\core.a(usb_cdcacm.c.o)
 .text.usb_cdcacm_get_stop_bits
                0x00000000        0xc C:\Users\USER\AppData\Local\arduino\cores\7bf7b0ebd1cd5824297d9ecc843c1978\core.a(usb_cdcacm.c.o)
 .text.usb_cdcacm_get_parity
                0x00000000        0xc C:\Users\USER\AppData\Local\arduino\cores\7bf7b0ebd1cd5824297d9ecc843c1978\core.a(usb_cdcacm.c.o)
 .text.usb_cdcacm_get_n_data_bits
                0x00000000        0xc C:\Users\USER\AppData\Local\arduino\cores\7bf7b0ebd1cd5824297d9ecc843c1978\core.a(usb_cdcacm.c.o)
 .bss.vcomBufferTx
                0x00000000      0x100 C:\Users\USER\AppData\Local\arduino\cores\7bf7b0ebd1cd5824297d9ecc843c1978\core.a(usb_cdcacm.c.o)
 .data.ep_int_in
                0x00000000       0x1c C:\Users\USER\AppData\Local\arduino\cores\7bf7b0ebd1cd5824297d9ecc843c1978\core.a(usb_cdcacm.c.o)
 .bss.rx_hook   0x00000000        0x4 C:\Users\USER\AppData\Local\arduino\cores\7bf7b0ebd1cd5824297d9ecc843c1978\core.a(usb_cdcacm.c.o)
 .bss.vcomBufferRx
                0x00000000      0x100 C:\Users\USER\AppData\Local\arduino\cores\7bf7b0ebd1cd5824297d9ecc843c1978\core.a(usb_cdcacm.c.o)
 .data.ep_int_out
                0x00000000       0x1c C:\Users\USER\AppData\Local\arduino\cores\7bf7b0ebd1cd5824297d9ecc843c1978\core.a(usb_cdcacm.c.o)
 .data.User_Standard_Requests
                0x00000000       0x24 C:\Users\USER\AppData\Local\arduino\cores\7bf7b0ebd1cd5824297d9ecc843c1978\core.a(usb_cdcacm.c.o)
 .text          0x00000000        0x0 C:\Users\USER\AppData\Local\arduino\cores\7bf7b0ebd1cd5824297d9ecc843c1978\core.a(usb_reg_map.c.o)
 .data          0x00000000        0x0 C:\Users\USER\AppData\Local\arduino\cores\7bf7b0ebd1cd5824297d9ecc843c1978\core.a(usb_reg_map.c.o)
 .bss           0x00000000        0x0 C:\Users\USER\AppData\Local\arduino\cores\7bf7b0ebd1cd5824297d9ecc843c1978\core.a(usb_reg_map.c.o)
 .text          0x00000000        0x0 C:\Users\USER\AppData\Local\arduino\cores\7bf7b0ebd1cd5824297d9ecc843c1978\core.a(usb_core.c.o)
 .data          0x00000000        0x0 C:\Users\USER\AppData\Local\arduino\cores\7bf7b0ebd1cd5824297d9ecc843c1978\core.a(usb_core.c.o)
 .bss           0x00000000        0x0 C:\Users\USER\AppData\Local\arduino\cores\7bf7b0ebd1cd5824297d9ecc843c1978\core.a(usb_core.c.o)
 .text          0x00000000        0x0 C:\Users\USER\AppData\Local\arduino\cores\7bf7b0ebd1cd5824297d9ecc843c1978\core.a(usb_init.c.o)
 .data          0x00000000        0x0 C:\Users\USER\AppData\Local\arduino\cores\7bf7b0ebd1cd5824297d9ecc843c1978\core.a(usb_init.c.o)
 .bss           0x00000000        0x0 C:\Users\USER\AppData\Local\arduino\cores\7bf7b0ebd1cd5824297d9ecc843c1978\core.a(usb_init.c.o)
 .text.USB_Init
                0x00000000       0x38 C:\Users\USER\AppData\Local\arduino\cores\7bf7b0ebd1cd5824297d9ecc843c1978\core.a(usb_init.c.o)
 .text          0x00000000        0x0 C:\Users\USER\AppData\Local\arduino\cores\7bf7b0ebd1cd5824297d9ecc843c1978\core.a(usb_mem.c.o)
 .data          0x00000000        0x0 C:\Users\USER\AppData\Local\arduino\cores\7bf7b0ebd1cd5824297d9ecc843c1978\core.a(usb_mem.c.o)
 .bss           0x00000000        0x0 C:\Users\USER\AppData\Local\arduino\cores\7bf7b0ebd1cd5824297d9ecc843c1978\core.a(usb_mem.c.o)
 .text          0x00000000        0x0 C:\Users\USER\AppData\Local\arduino\cores\7bf7b0ebd1cd5824297d9ecc843c1978\core.a(usb_regs.c.o)
 .data          0x00000000        0x0 C:\Users\USER\AppData\Local\arduino\cores\7bf7b0ebd1cd5824297d9ecc843c1978\core.a(usb_regs.c.o)
 .bss           0x00000000        0x0 C:\Users\USER\AppData\Local\arduino\cores\7bf7b0ebd1cd5824297d9ecc843c1978\core.a(usb_regs.c.o)
 .text.SetCNTR  0x00000000        0xc C:\Users\USER\AppData\Local\arduino\cores\7bf7b0ebd1cd5824297d9ecc843c1978\core.a(usb_regs.c.o)
 .text.GetCNTR  0x00000000        0xc C:\Users\USER\AppData\Local\arduino\cores\7bf7b0ebd1cd5824297d9ecc843c1978\core.a(usb_regs.c.o)
 .text.SetISTR  0x00000000        0xc C:\Users\USER\AppData\Local\arduino\cores\7bf7b0ebd1cd5824297d9ecc843c1978\core.a(usb_regs.c.o)
 .text.GetISTR  0x00000000        0xc C:\Users\USER\AppData\Local\arduino\cores\7bf7b0ebd1cd5824297d9ecc843c1978\core.a(usb_regs.c.o)
 .text.GetFNR   0x00000000        0xc C:\Users\USER\AppData\Local\arduino\cores\7bf7b0ebd1cd5824297d9ecc843c1978\core.a(usb_regs.c.o)
 .text.SetDADDR
                0x00000000        0xc C:\Users\USER\AppData\Local\arduino\cores\7bf7b0ebd1cd5824297d9ecc843c1978\core.a(usb_regs.c.o)
 .text.GetDADDR
                0x00000000        0xc C:\Users\USER\AppData\Local\arduino\cores\7bf7b0ebd1cd5824297d9ecc843c1978\core.a(usb_regs.c.o)
 .text.SetBTABLE
                0x00000000       0x10 C:\Users\USER\AppData\Local\arduino\cores\7bf7b0ebd1cd5824297d9ecc843c1978\core.a(usb_regs.c.o)
 .text.GetBTABLE
                0x00000000        0xc C:\Users\USER\AppData\Local\arduino\cores\7bf7b0ebd1cd5824297d9ecc843c1978\core.a(usb_regs.c.o)
 .text.SetENDPOINT
                0x00000000        0xe C:\Users\USER\AppData\Local\arduino\cores\7bf7b0ebd1cd5824297d9ecc843c1978\core.a(usb_regs.c.o)
 .text.GetENDPOINT
                0x00000000       0x10 C:\Users\USER\AppData\Local\arduino\cores\7bf7b0ebd1cd5824297d9ecc843c1978\core.a(usb_regs.c.o)
 .text.SetEPType
                0x00000000       0x1c C:\Users\USER\AppData\Local\arduino\cores\7bf7b0ebd1cd5824297d9ecc843c1978\core.a(usb_regs.c.o)
 .text.GetEPType
                0x00000000       0x12 C:\Users\USER\AppData\Local\arduino\cores\7bf7b0ebd1cd5824297d9ecc843c1978\core.a(usb_regs.c.o)
 .text.SetEPRxStatus
                0x00000000       0x2a C:\Users\USER\AppData\Local\arduino\cores\7bf7b0ebd1cd5824297d9ecc843c1978\core.a(usb_regs.c.o)
 .text.SetDouBleBuffEPStall
                0x00000000       0x24 C:\Users\USER\AppData\Local\arduino\cores\7bf7b0ebd1cd5824297d9ecc843c1978\core.a(usb_regs.c.o)
 .text.GetEPTxStatus
                0x00000000       0x12 C:\Users\USER\AppData\Local\arduino\cores\7bf7b0ebd1cd5824297d9ecc843c1978\core.a(usb_regs.c.o)
 .text.GetEPRxStatus
                0x00000000       0x12 C:\Users\USER\AppData\Local\arduino\cores\7bf7b0ebd1cd5824297d9ecc843c1978\core.a(usb_regs.c.o)
 .text.SetEPTxValid
                0x00000000       0x1e C:\Users\USER\AppData\Local\arduino\cores\7bf7b0ebd1cd5824297d9ecc843c1978\core.a(usb_regs.c.o)
 .text.SetEPRxValid
                0x00000000       0x1e C:\Users\USER\AppData\Local\arduino\cores\7bf7b0ebd1cd5824297d9ecc843c1978\core.a(usb_regs.c.o)
 .text.SetEP_KIND
                0x00000000       0x1e C:\Users\USER\AppData\Local\arduino\cores\7bf7b0ebd1cd5824297d9ecc843c1978\core.a(usb_regs.c.o)
 .text.ClearEP_KIND
                0x00000000       0x1c C:\Users\USER\AppData\Local\arduino\cores\7bf7b0ebd1cd5824297d9ecc843c1978\core.a(usb_regs.c.o)
 .text.Clear_Status_Out
                0x00000000       0x1c C:\Users\USER\AppData\Local\arduino\cores\7bf7b0ebd1cd5824297d9ecc843c1978\core.a(usb_regs.c.o)
 .text.Set_Status_Out
                0x00000000       0x1e C:\Users\USER\AppData\Local\arduino\cores\7bf7b0ebd1cd5824297d9ecc843c1978\core.a(usb_regs.c.o)
 .text.SetEPDoubleBuff
                0x00000000       0x1e C:\Users\USER\AppData\Local\arduino\cores\7bf7b0ebd1cd5824297d9ecc843c1978\core.a(usb_regs.c.o)
 .text.ClearEPDoubleBuff
                0x00000000       0x1c C:\Users\USER\AppData\Local\arduino\cores\7bf7b0ebd1cd5824297d9ecc843c1978\core.a(usb_regs.c.o)
 .text.GetTxStallStatus
                0x00000000       0x1a C:\Users\USER\AppData\Local\arduino\cores\7bf7b0ebd1cd5824297d9ecc843c1978\core.a(usb_regs.c.o)
 .text.GetRxStallStatus
                0x00000000       0x1a C:\Users\USER\AppData\Local\arduino\cores\7bf7b0ebd1cd5824297d9ecc843c1978\core.a(usb_regs.c.o)
 .text.ClearEP_CTR_RX
                0x00000000       0x18 C:\Users\USER\AppData\Local\arduino\cores\7bf7b0ebd1cd5824297d9ecc843c1978\core.a(usb_regs.c.o)
 .text.ClearEP_CTR_TX
                0x00000000       0x1c C:\Users\USER\AppData\Local\arduino\cores\7bf7b0ebd1cd5824297d9ecc843c1978\core.a(usb_regs.c.o)
 .text.ToggleDTOG_RX
                0x00000000       0x20 C:\Users\USER\AppData\Local\arduino\cores\7bf7b0ebd1cd5824297d9ecc843c1978\core.a(usb_regs.c.o)
 .text.ToggleDTOG_TX
                0x00000000       0x20 C:\Users\USER\AppData\Local\arduino\cores\7bf7b0ebd1cd5824297d9ecc843c1978\core.a(usb_regs.c.o)
 .text.SetEPAddress
                0x00000000       0x1e C:\Users\USER\AppData\Local\arduino\cores\7bf7b0ebd1cd5824297d9ecc843c1978\core.a(usb_regs.c.o)
 .text.GetEPAddress
                0x00000000       0x12 C:\Users\USER\AppData\Local\arduino\cores\7bf7b0ebd1cd5824297d9ecc843c1978\core.a(usb_regs.c.o)
 .text.SetEPTxAddr
                0x00000000       0x20 C:\Users\USER\AppData\Local\arduino\cores\7bf7b0ebd1cd5824297d9ecc843c1978\core.a(usb_regs.c.o)
 .text.SetEPRxAddr
                0x00000000       0x20 C:\Users\USER\AppData\Local\arduino\cores\7bf7b0ebd1cd5824297d9ecc843c1978\core.a(usb_regs.c.o)
 .text.SetEPCountRxReg
                0x00000000       0x26 C:\Users\USER\AppData\Local\arduino\cores\7bf7b0ebd1cd5824297d9ecc843c1978\core.a(usb_regs.c.o)
 .text.GetEPTxCount
                0x00000000       0x20 C:\Users\USER\AppData\Local\arduino\cores\7bf7b0ebd1cd5824297d9ecc843c1978\core.a(usb_regs.c.o)
 .text.GetEPRxCount
                0x00000000       0x20 C:\Users\USER\AppData\Local\arduino\cores\7bf7b0ebd1cd5824297d9ecc843c1978\core.a(usb_regs.c.o)
 .text.SetEPDblBuffAddr
                0x00000000       0x38 C:\Users\USER\AppData\Local\arduino\cores\7bf7b0ebd1cd5824297d9ecc843c1978\core.a(usb_regs.c.o)
 .text.SetEPDblBuf0Addr
                0x00000000       0x20 C:\Users\USER\AppData\Local\arduino\cores\7bf7b0ebd1cd5824297d9ecc843c1978\core.a(usb_regs.c.o)
 .text.SetEPDblBuf1Addr
                0x00000000       0x20 C:\Users\USER\AppData\Local\arduino\cores\7bf7b0ebd1cd5824297d9ecc843c1978\core.a(usb_regs.c.o)
 .text.GetEPDblBuf0Addr
                0x00000000       0x1c C:\Users\USER\AppData\Local\arduino\cores\7bf7b0ebd1cd5824297d9ecc843c1978\core.a(usb_regs.c.o)
 .text.GetEPDblBuf1Addr
                0x00000000       0x1c C:\Users\USER\AppData\Local\arduino\cores\7bf7b0ebd1cd5824297d9ecc843c1978\core.a(usb_regs.c.o)
 .text.SetEPDblBuffCount
                0x00000000       0xa8 C:\Users\USER\AppData\Local\arduino\cores\7bf7b0ebd1cd5824297d9ecc843c1978\core.a(usb_regs.c.o)
 .text.SetEPDblBuf0Count
                0x00000000       0x5c C:\Users\USER\AppData\Local\arduino\cores\7bf7b0ebd1cd5824297d9ecc843c1978\core.a(usb_regs.c.o)
 .text.SetEPDblBuf1Count
                0x00000000       0x5c C:\Users\USER\AppData\Local\arduino\cores\7bf7b0ebd1cd5824297d9ecc843c1978\core.a(usb_regs.c.o)
 .text.GetEPDblBuf0Count
                0x00000000       0x20 C:\Users\USER\AppData\Local\arduino\cores\7bf7b0ebd1cd5824297d9ecc843c1978\core.a(usb_regs.c.o)
 .text.GetEPDblBuf1Count
                0x00000000       0x20 C:\Users\USER\AppData\Local\arduino\cores\7bf7b0ebd1cd5824297d9ecc843c1978\core.a(usb_regs.c.o)
 .text.GetEPDblBufDir
                0x00000000       0x44 C:\Users\USER\AppData\Local\arduino\cores\7bf7b0ebd1cd5824297d9ecc843c1978\core.a(usb_regs.c.o)
 .text.FreeUserBuffer
                0x00000000       0x3a C:\Users\USER\AppData\Local\arduino\cores\7bf7b0ebd1cd5824297d9ecc843c1978\core.a(usb_regs.c.o)
 .text.ToWord   0x00000000        0x6 C:\Users\USER\AppData\Local\arduino\cores\7bf7b0ebd1cd5824297d9ecc843c1978\core.a(usb_regs.c.o)
 .text.ByteSwap
                0x00000000        0xa C:\Users\USER\AppData\Local\arduino\cores\7bf7b0ebd1cd5824297d9ecc843c1978\core.a(usb_regs.c.o)
 .text          0x00000000        0x0 C:\Users\USER\AppData\Local\arduino\cores\7bf7b0ebd1cd5824297d9ecc843c1978\core.a(util.c.o)
 .data          0x00000000        0x0 C:\Users\USER\AppData\Local\arduino\cores\7bf7b0ebd1cd5824297d9ecc843c1978\core.a(util.c.o)
 .bss           0x00000000        0x0 C:\Users\USER\AppData\Local\arduino\cores\7bf7b0ebd1cd5824297d9ecc843c1978\core.a(util.c.o)
 .text.usart_putc
                0x00000000       0x1c C:\Users\USER\AppData\Local\arduino\cores\7bf7b0ebd1cd5824297d9ecc843c1978\core.a(util.c.o)
 .text.usart_putstr
                0x00000000       0x16 C:\Users\USER\AppData\Local\arduino\cores\7bf7b0ebd1cd5824297d9ecc843c1978\core.a(util.c.o)
 .text._fail    0x00000000       0x64 C:\Users\USER\AppData\Local\arduino\cores\7bf7b0ebd1cd5824297d9ecc843c1978\core.a(util.c.o)
 .text.__assert_func
                0x00000000        0x8 C:\Users\USER\AppData\Local\arduino\cores\7bf7b0ebd1cd5824297d9ecc843c1978\core.a(util.c.o)
 .text.abort    0x00000000       0x1c C:\Users\USER\AppData\Local\arduino\cores\7bf7b0ebd1cd5824297d9ecc843c1978\core.a(util.c.o)
 .rodata.str1.1
                0x00000000       0x42 C:\Users\USER\AppData\Local\arduino\cores\7bf7b0ebd1cd5824297d9ecc843c1978\core.a(util.c.o)
 .text          0x00000000        0x0 C:\Users\USER\AppData\Local\arduino\cores\7bf7b0ebd1cd5824297d9ecc843c1978\core.a(main.cpp.o)
 .data          0x00000000        0x0 C:\Users\USER\AppData\Local\arduino\cores\7bf7b0ebd1cd5824297d9ecc843c1978\core.a(main.cpp.o)
 .bss           0x00000000        0x0 C:\Users\USER\AppData\Local\arduino\cores\7bf7b0ebd1cd5824297d9ecc843c1978\core.a(main.cpp.o)
 .text          0x00000000        0x0 C:\Users\USER\AppData\Local\arduino\cores\7bf7b0ebd1cd5824297d9ecc843c1978\core.a(wirish_digital_f1.cpp.o)
 .data          0x00000000        0x0 C:\Users\USER\AppData\Local\arduino\cores\7bf7b0ebd1cd5824297d9ecc843c1978\core.a(wirish_digital_f1.cpp.o)
 .bss           0x00000000        0x0 C:\Users\USER\AppData\Local\arduino\cores\7bf7b0ebd1cd5824297d9ecc843c1978\core.a(wirish_digital_f1.cpp.o)
 .text          0x00000000        0x0 C:\Users\USER\AppData\Local\arduino\cores\7bf7b0ebd1cd5824297d9ecc843c1978\core.a(wirish_digital.cpp.o)
 .data          0x00000000        0x0 C:\Users\USER\AppData\Local\arduino\cores\7bf7b0ebd1cd5824297d9ecc843c1978\core.a(wirish_digital.cpp.o)
 .bss           0x00000000        0x0 C:\Users\USER\AppData\Local\arduino\cores\7bf7b0ebd1cd5824297d9ecc843c1978\core.a(wirish_digital.cpp.o)
 .text          0x00000000        0x0 C:\Users\USER\AppData\Local\arduino\cores\7bf7b0ebd1cd5824297d9ecc843c1978\core.a(wirish_time.cpp.o)
 .data          0x00000000        0x0 C:\Users\USER\AppData\Local\arduino\cores\7bf7b0ebd1cd5824297d9ecc843c1978\core.a(wirish_time.cpp.o)
 .bss           0x00000000        0x0 C:\Users\USER\AppData\Local\arduino\cores\7bf7b0ebd1cd5824297d9ecc843c1978\core.a(wirish_time.cpp.o)
 .text.micros   0x00000000       0x2c C:\Users\USER\AppData\Local\arduino\cores\7bf7b0ebd1cd5824297d9ecc843c1978\core.a(wirish_time.cpp.o)
 .text.delay    0x00000000       0x2a C:\Users\USER\AppData\Local\arduino\cores\7bf7b0ebd1cd5824297d9ecc843c1978\core.a(wirish_time.cpp.o)
 .text          0x00000000        0x0 C:\Users\USER\AppData\Local\arduino\cores\7bf7b0ebd1cd5824297d9ecc843c1978\core.a(hooks.c.o)
 .data          0x00000000        0x0 C:\Users\USER\AppData\Local\arduino\cores\7bf7b0ebd1cd5824297d9ecc843c1978\core.a(hooks.c.o)
 .bss           0x00000000        0x0 C:\Users\USER\AppData\Local\arduino\cores\7bf7b0ebd1cd5824297d9ecc843c1978\core.a(hooks.c.o)
 .text.__empty  0x00000000        0x2 C:\Users\USER\AppData\Local\arduino\cores\7bf7b0ebd1cd5824297d9ecc843c1978\core.a(hooks.c.o)
 .text          0x00000000        0x0 C:\Users\USER\AppData\Local\arduino\cores\7bf7b0ebd1cd5824297d9ecc843c1978\core.a(dma.c.o)
 .data          0x00000000        0x0 C:\Users\USER\AppData\Local\arduino\cores\7bf7b0ebd1cd5824297d9ecc843c1978\core.a(dma.c.o)
 .bss           0x00000000        0x0 C:\Users\USER\AppData\Local\arduino\cores\7bf7b0ebd1cd5824297d9ecc843c1978\core.a(dma.c.o)
 .text.dma_init
                0x00000000        0x6 C:\Users\USER\AppData\Local\arduino\cores\7bf7b0ebd1cd5824297d9ecc843c1978\core.a(dma.c.o)
 .text._dma_addr_type
                0x00000000       0x28 C:\Users\USER\AppData\Local\arduino\cores\7bf7b0ebd1cd5824297d9ecc843c1978\core.a(dma.c.o)
 .text          0x00000000        0x0 C:\Users\USER\AppData\Local\arduino\cores\7bf7b0ebd1cd5824297d9ecc843c1978\core.a(gpio.c.o)
 .data          0x00000000        0x0 C:\Users\USER\AppData\Local\arduino\cores\7bf7b0ebd1cd5824297d9ecc843c1978\core.a(gpio.c.o)
 .bss           0x00000000        0x0 C:\Users\USER\AppData\Local\arduino\cores\7bf7b0ebd1cd5824297d9ecc843c1978\core.a(gpio.c.o)
 .text          0x00000000        0x0 C:\Users\USER\AppData\Local\arduino\cores\7bf7b0ebd1cd5824297d9ecc843c1978\core.a(i2c.c.o)
 .data          0x00000000        0x0 C:\Users\USER\AppData\Local\arduino\cores\7bf7b0ebd1cd5824297d9ecc843c1978\core.a(i2c.c.o)
 .bss           0x00000000        0x0 C:\Users\USER\AppData\Local\arduino\cores\7bf7b0ebd1cd5824297d9ecc843c1978\core.a(i2c.c.o)
 .text.nvic_irq_enable
                0x00000000       0x1c C:\Users\USER\AppData\Local\arduino\cores\7bf7b0ebd1cd5824297d9ecc843c1978\core.a(i2c.c.o)
 .text.delay_us.part.0.constprop.6
                0x00000000        0xa C:\Users\USER\AppData\Local\arduino\cores\7bf7b0ebd1cd5824297d9ecc843c1978\core.a(i2c.c.o)
 .text.i2c_bus_reset
                0x00000000       0xc2 C:\Users\USER\AppData\Local\arduino\cores\7bf7b0ebd1cd5824297d9ecc843c1978\core.a(i2c.c.o)
 .text.i2c_init
                0x00000000       0x1e C:\Users\USER\AppData\Local\arduino\cores\7bf7b0ebd1cd5824297d9ecc843c1978\core.a(i2c.c.o)
 .text.wait_for_state_change
                0x00000000       0x98 C:\Users\USER\AppData\Local\arduino\cores\7bf7b0ebd1cd5824297d9ecc843c1978\core.a(i2c.c.o)
 .text.i2c_master_xfer
                0x00000000       0xcc C:\Users\USER\AppData\Local\arduino\cores\7bf7b0ebd1cd5824297d9ecc843c1978\core.a(i2c.c.o)
 .text.i2c_set_ccr_trise
                0x00000000       0x54 C:\Users\USER\AppData\Local\arduino\cores\7bf7b0ebd1cd5824297d9ecc843c1978\core.a(i2c.c.o)
 .text.i2c_master_enable
                0x00000000      0x1b4 C:\Users\USER\AppData\Local\arduino\cores\7bf7b0ebd1cd5824297d9ecc843c1978\core.a(i2c.c.o)
 .text.i2c_slave_enable
                0x00000000        0x8 C:\Users\USER\AppData\Local\arduino\cores\7bf7b0ebd1cd5824297d9ecc843c1978\core.a(i2c.c.o)
 .text.i2c_slave_attach_recv_handler
                0x00000000        0xa C:\Users\USER\AppData\Local\arduino\cores\7bf7b0ebd1cd5824297d9ecc843c1978\core.a(i2c.c.o)
 .text.i2c_slave_attach_transmit_handler
                0x00000000        0xa C:\Users\USER\AppData\Local\arduino\cores\7bf7b0ebd1cd5824297d9ecc843c1978\core.a(i2c.c.o)
 .text          0x00000000      0x370 c:/users/user/appdata/local/arduino15/packages/arduino/tools/arm-none-eabi-gcc/4.8.3-2014q1/bin/../lib/gcc/arm-none-eabi/4.8.3/armv7-m\libgcc.a(_arm_addsubdf3.o)
 .data          0x00000000        0x0 c:/users/user/appdata/local/arduino15/packages/arduino/tools/arm-none-eabi-gcc/4.8.3-2014q1/bin/../lib/gcc/arm-none-eabi/4.8.3/armv7-m\libgcc.a(_arm_addsubdf3.o)
 .bss           0x00000000        0x0 c:/users/user/appdata/local/arduino15/packages/arduino/tools/arm-none-eabi-gcc/4.8.3-2014q1/bin/../lib/gcc/arm-none-eabi/4.8.3/armv7-m\libgcc.a(_arm_addsubdf3.o)
 .text          0x00000000      0x424 c:/users/user/appdata/local/arduino15/packages/arduino/tools/arm-none-eabi-gcc/4.8.3-2014q1/bin/../lib/gcc/arm-none-eabi/4.8.3/armv7-m\libgcc.a(_arm_muldivdf3.o)
 .data          0x00000000        0x0 c:/users/user/appdata/local/arduino15/packages/arduino/tools/arm-none-eabi-gcc/4.8.3-2014q1/bin/../lib/gcc/arm-none-eabi/4.8.3/armv7-m\libgcc.a(_arm_muldivdf3.o)
 .bss           0x00000000        0x0 c:/users/user/appdata/local/arduino15/packages/arduino/tools/arm-none-eabi-gcc/4.8.3-2014q1/bin/../lib/gcc/arm-none-eabi/4.8.3/armv7-m\libgcc.a(_arm_muldivdf3.o)
 .text          0x00000000      0x110 c:/users/user/appdata/local/arduino15/packages/arduino/tools/arm-none-eabi-gcc/4.8.3-2014q1/bin/../lib/gcc/arm-none-eabi/4.8.3/armv7-m\libgcc.a(_arm_cmpdf2.o)
 .data          0x00000000        0x0 c:/users/user/appdata/local/arduino15/packages/arduino/tools/arm-none-eabi-gcc/4.8.3-2014q1/bin/../lib/gcc/arm-none-eabi/4.8.3/armv7-m\libgcc.a(_arm_cmpdf2.o)
 .bss           0x00000000        0x0 c:/users/user/appdata/local/arduino15/packages/arduino/tools/arm-none-eabi-gcc/4.8.3-2014q1/bin/../lib/gcc/arm-none-eabi/4.8.3/armv7-m\libgcc.a(_arm_cmpdf2.o)
 .text          0x00000000       0x50 c:/users/user/appdata/local/arduino15/packages/arduino/tools/arm-none-eabi-gcc/4.8.3-2014q1/bin/../lib/gcc/arm-none-eabi/4.8.3/armv7-m\libgcc.a(_arm_fixdfsi.o)
 .data          0x00000000        0x0 c:/users/user/appdata/local/arduino15/packages/arduino/tools/arm-none-eabi-gcc/4.8.3-2014q1/bin/../lib/gcc/arm-none-eabi/4.8.3/armv7-m\libgcc.a(_arm_fixdfsi.o)
 .bss           0x00000000        0x0 c:/users/user/appdata/local/arduino15/packages/arduino/tools/arm-none-eabi-gcc/4.8.3-2014q1/bin/../lib/gcc/arm-none-eabi/4.8.3/armv7-m\libgcc.a(_arm_fixdfsi.o)
 .text          0x00000000      0x21c c:/users/user/appdata/local/arduino15/packages/arduino/tools/arm-none-eabi-gcc/4.8.3-2014q1/bin/../lib/gcc/arm-none-eabi/4.8.3/armv7-m\libgcc.a(_arm_addsubsf3.o)
 .data          0x00000000        0x0 c:/users/user/appdata/local/arduino15/packages/arduino/tools/arm-none-eabi-gcc/4.8.3-2014q1/bin/../lib/gcc/arm-none-eabi/4.8.3/armv7-m\libgcc.a(_arm_addsubsf3.o)
 .bss           0x00000000        0x0 c:/users/user/appdata/local/arduino15/packages/arduino/tools/arm-none-eabi-gcc/4.8.3-2014q1/bin/../lib/gcc/arm-none-eabi/4.8.3/armv7-m\libgcc.a(_arm_addsubsf3.o)
 .text          0x00000000      0x2a0 c:/users/user/appdata/local/arduino15/packages/arduino/tools/arm-none-eabi-gcc/4.8.3-2014q1/bin/../lib/gcc/arm-none-eabi/4.8.3/armv7-m\libgcc.a(_arm_muldivsf3.o)
 .data          0x00000000        0x0 c:/users/user/appdata/local/arduino15/packages/arduino/tools/arm-none-eabi-gcc/4.8.3-2014q1/bin/../lib/gcc/arm-none-eabi/4.8.3/armv7-m\libgcc.a(_arm_muldivsf3.o)
 .bss           0x00000000        0x0 c:/users/user/appdata/local/arduino15/packages/arduino/tools/arm-none-eabi-gcc/4.8.3-2014q1/bin/../lib/gcc/arm-none-eabi/4.8.3/armv7-m\libgcc.a(_arm_muldivsf3.o)
 .text          0x00000000       0xec c:/users/user/appdata/local/arduino15/packages/arduino/tools/arm-none-eabi-gcc/4.8.3-2014q1/bin/../lib/gcc/arm-none-eabi/4.8.3/armv7-m\libgcc.a(_arm_cmpsf2.o)
 .data          0x00000000        0x0 c:/users/user/appdata/local/arduino15/packages/arduino/tools/arm-none-eabi-gcc/4.8.3-2014q1/bin/../lib/gcc/arm-none-eabi/4.8.3/armv7-m\libgcc.a(_arm_cmpsf2.o)
 .bss           0x00000000        0x0 c:/users/user/appdata/local/arduino15/packages/arduino/tools/arm-none-eabi-gcc/4.8.3-2014q1/bin/../lib/gcc/arm-none-eabi/4.8.3/armv7-m\libgcc.a(_arm_cmpsf2.o)
 .text          0x00000000       0x4c c:/users/user/appdata/local/arduino15/packages/arduino/tools/arm-none-eabi-gcc/4.8.3-2014q1/bin/../lib/gcc/arm-none-eabi/4.8.3/armv7-m\libgcc.a(_arm_fixsfsi.o)
 .data          0x00000000        0x0 c:/users/user/appdata/local/arduino15/packages/arduino/tools/arm-none-eabi-gcc/4.8.3-2014q1/bin/../lib/gcc/arm-none-eabi/4.8.3/armv7-m\libgcc.a(_arm_fixsfsi.o)
 .bss           0x00000000        0x0 c:/users/user/appdata/local/arduino15/packages/arduino/tools/arm-none-eabi-gcc/4.8.3-2014q1/bin/../lib/gcc/arm-none-eabi/4.8.3/armv7-m\libgcc.a(_arm_fixsfsi.o)
 .data          0x00000000        0x0 c:/users/user/appdata/local/arduino15/packages/arduino/tools/arm-none-eabi-gcc/4.8.3-2014q1/bin/../lib/gcc/arm-none-eabi/4.8.3/armv7-m\libgcc.a(_aeabi_ldivmod.o)
 .bss           0x00000000        0x0 c:/users/user/appdata/local/arduino15/packages/arduino/tools/arm-none-eabi-gcc/4.8.3-2014q1/bin/../lib/gcc/arm-none-eabi/4.8.3/armv7-m\libgcc.a(_aeabi_ldivmod.o)
 .text          0x00000000       0x2c c:/users/user/appdata/local/arduino15/packages/arduino/tools/arm-none-eabi-gcc/4.8.3-2014q1/bin/../lib/gcc/arm-none-eabi/4.8.3/armv7-m\libgcc.a(_aeabi_uldivmod.o)
 .data          0x00000000        0x0 c:/users/user/appdata/local/arduino15/packages/arduino/tools/arm-none-eabi-gcc/4.8.3-2014q1/bin/../lib/gcc/arm-none-eabi/4.8.3/armv7-m\libgcc.a(_aeabi_uldivmod.o)
 .bss           0x00000000        0x0 c:/users/user/appdata/local/arduino15/packages/arduino/tools/arm-none-eabi-gcc/4.8.3-2014q1/bin/../lib/gcc/arm-none-eabi/4.8.3/armv7-m\libgcc.a(_aeabi_uldivmod.o)
 .text          0x00000000       0x30 c:/users/user/appdata/local/arduino15/packages/arduino/tools/arm-none-eabi-gcc/4.8.3-2014q1/bin/../lib/gcc/arm-none-eabi/4.8.3/armv7-m\libgcc.a(_fixdfdi.o)
 .data          0x00000000        0x0 c:/users/user/appdata/local/arduino15/packages/arduino/tools/arm-none-eabi-gcc/4.8.3-2014q1/bin/../lib/gcc/arm-none-eabi/4.8.3/armv7-m\libgcc.a(_fixdfdi.o)
 .bss           0x00000000        0x0 c:/users/user/appdata/local/arduino15/packages/arduino/tools/arm-none-eabi-gcc/4.8.3-2014q1/bin/../lib/gcc/arm-none-eabi/4.8.3/armv7-m\libgcc.a(_fixdfdi.o)
 .text          0x00000000       0x44 c:/users/user/appdata/local/arduino15/packages/arduino/tools/arm-none-eabi-gcc/4.8.3-2014q1/bin/../lib/gcc/arm-none-eabi/4.8.3/armv7-m\libgcc.a(_fixunsdfdi.o)
 .data          0x00000000        0x0 c:/users/user/appdata/local/arduino15/packages/arduino/tools/arm-none-eabi-gcc/4.8.3-2014q1/bin/../lib/gcc/arm-none-eabi/4.8.3/armv7-m\libgcc.a(_fixunsdfdi.o)
 .bss           0x00000000        0x0 c:/users/user/appdata/local/arduino15/packages/arduino/tools/arm-none-eabi-gcc/4.8.3-2014q1/bin/../lib/gcc/arm-none-eabi/4.8.3/armv7-m\libgcc.a(_fixunsdfdi.o)
 .data          0x00000000        0x0 c:/users/user/appdata/local/arduino15/packages/arduino/tools/arm-none-eabi-gcc/4.8.3-2014q1/bin/../lib/gcc/arm-none-eabi/4.8.3/armv7-m\libgcc.a(bpabi.o)
 .bss           0x00000000        0x0 c:/users/user/appdata/local/arduino15/packages/arduino/tools/arm-none-eabi-gcc/4.8.3-2014q1/bin/../lib/gcc/arm-none-eabi/4.8.3/armv7-m\libgcc.a(bpabi.o)
 .data          0x00000000        0x0 c:/users/user/appdata/local/arduino15/packages/arduino/tools/arm-none-eabi-gcc/4.8.3-2014q1/bin/../lib/gcc/arm-none-eabi/4.8.3/armv7-m\libgcc.a(_dvmd_tls.o)
 .bss           0x00000000        0x0 c:/users/user/appdata/local/arduino15/packages/arduino/tools/arm-none-eabi-gcc/4.8.3-2014q1/bin/../lib/gcc/arm-none-eabi/4.8.3/armv7-m\libgcc.a(_dvmd_tls.o)
 .text          0x00000000       0x40 c:/users/user/appdata/local/arduino15/packages/arduino/tools/arm-none-eabi-gcc/4.8.3-2014q1/bin/../lib/gcc/arm-none-eabi/4.8.3/armv7-m\libgcc.a(_arm_fixunsdfsi.o)
 .data          0x00000000        0x0 c:/users/user/appdata/local/arduino15/packages/arduino/tools/arm-none-eabi-gcc/4.8.3-2014q1/bin/../lib/gcc/arm-none-eabi/4.8.3/armv7-m\libgcc.a(_arm_fixunsdfsi.o)
 .bss           0x00000000        0x0 c:/users/user/appdata/local/arduino15/packages/arduino/tools/arm-none-eabi-gcc/4.8.3-2014q1/bin/../lib/gcc/arm-none-eabi/4.8.3/armv7-m\libgcc.a(_arm_fixunsdfsi.o)
 .data          0x00000000        0x0 c:/users/user/appdata/local/arduino15/packages/arduino/tools/arm-none-eabi-gcc/4.8.3-2014q1/bin/../lib/gcc/arm-none-eabi/4.8.3/armv7-m\libgcc.a(_divdi3.o)
 .bss           0x00000000        0x0 c:/users/user/appdata/local/arduino15/packages/arduino/tools/arm-none-eabi-gcc/4.8.3-2014q1/bin/../lib/gcc/arm-none-eabi/4.8.3/armv7-m\libgcc.a(_divdi3.o)
 .ARM.extab     0x00000000        0x0 c:/users/user/appdata/local/arduino15/packages/arduino/tools/arm-none-eabi-gcc/4.8.3-2014q1/bin/../lib/gcc/arm-none-eabi/4.8.3/armv7-m\libgcc.a(_divdi3.o)
 .data          0x00000000        0x0 c:/users/user/appdata/local/arduino15/packages/arduino/tools/arm-none-eabi-gcc/4.8.3-2014q1/bin/../lib/gcc/arm-none-eabi/4.8.3/armv7-m\libgcc.a(_udivdi3.o)
 .bss           0x00000000        0x0 c:/users/user/appdata/local/arduino15/packages/arduino/tools/arm-none-eabi-gcc/4.8.3-2014q1/bin/../lib/gcc/arm-none-eabi/4.8.3/armv7-m\libgcc.a(_udivdi3.o)
 .ARM.extab     0x00000000        0x0 c:/users/user/appdata/local/arduino15/packages/arduino/tools/arm-none-eabi-gcc/4.8.3-2014q1/bin/../lib/gcc/arm-none-eabi/4.8.3/armv7-m\libgcc.a(_udivdi3.o)
 .text          0x00000000        0x0 c:/users/user/appdata/local/arduino15/packages/arduino/tools/arm-none-eabi-gcc/4.8.3-2014q1/bin/../lib/gcc/arm-none-eabi/4.8.3/../../../../arm-none-eabi/lib/armv7-m\libc_s.a(lib_a-errno.o)
 .data          0x00000000        0x0 c:/users/user/appdata/local/arduino15/packages/arduino/tools/arm-none-eabi-gcc/4.8.3-2014q1/bin/../lib/gcc/arm-none-eabi/4.8.3/../../../../arm-none-eabi/lib/armv7-m\libc_s.a(lib_a-errno.o)
 .bss           0x00000000        0x0 c:/users/user/appdata/local/arduino15/packages/arduino/tools/arm-none-eabi-gcc/4.8.3-2014q1/bin/../lib/gcc/arm-none-eabi/4.8.3/../../../../arm-none-eabi/lib/armv7-m\libc_s.a(lib_a-errno.o)
 .text.__errno  0x00000000        0xc c:/users/user/appdata/local/arduino15/packages/arduino/tools/arm-none-eabi-gcc/4.8.3-2014q1/bin/../lib/gcc/arm-none-eabi/4.8.3/../../../../arm-none-eabi/lib/armv7-m\libc_s.a(lib_a-errno.o)
 .text          0x00000000        0x0 c:/users/user/appdata/local/arduino15/packages/arduino/tools/arm-none-eabi-gcc/4.8.3-2014q1/bin/../lib/gcc/arm-none-eabi/4.8.3/../../../../arm-none-eabi/lib/armv7-m\libc_s.a(lib_a-exit.o)
 .data          0x00000000        0x0 c:/users/user/appdata/local/arduino15/packages/arduino/tools/arm-none-eabi-gcc/4.8.3-2014q1/bin/../lib/gcc/arm-none-eabi/4.8.3/../../../../arm-none-eabi/lib/armv7-m\libc_s.a(lib_a-exit.o)
 .bss           0x00000000        0x0 c:/users/user/appdata/local/arduino15/packages/arduino/tools/arm-none-eabi-gcc/4.8.3-2014q1/bin/../lib/gcc/arm-none-eabi/4.8.3/../../../../arm-none-eabi/lib/armv7-m\libc_s.a(lib_a-exit.o)
 .text          0x00000000        0x0 c:/users/user/appdata/local/arduino15/packages/arduino/tools/arm-none-eabi-gcc/4.8.3-2014q1/bin/../lib/gcc/arm-none-eabi/4.8.3/../../../../arm-none-eabi/lib/armv7-m\libc_s.a(lib_a-impure.o)
 .data          0x00000000        0x0 c:/users/user/appdata/local/arduino15/packages/arduino/tools/arm-none-eabi-gcc/4.8.3-2014q1/bin/../lib/gcc/arm-none-eabi/4.8.3/../../../../arm-none-eabi/lib/armv7-m\libc_s.a(lib_a-impure.o)
 .bss           0x00000000        0x0 c:/users/user/appdata/local/arduino15/packages/arduino/tools/arm-none-eabi-gcc/4.8.3-2014q1/bin/../lib/gcc/arm-none-eabi/4.8.3/../../../../arm-none-eabi/lib/armv7-m\libc_s.a(lib_a-impure.o)
 .data._impure_ptr
                0x00000000        0x4 c:/users/user/appdata/local/arduino15/packages/arduino/tools/arm-none-eabi-gcc/4.8.3-2014q1/bin/../lib/gcc/arm-none-eabi/4.8.3/../../../../arm-none-eabi/lib/armv7-m\libc_s.a(lib_a-impure.o)
 .text          0x00000000        0x0 c:/users/user/appdata/local/arduino15/packages/arduino/tools/arm-none-eabi-gcc/4.8.3-2014q1/bin/../lib/gcc/arm-none-eabi/4.8.3/../../../../arm-none-eabi/lib/armv7-m\libc_s.a(lib_a-init.o)
 .data          0x00000000        0x0 c:/users/user/appdata/local/arduino15/packages/arduino/tools/arm-none-eabi-gcc/4.8.3-2014q1/bin/../lib/gcc/arm-none-eabi/4.8.3/../../../../arm-none-eabi/lib/armv7-m\libc_s.a(lib_a-init.o)
 .bss           0x00000000        0x0 c:/users/user/appdata/local/arduino15/packages/arduino/tools/arm-none-eabi-gcc/4.8.3-2014q1/bin/../lib/gcc/arm-none-eabi/4.8.3/../../../../arm-none-eabi/lib/armv7-m\libc_s.a(lib_a-init.o)
 .text          0x00000000        0x0 c:/users/user/appdata/local/arduino15/packages/arduino/tools/arm-none-eabi-gcc/4.8.3-2014q1/bin/../lib/gcc/arm-none-eabi/4.8.3/../../../../arm-none-eabi/lib/armv7-m\libc_s.a(lib_a-memcpy-stub.o)
 .data          0x00000000        0x0 c:/users/user/appdata/local/arduino15/packages/arduino/tools/arm-none-eabi-gcc/4.8.3-2014q1/bin/../lib/gcc/arm-none-eabi/4.8.3/../../../../arm-none-eabi/lib/armv7-m\libc_s.a(lib_a-memcpy-stub.o)
 .bss           0x00000000        0x0 c:/users/user/appdata/local/arduino15/packages/arduino/tools/arm-none-eabi-gcc/4.8.3-2014q1/bin/../lib/gcc/arm-none-eabi/4.8.3/../../../../arm-none-eabi/lib/armv7-m\libc_s.a(lib_a-memcpy-stub.o)
 .text          0x00000000        0x0 c:/users/user/appdata/local/arduino15/packages/arduino/tools/arm-none-eabi-gcc/4.8.3-2014q1/bin/../lib/gcc/arm-none-eabi/4.8.3/../../../../arm-none-eabi/lib/armv7-m\libc_s.a(lib_a-memset.o)
 .data          0x00000000        0x0 c:/users/user/appdata/local/arduino15/packages/arduino/tools/arm-none-eabi-gcc/4.8.3-2014q1/bin/../lib/gcc/arm-none-eabi/4.8.3/../../../../arm-none-eabi/lib/armv7-m\libc_s.a(lib_a-memset.o)
 .bss           0x00000000        0x0 c:/users/user/appdata/local/arduino15/packages/arduino/tools/arm-none-eabi-gcc/4.8.3-2014q1/bin/../lib/gcc/arm-none-eabi/4.8.3/../../../../arm-none-eabi/lib/armv7-m\libc_s.a(lib_a-memset.o)
 .text.memset   0x00000000       0x10 c:/users/user/appdata/local/arduino15/packages/arduino/tools/arm-none-eabi-gcc/4.8.3-2014q1/bin/../lib/gcc/arm-none-eabi/4.8.3/../../../../arm-none-eabi/lib/armv7-m\libc_s.a(lib_a-memset.o)
 .text          0x00000000        0x0 c:/users/user/appdata/local/arduino15/packages/arduino/tools/arm-none-eabi-gcc/4.8.3-2014q1/bin/../lib/gcc/arm-none-eabi/4.8.3/../../../../arm-none-eabi/lib/armv7-m\libc_s.a(lib_a-strcpy.o)
 .data          0x00000000        0x0 c:/users/user/appdata/local/arduino15/packages/arduino/tools/arm-none-eabi-gcc/4.8.3-2014q1/bin/../lib/gcc/arm-none-eabi/4.8.3/../../../../arm-none-eabi/lib/armv7-m\libc_s.a(lib_a-strcpy.o)
 .bss           0x00000000        0x0 c:/users/user/appdata/local/arduino15/packages/arduino/tools/arm-none-eabi-gcc/4.8.3-2014q1/bin/../lib/gcc/arm-none-eabi/4.8.3/../../../../arm-none-eabi/lib/armv7-m\libc_s.a(lib_a-strcpy.o)
 .text.strcpy   0x00000000       0x10 c:/users/user/appdata/local/arduino15/packages/arduino/tools/arm-none-eabi-gcc/4.8.3-2014q1/bin/../lib/gcc/arm-none-eabi/4.8.3/../../../../arm-none-eabi/lib/armv7-m\libc_s.a(lib_a-strcpy.o)
 .text          0x00000000        0x0 c:/users/user/appdata/local/arduino15/packages/arduino/tools/arm-none-eabi-gcc/4.8.3-2014q1/bin/../lib/gcc/arm-none-eabi/4.8.3/../../../../arm-none-eabi/lib/armv7-m\libc_s.a(lib_a-strlen.o)
 .data          0x00000000        0x0 c:/users/user/appdata/local/arduino15/packages/arduino/tools/arm-none-eabi-gcc/4.8.3-2014q1/bin/../lib/gcc/arm-none-eabi/4.8.3/../../../../arm-none-eabi/lib/armv7-m\libc_s.a(lib_a-strlen.o)
 .bss           0x00000000        0x0 c:/users/user/appdata/local/arduino15/packages/arduino/tools/arm-none-eabi-gcc/4.8.3-2014q1/bin/../lib/gcc/arm-none-eabi/4.8.3/../../../../arm-none-eabi/lib/armv7-m\libc_s.a(lib_a-strlen.o)
 .text          0x00000000        0x0 c:/users/user/appdata/local/arduino15/packages/arduino/tools/arm-none-eabi-gcc/4.8.3-2014q1/bin/../lib/gcc/arm-none-eabi/4.8.3/armv7-m/crtend.o
 .data          0x00000000        0x0 c:/users/user/appdata/local/arduino15/packages/arduino/tools/arm-none-eabi-gcc/4.8.3-2014q1/bin/../lib/gcc/arm-none-eabi/4.8.3/armv7-m/crtend.o
 .bss           0x00000000        0x0 c:/users/user/appdata/local/arduino15/packages/arduino/tools/arm-none-eabi-gcc/4.8.3-2014q1/bin/../lib/gcc/arm-none-eabi/4.8.3/armv7-m/crtend.o
 .eh_frame      0x00000000        0x4 c:/users/user/appdata/local/arduino15/packages/arduino/tools/arm-none-eabi-gcc/4.8.3-2014q1/bin/../lib/gcc/arm-none-eabi/4.8.3/armv7-m/crtend.o
 .jcr           0x00000000        0x4 c:/users/user/appdata/local/arduino15/packages/arduino/tools/arm-none-eabi-gcc/4.8.3-2014q1/bin/../lib/gcc/arm-none-eabi/4.8.3/armv7-m/crtend.o
 .text          0x00000000        0x0 c:/users/user/appdata/local/arduino15/packages/arduino/tools/arm-none-eabi-gcc/4.8.3-2014q1/bin/../lib/gcc/arm-none-eabi/4.8.3/armv7-m/crtn.o
 .data          0x00000000        0x0 c:/users/user/appdata/local/arduino15/packages/arduino/tools/arm-none-eabi-gcc/4.8.3-2014q1/bin/../lib/gcc/arm-none-eabi/4.8.3/armv7-m/crtn.o
 .bss           0x00000000        0x0 c:/users/user/appdata/local/arduino15/packages/arduino/tools/arm-none-eabi-gcc/4.8.3-2014q1/bin/../lib/gcc/arm-none-eabi/4.8.3/armv7-m/crtn.o

Memory Configuration

Name             Origin             Length             Attributes
ram              0x20000000         0x00005000         xrw
rom              0x08000000         0x00020000         xr
*default*        0x00000000         0xffffffff

Linker script and memory map

LOAD c:/users/user/appdata/local/arduino15/packages/arduino/tools/arm-none-eabi-gcc/4.8.3-2014q1/bin/../lib/gcc/arm-none-eabi/4.8.3/armv7-m/crti.o
LOAD c:/users/user/appdata/local/arduino15/packages/arduino/tools/arm-none-eabi-gcc/4.8.3-2014q1/bin/../lib/gcc/arm-none-eabi/4.8.3/armv7-m/crtbegin.o
LOAD c:/users/user/appdata/local/arduino15/packages/arduino/tools/arm-none-eabi-gcc/4.8.3-2014q1/bin/../lib/gcc/arm-none-eabi/4.8.3/../../../../arm-none-eabi/lib/armv7-m/crt0.o
LOAD c:/users/user/appdata/local/arduino15/packages/arduino/tools/arm-none-eabi-gcc/4.8.3-2014q1/bin/../lib/gcc/arm-none-eabi/4.8.3/armv7-m\libgcc.a
START GROUP
LOAD C:\Users\USER\AppData\Local\arduino\sketches\452188ACB23955C2F3838071FEF76B93\sketch\Lavadora.ino.cpp.o
LOAD C:\Users\USER\AppData\Local\arduino\sketches\452188ACB23955C2F3838071FEF76B93\sketch\SevSeg.cpp.o
LOAD C:\Users\USER\AppData\Local\arduino\sketches\452188ACB23955C2F3838071FEF76B93\core\board.cpp.o
LOAD C:\Users\USER\AppData\Local\arduino\sketches\452188ACB23955C2F3838071FEF76B93\core\wirish\boards.cpp.o
LOAD C:\Users\USER\AppData\Local\arduino\sketches\452188ACB23955C2F3838071FEF76B93\core\wirish\boards_setup.cpp.o
LOAD C:\Users\USER\AppData\Local\arduino\sketches\452188ACB23955C2F3838071FEF76B93\core\wirish\start.S.o
LOAD C:\Users\USER\AppData\Local\arduino\sketches\452188ACB23955C2F3838071FEF76B93\core\wirish\start_c.c.o
LOAD C:\Users\USER\AppData\Local\arduino\sketches\452188ACB23955C2F3838071FEF76B93\core\wirish\syscalls.c.o
LOAD C:\Users\USER\AppData\Local\arduino\cores\7bf7b0ebd1cd5824297d9ecc843c1978\core.a
END GROUP
LOAD c:/users/user/appdata/local/arduino15/packages/arduino/tools/arm-none-eabi-gcc/4.8.3-2014q1/bin/../lib/gcc/arm-none-eabi/4.8.3/../../../../arm-none-eabi/lib/armv7-m\libstdc++_s.a
LOAD c:/users/user/appdata/local/arduino15/packages/arduino/tools/arm-none-eabi-gcc/4.8.3-2014q1/bin/../lib/gcc/arm-none-eabi/4.8.3/../../../../arm-none-eabi/lib/armv7-m\libm.a
START GROUP
LOAD c:/users/user/appdata/local/arduino15/packages/arduino/tools/arm-none-eabi-gcc/4.8.3-2014q1/bin/../lib/gcc/arm-none-eabi/4.8.3/armv7-m\libgcc.a
LOAD c:/users/user/appdata/local/arduino15/packages/arduino/tools/arm-none-eabi-gcc/4.8.3-2014q1/bin/../lib/gcc/arm-none-eabi/4.8.3/../../../../arm-none-eabi/lib/armv7-m\libc_s.a
END GROUP
START GROUP
LOAD c:/users/user/appdata/local/arduino15/packages/arduino/tools/arm-none-eabi-gcc/4.8.3-2014q1/bin/../lib/gcc/arm-none-eabi/4.8.3/armv7-m\libgcc.a
LOAD c:/users/user/appdata/local/arduino15/packages/arduino/tools/arm-none-eabi-gcc/4.8.3-2014q1/bin/../lib/gcc/arm-none-eabi/4.8.3/../../../../arm-none-eabi/lib/armv7-m\libc_s.a
END GROUP
LOAD c:/users/user/appdata/local/arduino15/packages/arduino/tools/arm-none-eabi-gcc/4.8.3-2014q1/bin/../lib/gcc/arm-none-eabi/4.8.3/armv7-m/crtend.o
LOAD c:/users/user/appdata/local/arduino15/packages/arduino/tools/arm-none-eabi-gcc/4.8.3-2014q1/bin/../lib/gcc/arm-none-eabi/4.8.3/armv7-m/crtn.o
START GROUP
LOAD c:/users/user/appdata/local/arduino15/packages/arduino/tools/arm-none-eabi-gcc/4.8.3-2014q1/bin/../lib/gcc/arm-none-eabi/4.8.3/armv7-m\libgcc.a
LOAD c:/users/user/appdata/local/arduino15/packages/arduino/tools/arm-none-eabi-gcc/4.8.3-2014q1/bin/../lib/gcc/arm-none-eabi/4.8.3/../../../../arm-none-eabi/lib/armv7-m\libc.a
LOAD c:/users/user/appdata/local/arduino15/packages/arduino/tools/arm-none-eabi-gcc/4.8.3-2014q1/bin/../lib/gcc/arm-none-eabi/4.8.3/../../../../arm-none-eabi/lib/armv7-m\libm.a
END GROUP
START GROUP
LOAD c:/users/user/appdata/local/arduino15/packages/arduino/tools/arm-none-eabi-gcc/4.8.3-2014q1/bin/../lib/gcc/arm-none-eabi/4.8.3/../../../../arm-none-eabi/lib/armv7-m\libnosys.a
END GROUP
                0x20005000                PROVIDE (__msp_init, (ORIGIN (ram) + 0x5000))
                0x080014f8                PROVIDE (__exc_reset, __start__)

.text           0x08000000     0x3be8
                0x08000000                __text_start__ = .
 *(.stm32.interrupt_vector)
 .stm32.interrupt_vector
                0x08000000       0xec C:\Users\USER\AppData\Local\arduino\cores\7bf7b0ebd1cd5824297d9ecc843c1978\core.a(vector_table.S.o)
                0x08000000                __stm32_vector_table
 *(.text .text.* .gnu.linkonce.t.*)
 .text          0x080000ec       0x54 c:/users/user/appdata/local/arduino15/packages/arduino/tools/arm-none-eabi-gcc/4.8.3-2014q1/bin/../lib/gcc/arm-none-eabi/4.8.3/armv7-m/crtbegin.o
 .text._Z5setupv
                0x08000140      0x22c C:\Users\USER\AppData\Local\arduino\sketches\452188ACB23955C2F3838071FEF76B93\sketch\Lavadora.ino.cpp.o
                0x08000140                setup()
 .text._Z8debounceiRbRm
                0x0800036c       0x38 C:\Users\USER\AppData\Local\arduino\sketches\452188ACB23955C2F3838071FEF76B93\sketch\Lavadora.ino.cpp.o
                0x0800036c                debounce(int, bool&, unsigned long&)
 .text._Z10apagarTodov
                0x080003a4       0x8c C:\Users\USER\AppData\Local\arduino\sketches\452188ACB23955C2F3838071FEF76B93\sketch\Lavadora.ino.cpp.o
                0x080003a4                apagarTodo()
 .text._Z20manejarBotonEncenderv
                0x08000430       0x40 C:\Users\USER\AppData\Local\arduino\sketches\452188ACB23955C2F3838071FEF76B93\sketch\Lavadora.ino.cpp.o
                0x08000430                manejarBotonEncender()
 .text._Z13ajustarTiempov
                0x08000470       0x60 C:\Users\USER\AppData\Local\arduino\sketches\452188ACB23955C2F3838071FEF76B93\sketch\Lavadora.ino.cpp.o
                0x08000470                ajustarTiempo()
 .text._Z20configurarTipoLavadoi
                0x080004d0      0x158 C:\Users\USER\AppData\Local\arduino\sketches\452188ACB23955C2F3838071FEF76B93\sketch\Lavadora.ino.cpp.o
                0x080004d0                configurarTipoLavado(int)
 .text._Z22configurarCantidadRopai
                0x08000628       0xd4 C:\Users\USER\AppData\Local\arduino\sketches\452188ACB23955C2F3838071FEF76B93\sketch\Lavadora.ino.cpp.o
                0x08000628                configurarCantidadRopa(int)
 .text._Z18cambiarTemperaturav
                0x080006fc       0x98 C:\Users\USER\AppData\Local\arduino\sketches\452188ACB23955C2F3838071FEF76B93\sketch\Lavadora.ino.cpp.o
                0x080006fc                cambiarTemperatura()
 .text._Z19configurarNivelAguai
                0x08000794       0xb4 C:\Users\USER\AppData\Local\arduino\sketches\452188ACB23955C2F3838071FEF76B93\sketch\Lavadora.ino.cpp.o
                0x08000794                configurarNivelAgua(int)
 .text._Z21configurarNivelLavadoi
                0x08000848       0xc0 C:\Users\USER\AppData\Local\arduino\sketches\452188ACB23955C2F3838071FEF76B93\sketch\Lavadora.ino.cpp.o
                0x08000848                configurarNivelLavado(int)
 .text._Z18configurarEnjuaguei
                0x08000908       0xc0 C:\Users\USER\AppData\Local\arduino\sketches\452188ACB23955C2F3838071FEF76B93\sketch\Lavadora.ino.cpp.o
                0x08000908                configurarEnjuague(int)
 .text._Z22configurarCentrifugadoi
                0x080009c8       0xc0 C:\Users\USER\AppData\Local\arduino\sketches\452188ACB23955C2F3838071FEF76B93\sketch\Lavadora.ino.cpp.o
                0x080009c8                configurarCentrifugado(int)
 .text._Z14manejarBotonesv
                0x08000a88      0x218 C:\Users\USER\AppData\Local\arduino\sketches\452188ACB23955C2F3838071FEF76B93\sketch\Lavadora.ino.cpp.o
                0x08000a88                manejarBotones()
 .text._Z13mostrarTiempov
                0x08000ca0       0x34 C:\Users\USER\AppData\Local\arduino\sketches\452188ACB23955C2F3838071FEF76B93\sketch\Lavadora.ino.cpp.o
                0x08000ca0                mostrarTiempo()
 .text._Z22actualizarTemporizadorv
                0x08000cd4       0xcc C:\Users\USER\AppData\Local\arduino\sketches\452188ACB23955C2F3838071FEF76B93\sketch\Lavadora.ino.cpp.o
                0x08000cd4                actualizarTemporizador()
 .text._Z4loopv
                0x08000da0       0x4c C:\Users\USER\AppData\Local\arduino\sketches\452188ACB23955C2F3838071FEF76B93\sketch\Lavadora.ino.cpp.o
                0x08000da0                loop()
 .text.startup._GLOBAL__sub_I_sevseg
                0x08000dec        0xc C:\Users\USER\AppData\Local\arduino\sketches\452188ACB23955C2F3838071FEF76B93\sketch\Lavadora.ino.cpp.o
 .text._ZN6SevSegC2Ev
                0x08000df8       0x1a C:\Users\USER\AppData\Local\arduino\sketches\452188ACB23955C2F3838071FEF76B93\sketch\SevSeg.cpp.o
                0x08000df8                SevSeg::SevSeg()
                0x08000df8                SevSeg::SevSeg()
 .text._ZN6SevSeg9segmentOnEh
                0x08000e12       0x34 C:\Users\USER\AppData\Local\arduino\sketches\452188ACB23955C2F3838071FEF76B93\sketch\SevSeg.cpp.o
                0x08000e12                SevSeg::segmentOn(unsigned char)
 .text._ZN6SevSeg10segmentOffEh
                0x08000e46       0x2e C:\Users\USER\AppData\Local\arduino\sketches\452188ACB23955C2F3838071FEF76B93\sketch\SevSeg.cpp.o
                0x08000e46                SevSeg::segmentOff(unsigned char)
 .text._ZN6SevSeg7digitOnEh
                0x08000e74       0x30 C:\Users\USER\AppData\Local\arduino\sketches\452188ACB23955C2F3838071FEF76B93\sketch\SevSeg.cpp.o
                0x08000e74                SevSeg::digitOn(unsigned char)
 .text._ZN6SevSeg8digitOffEh
                0x08000ea4       0x2e C:\Users\USER\AppData\Local\arduino\sketches\452188ACB23955C2F3838071FEF76B93\sketch\SevSeg.cpp.o
                0x08000ea4                SevSeg::digitOff(unsigned char)
 *fill*         0x08000ed2        0x2 
 .text._ZN6SevSeg14refreshDisplayEv
                0x08000ed4      0x11c C:\Users\USER\AppData\Local\arduino\sketches\452188ACB23955C2F3838071FEF76B93\sketch\SevSeg.cpp.o
                0x08000ed4                SevSeg::refreshDisplay()
 .text._ZN6SevSeg13setBrightnessEs
                0x08000ff0       0x54 C:\Users\USER\AppData\Local\arduino\sketches\452188ACB23955C2F3838071FEF76B93\sketch\SevSeg.cpp.o
                0x08000ff0                SevSeg::setBrightness(short)
 .text._ZN6SevSeg8setCharsEPKc
                0x08001044       0xa4 C:\Users\USER\AppData\Local\arduino\sketches\452188ACB23955C2F3838071FEF76B93\sketch\SevSeg.cpp.o
                0x08001044                SevSeg::setChars(char const*)
 .text._ZN6SevSeg5blankEv
                0x080010e8       0x2c C:\Users\USER\AppData\Local\arduino\sketches\452188ACB23955C2F3838071FEF76B93\sketch\SevSeg.cpp.o
                0x080010e8                SevSeg::blank()
 .text._ZN6SevSeg5beginEhhPKhS1_bbbb
                0x08001114       0xdc C:\Users\USER\AppData\Local\arduino\sketches\452188ACB23955C2F3838071FEF76B93\sketch\SevSeg.cpp.o
                0x08001114                SevSeg::begin(unsigned char, unsigned char, unsigned char const*, unsigned char const*, bool, bool, bool, bool)
 .text._ZN6SevSeg10findDigitsElabPh
                0x080011f0       0xa4 C:\Users\USER\AppData\Local\arduino\sketches\452188ACB23955C2F3838071FEF76B93\sketch\SevSeg.cpp.o
                0x080011f0                SevSeg::findDigits(long, signed char, bool, unsigned char*)
 .text._ZN6SevSeg13setDigitCodesEPKha
                0x08001294       0x34 C:\Users\USER\AppData\Local\arduino\sketches\452188ACB23955C2F3838071FEF76B93\sketch\SevSeg.cpp.o
                0x08001294                SevSeg::setDigitCodes(unsigned char const*, signed char)
 .text._ZN6SevSeg9setNewNumElab
                0x080012c8       0x1c C:\Users\USER\AppData\Local\arduino\sketches\452188ACB23955C2F3838071FEF76B93\sketch\SevSeg.cpp.o
                0x080012c8                SevSeg::setNewNum(long, signed char, bool)
 .text._ZN6SevSeg9setNumberElab
                0x080012e4        0x4 C:\Users\USER\AppData\Local\arduino\sketches\452188ACB23955C2F3838071FEF76B93\sketch\SevSeg.cpp.o
                0x080012e4                SevSeg::setNumber(long, signed char, bool)
 .text._Z9boardInitv
                0x080012e8       0x30 C:\Users\USER\AppData\Local\arduino\sketches\452188ACB23955C2F3838071FEF76B93\core\board.cpp.o
                0x080012e8                boardInit()
 .text.startup._GLOBAL__sub_I__Z9boardInitv
                0x08001318       0x48 C:\Users\USER\AppData\Local\arduino\sketches\452188ACB23955C2F3838071FEF76B93\core\board.cpp.o
 .text._ZL18adc_default_configP7adc_dev
                0x08001360       0x1c C:\Users\USER\AppData\Local\arduino\sketches\452188ACB23955C2F3838071FEF76B93\core\wirish\boards.cpp.o
 .text._ZL20timer_default_configP9timer_dev
                0x0800137c       0x9e C:\Users\USER\AppData\Local\arduino\sketches\452188ACB23955C2F3838071FEF76B93\core\wirish\boards.cpp.o
 *fill*         0x0800141a        0x2 
 .text._Z4initv
                0x0800141c       0xa8 C:\Users\USER\AppData\Local\arduino\sketches\452188ACB23955C2F3838071FEF76B93\core\wirish\boards.cpp.o
                0x0800141c                init()
 .text._ZN6wirish4priv15board_reset_pllEv
                0x080014c4        0x2 C:\Users\USER\AppData\Local\arduino\sketches\452188ACB23955C2F3838071FEF76B93\core\wirish\boards_setup.cpp.o
                0x080014c4                wirish::priv::board_reset_pll()
 .text._ZN6wirish4priv28board_setup_clock_prescalersEv
                0x080014c6       0x26 C:\Users\USER\AppData\Local\arduino\sketches\452188ACB23955C2F3838071FEF76B93\core\wirish\boards_setup.cpp.o
                0x080014c6                wirish::priv::board_setup_clock_prescalers()
 .text._ZN6wirish4priv16board_setup_gpioEv
                0x080014ec        0x4 C:\Users\USER\AppData\Local\arduino\sketches\452188ACB23955C2F3838071FEF76B93\core\wirish\boards_setup.cpp.o
                0x080014ec                wirish::priv::board_setup_gpio()
 .text._ZN6wirish4priv15board_setup_usbEv
                0x080014f0        0x2 C:\Users\USER\AppData\Local\arduino\sketches\452188ACB23955C2F3838071FEF76B93\core\wirish\boards_setup.cpp.o
                0x080014f0                wirish::priv::board_setup_usb()
 .text._ZN6wirish4priv11series_initEv
                0x080014f2        0x4 C:\Users\USER\AppData\Local\arduino\sketches\452188ACB23955C2F3838071FEF76B93\core\wirish\boards_setup.cpp.o
                0x080014f2                wirish::priv::series_init()
 *fill*         0x080014f6        0x2 
 .text          0x080014f8       0x10 C:\Users\USER\AppData\Local\arduino\sketches\452188ACB23955C2F3838071FEF76B93\core\wirish\start.S.o
                0x080014f8                __start__
 .text.start_c  0x08001508       0x64 C:\Users\USER\AppData\Local\arduino\sketches\452188ACB23955C2F3838071FEF76B93\core\wirish\start_c.c.o
                0x08001508                start_c
 .text._exit    0x0800156c        0x2 C:\Users\USER\AppData\Local\arduino\sketches\452188ACB23955C2F3838071FEF76B93\core\wirish\syscalls.c.o
                0x0800156c                _exit
 .text.rb_full_count
                0x0800156e       0x22 C:\Users\USER\AppData\Local\arduino\cores\7bf7b0ebd1cd5824297d9ecc843c1978\core.a(HardwareSerial.cpp.o)
 .text._ZN14HardwareSerial4readEv
                0x08001590       0x3a C:\Users\USER\AppData\Local\arduino\cores\7bf7b0ebd1cd5824297d9ecc843c1978\core.a(HardwareSerial.cpp.o)
                0x08001590                HardwareSerial::read()
 .text._ZN14HardwareSerial9availableEv
                0x080015ca        0xc C:\Users\USER\AppData\Local\arduino\cores\7bf7b0ebd1cd5824297d9ecc843c1978\core.a(HardwareSerial.cpp.o)
                0x080015ca                HardwareSerial::available()
 .text._ZN14HardwareSerial4peekEv
                0x080015d6       0x22 C:\Users\USER\AppData\Local\arduino\cores\7bf7b0ebd1cd5824297d9ecc843c1978\core.a(HardwareSerial.cpp.o)
                0x080015d6                HardwareSerial::peek()
 .text._ZN14HardwareSerial5flushEv
                0x080015f8       0x1a C:\Users\USER\AppData\Local\arduino\cores\7bf7b0ebd1cd5824297d9ecc843c1978\core.a(HardwareSerial.cpp.o)
                0x080015f8                HardwareSerial::flush()
 .text._ZN14HardwareSerial5writeEh
                0x08001612       0x1e C:\Users\USER\AppData\Local\arduino\cores\7bf7b0ebd1cd5824297d9ecc843c1978\core.a(HardwareSerial.cpp.o)
                0x08001612                HardwareSerial::write(unsigned char)
 .text._ZN14HardwareSerialC2EP9usart_devhh
                0x08001630       0x1c C:\Users\USER\AppData\Local\arduino\cores\7bf7b0ebd1cd5824297d9ecc843c1978\core.a(HardwareSerial.cpp.o)
                0x08001630                HardwareSerial::HardwareSerial(usart_dev*, unsigned char, unsigned char)
                0x08001630                HardwareSerial::HardwareSerial(usart_dev*, unsigned char, unsigned char)
 .text._ZN5Print5writeEPKvm
                0x0800164c       0x20 C:\Users\USER\AppData\Local\arduino\cores\7bf7b0ebd1cd5824297d9ecc843c1978\core.a(Print.cpp.o)
                0x0800164c                Print::write(void const*, unsigned long)
 .text._ZN5Print5writeEPKc
                0x0800166c       0x1e C:\Users\USER\AppData\Local\arduino\cores\7bf7b0ebd1cd5824297d9ecc843c1978\core.a(Print.cpp.o)
                0x0800166c                Print::write(char const*)
 .text.adc_init
                0x0800168a       0x14 C:\Users\USER\AppData\Local\arduino\cores\7bf7b0ebd1cd5824297d9ecc843c1978\core.a(adc.c.o)
                0x0800168a                adc_init
 .text.adc_set_extsel
                0x0800169e       0x12 C:\Users\USER\AppData\Local\arduino\cores\7bf7b0ebd1cd5824297d9ecc843c1978\core.a(adc.c.o)
                0x0800169e                adc_set_extsel
 .text.adc_set_sample_rate
                0x080016b0       0x30 C:\Users\USER\AppData\Local\arduino\cores\7bf7b0ebd1cd5824297d9ecc843c1978\core.a(adc.c.o)
                0x080016b0                adc_set_sample_rate
 .text.__irq_adc
                0x080016e0       0x50 C:\Users\USER\AppData\Local\arduino\cores\7bf7b0ebd1cd5824297d9ecc843c1978\core.a(adc_f1.c.o)
                0x080016e0                __irq_adc
 .text.adc_calibrate
                0x08001730       0x24 C:\Users\USER\AppData\Local\arduino\cores\7bf7b0ebd1cd5824297d9ecc843c1978\core.a(adc_f1.c.o)
                0x08001730                adc_calibrate
 .text.adc_set_prescaler
                0x08001754        0x8 C:\Users\USER\AppData\Local\arduino\cores\7bf7b0ebd1cd5824297d9ecc843c1978\core.a(adc_f1.c.o)
                0x08001754                adc_set_prescaler
 .text.adc_foreach
                0x0800175c       0x1c C:\Users\USER\AppData\Local\arduino\cores\7bf7b0ebd1cd5824297d9ecc843c1978\core.a(adc_f1.c.o)
                0x0800175c                adc_foreach
 .text.adc_enable_single_swstart
                0x08001778       0x36 C:\Users\USER\AppData\Local\arduino\cores\7bf7b0ebd1cd5824297d9ecc843c1978\core.a(adc_f1.c.o)
                0x08001778                adc_enable_single_swstart
 .text.dma_irq_handler
                0x080017ae       0x1c C:\Users\USER\AppData\Local\arduino\cores\7bf7b0ebd1cd5824297d9ecc843c1978\core.a(dma_f1.c.o)
 *fill*         0x080017ca        0x2 
 .text.__irq_dma1_channel1
                0x080017cc       0x10 C:\Users\USER\AppData\Local\arduino\cores\7bf7b0ebd1cd5824297d9ecc843c1978\core.a(dma_f1.c.o)
                0x080017cc                __irq_dma1_channel1
 .text.__irq_dma1_channel2
                0x080017dc       0x10 C:\Users\USER\AppData\Local\arduino\cores\7bf7b0ebd1cd5824297d9ecc843c1978\core.a(dma_f1.c.o)
                0x080017dc                __irq_dma1_channel2
 .text.__irq_dma1_channel3
                0x080017ec       0x10 C:\Users\USER\AppData\Local\arduino\cores\7bf7b0ebd1cd5824297d9ecc843c1978\core.a(dma_f1.c.o)
                0x080017ec                __irq_dma1_channel3
 .text.__irq_dma1_channel4
                0x080017fc       0x10 C:\Users\USER\AppData\Local\arduino\cores\7bf7b0ebd1cd5824297d9ecc843c1978\core.a(dma_f1.c.o)
                0x080017fc                __irq_dma1_channel4
 .text.__irq_dma1_channel5
                0x0800180c       0x10 C:\Users\USER\AppData\Local\arduino\cores\7bf7b0ebd1cd5824297d9ecc843c1978\core.a(dma_f1.c.o)
                0x0800180c                __irq_dma1_channel5
 .text.__irq_dma1_channel6
                0x0800181c       0x10 C:\Users\USER\AppData\Local\arduino\cores\7bf7b0ebd1cd5824297d9ecc843c1978\core.a(dma_f1.c.o)
                0x0800181c                __irq_dma1_channel6
 .text.__irq_dma1_channel7
                0x0800182c       0x10 C:\Users\USER\AppData\Local\arduino\cores\7bf7b0ebd1cd5824297d9ecc843c1978\core.a(dma_f1.c.o)
                0x0800182c                __irq_dma1_channel7
 *fill*         0x0800183c        0x4 
 .text          0x08001840       0x60 C:\Users\USER\AppData\Local\arduino\cores\7bf7b0ebd1cd5824297d9ecc843c1978\core.a(exc.S.o)
                0x08001840                __exc_nmi
                0x08001844                __exc_hardfault
                0x08001848                __exc_memmanage
                0x0800184c                __exc_busfault
                0x08001850                __exc_usagefault
 .text.dispatch_single_exti
                0x080018a0       0x2c C:\Users\USER\AppData\Local\arduino\cores\7bf7b0ebd1cd5824297d9ecc843c1978\core.a(exti.c.o)
                0x080018a0                dispatch_single_exti
 .text.dispatch_extis
                0x080018cc       0x4c C:\Users\USER\AppData\Local\arduino\cores\7bf7b0ebd1cd5824297d9ecc843c1978\core.a(exti.c.o)
                0x080018cc                dispatch_extis
 .text.__irq_exti0
                0x08001918        0x6 C:\Users\USER\AppData\Local\arduino\cores\7bf7b0ebd1cd5824297d9ecc843c1978\core.a(exti.c.o)
                0x08001918                __irq_exti0
 .text.__irq_exti1
                0x0800191e        0x6 C:\Users\USER\AppData\Local\arduino\cores\7bf7b0ebd1cd5824297d9ecc843c1978\core.a(exti.c.o)
                0x0800191e                __irq_exti1
 .text.__irq_exti2
                0x08001924        0x6 C:\Users\USER\AppData\Local\arduino\cores\7bf7b0ebd1cd5824297d9ecc843c1978\core.a(exti.c.o)
                0x08001924                __irq_exti2
 .text.__irq_exti3
                0x0800192a        0x6 C:\Users\USER\AppData\Local\arduino\cores\7bf7b0ebd1cd5824297d9ecc843c1978\core.a(exti.c.o)
                0x0800192a                __irq_exti3
 .text.__irq_exti4
                0x08001930        0x6 C:\Users\USER\AppData\Local\arduino\cores\7bf7b0ebd1cd5824297d9ecc843c1978\core.a(exti.c.o)
                0x08001930                __irq_exti4
 .text.__irq_exti9_5
                0x08001936        0x8 C:\Users\USER\AppData\Local\arduino\cores\7bf7b0ebd1cd5824297d9ecc843c1978\core.a(exti.c.o)
                0x08001936                __irq_exti9_5
 .text.__irq_exti15_10
                0x0800193e        0x8 C:\Users\USER\AppData\Local\arduino\cores\7bf7b0ebd1cd5824297d9ecc843c1978\core.a(exti.c.o)
                0x0800193e                __irq_exti15_10
 *fill*         0x08001946        0x2 
 .text.flash_set_latency
                0x08001948       0x14 C:\Users\USER\AppData\Local\arduino\cores\7bf7b0ebd1cd5824297d9ecc843c1978\core.a(flash.c.o)
                0x08001948                flash_set_latency
 .text.gpio_init_all
                0x0800195c       0x30 C:\Users\USER\AppData\Local\arduino\cores\7bf7b0ebd1cd5824297d9ecc843c1978\core.a(gpio_f1.c.o)
                0x0800195c                gpio_init_all
 .text.gpio_set_mode
                0x0800198c       0x50 C:\Users\USER\AppData\Local\arduino\cores\7bf7b0ebd1cd5824297d9ecc843c1978\core.a(gpio_f1.c.o)
                0x0800198c                gpio_set_mode
 .text.afio_init
                0x080019dc       0x12 C:\Users\USER\AppData\Local\arduino\cores\7bf7b0ebd1cd5824297d9ecc843c1978\core.a(gpio_f1.c.o)
                0x080019dc                afio_init
 *fill*         0x080019ee        0x2 
 .text.afio_remap
                0x080019f0       0x20 C:\Users\USER\AppData\Local\arduino\cores\7bf7b0ebd1cd5824297d9ecc843c1978\core.a(gpio_f1.c.o)
                0x080019f0                afio_remap
 .text.__irq_i2c1_ev
                0x08001a10        0xc C:\Users\USER\AppData\Local\arduino\cores\7bf7b0ebd1cd5824297d9ecc843c1978\core.a(i2c_f1.c.o)
                0x08001a10                __irq_i2c1_ev
 .text.__irq_i2c2_ev
                0x08001a1c        0xc C:\Users\USER\AppData\Local\arduino\cores\7bf7b0ebd1cd5824297d9ecc843c1978\core.a(i2c_f1.c.o)
                0x08001a1c                __irq_i2c2_ev
 .text.__irq_i2c1_er
                0x08001a28        0xc C:\Users\USER\AppData\Local\arduino\cores\7bf7b0ebd1cd5824297d9ecc843c1978\core.a(i2c_f1.c.o)
                0x08001a28                __irq_i2c1_er
 .text.__irq_i2c2_er
                0x08001a34        0xc C:\Users\USER\AppData\Local\arduino\cores\7bf7b0ebd1cd5824297d9ecc843c1978\core.a(i2c_f1.c.o)
                0x08001a34                __irq_i2c2_er
 .text.nvic_irq_set_priority
                0x08001a40       0x28 C:\Users\USER\AppData\Local\arduino\cores\7bf7b0ebd1cd5824297d9ecc843c1978\core.a(nvic.c.o)
                0x08001a40                nvic_irq_set_priority
 .text.nvic_init
                0x08001a68       0x30 C:\Users\USER\AppData\Local\arduino\cores\7bf7b0ebd1cd5824297d9ecc843c1978\core.a(nvic.c.o)
                0x08001a68                nvic_init
 .text.rcc_dev_clk
                0x08001a98        0xc C:\Users\USER\AppData\Local\arduino\cores\7bf7b0ebd1cd5824297d9ecc843c1978\core.a(rcc.c.o)
                0x08001a98                rcc_dev_clk
 .text.rcc_switch_sysclk
                0x08001aa4       0x20 C:\Users\USER\AppData\Local\arduino\cores\7bf7b0ebd1cd5824297d9ecc843c1978\core.a(rcc.c.o)
                0x08001aa4                rcc_switch_sysclk
 .text.rcc_turn_on_clk
                0x08001ac4       0x1a C:\Users\USER\AppData\Local\arduino\cores\7bf7b0ebd1cd5824297d9ecc843c1978\core.a(rcc.c.o)
                0x08001ac4                rcc_turn_on_clk
 .text.rcc_turn_off_clk
                0x08001ade       0x1c C:\Users\USER\AppData\Local\arduino\cores\7bf7b0ebd1cd5824297d9ecc843c1978\core.a(rcc.c.o)
                0x08001ade                rcc_turn_off_clk
 .text.rcc_is_clk_ready
                0x08001afa       0x18 C:\Users\USER\AppData\Local\arduino\cores\7bf7b0ebd1cd5824297d9ecc843c1978\core.a(rcc.c.o)
                0x08001afa                rcc_is_clk_ready
 *fill*         0x08001b12        0x2 
 .text.rcc_configure_pll
                0x08001b14       0x18 C:\Users\USER\AppData\Local\arduino\cores\7bf7b0ebd1cd5824297d9ecc843c1978\core.a(rcc_f1.c.o)
                0x08001b14                rcc_configure_pll
 .text.rcc_clk_enable
                0x08001b2c       0x30 C:\Users\USER\AppData\Local\arduino\cores\7bf7b0ebd1cd5824297d9ecc843c1978\core.a(rcc_f1.c.o)
                0x08001b2c                rcc_clk_enable
 .text.rcc_reset_dev
                0x08001b5c       0x34 C:\Users\USER\AppData\Local\arduino\cores\7bf7b0ebd1cd5824297d9ecc843c1978\core.a(rcc_f1.c.o)
                0x08001b5c                rcc_reset_dev
 .text.rcc_set_prescaler
                0x08001b90       0x20 C:\Users\USER\AppData\Local\arduino\cores\7bf7b0ebd1cd5824297d9ecc843c1978\core.a(rcc_f1.c.o)
                0x08001b90                rcc_set_prescaler
 .text.rcc_clk_disable
                0x08001bb0       0x30 C:\Users\USER\AppData\Local\arduino\cores\7bf7b0ebd1cd5824297d9ecc843c1978\core.a(rcc_f1.c.o)
                0x08001bb0                rcc_clk_disable
 .text          0x08001be0        0x2 C:\Users\USER\AppData\Local\arduino\cores\7bf7b0ebd1cd5824297d9ecc843c1978\core.a(isrs.S.o)
                0x08001be0                __stm32reservedexception9
                0x08001be0                __exc_debug_monitor
                0x08001be0                __exc_svc
                0x08001be0                __irq_can_rx1
                0x08001be0                __irq_spi2
                0x08001be0                __irq_can_sce
                0x08001be0                __irq_pvd
                0x08001be0                __irq_tamper
                0x08001be0                __default_handler
                0x08001be0                __irq_wwdg
                0x08001be0                __stm32reservedexception10
                0x08001be0                __irq_flash
                0x08001be0                __stm32reservedexception13
                0x08001be0                __irq_rtc
                0x08001be0                __irq_spi1
                0x08001be0                __stm32reservedexception7
                0x08001be0                __irq_usb_hp_can_tx
                0x08001be0                __irq_rtcalarm
                0x08001be0                __stm32reservedexception8
                0x08001be0                __exc_pendsv
                0x08001be0                __irq_usbwakeup
                0x08001be0                __irq_rcc
 *fill*         0x08001be2        0x2 
 .text.systick_init
                0x08001be4       0x10 C:\Users\USER\AppData\Local\arduino\cores\7bf7b0ebd1cd5824297d9ecc843c1978\core.a(systick.c.o)
                0x08001be4                systick_init
 .text.__exc_systick
                0x08001bf4       0x1c C:\Users\USER\AppData\Local\arduino\cores\7bf7b0ebd1cd5824297d9ecc843c1978\core.a(systick.c.o)
                0x08001bf4                __exc_systick
 .text.timer_oc_set_mode
                0x08001c10       0x3a C:\Users\USER\AppData\Local\arduino\cores\7bf7b0ebd1cd5824297d9ecc843c1978\core.a(timer.c.o)
 .text.dispatch_general
                0x08001c4a       0x66 C:\Users\USER\AppData\Local\arduino\cores\7bf7b0ebd1cd5824297d9ecc843c1978\core.a(timer.c.o)
 .text.timer_cc_enable
                0x08001cb0       0x1c C:\Users\USER\AppData\Local\arduino\cores\7bf7b0ebd1cd5824297d9ecc843c1978\core.a(timer.c.o)
 .text.timer_foreach
                0x08001ccc       0x28 C:\Users\USER\AppData\Local\arduino\cores\7bf7b0ebd1cd5824297d9ecc843c1978\core.a(timer.c.o)
                0x08001ccc                timer_foreach
 .text.timer_init
                0x08001cf4       0x14 C:\Users\USER\AppData\Local\arduino\cores\7bf7b0ebd1cd5824297d9ecc843c1978\core.a(timer.c.o)
                0x08001cf4                timer_init
 .text.timer_has_cc_channel
                0x08001d08       0x30 C:\Users\USER\AppData\Local\arduino\cores\7bf7b0ebd1cd5824297d9ecc843c1978\core.a(timer.c.o)
                0x08001d08                timer_has_cc_channel
 .text.timer_detach_interrupt
                0x08001d38       0x1e C:\Users\USER\AppData\Local\arduino\cores\7bf7b0ebd1cd5824297d9ecc843c1978\core.a(timer.c.o)
                0x08001d38                timer_detach_interrupt
 .text.input_capture_mode
                0x08001d56       0x1a C:\Users\USER\AppData\Local\arduino\cores\7bf7b0ebd1cd5824297d9ecc843c1978\core.a(timer.c.o)
                0x08001d56                input_capture_mode
 .text.timer_set_mode
                0x08001d70       0x8c C:\Users\USER\AppData\Local\arduino\cores\7bf7b0ebd1cd5824297d9ecc843c1978\core.a(timer.c.o)
                0x08001d70                timer_set_mode
 .text.__irq_tim1_brk
                0x08001dfc       0x24 C:\Users\USER\AppData\Local\arduino\cores\7bf7b0ebd1cd5824297d9ecc843c1978\core.a(timer.c.o)
                0x08001dfc                __irq_tim1_brk
 .text.__irq_tim1_up
                0x08001e20       0x24 C:\Users\USER\AppData\Local\arduino\cores\7bf7b0ebd1cd5824297d9ecc843c1978\core.a(timer.c.o)
                0x08001e20                __irq_tim1_up
 .text.__irq_tim1_trg_com
                0x08001e44       0x34 C:\Users\USER\AppData\Local\arduino\cores\7bf7b0ebd1cd5824297d9ecc843c1978\core.a(timer.c.o)
                0x08001e44                __irq_tim1_trg_com
 .text.__irq_tim1_cc
                0x08001e78       0x50 C:\Users\USER\AppData\Local\arduino\cores\7bf7b0ebd1cd5824297d9ecc843c1978\core.a(timer.c.o)
                0x08001e78                __irq_tim1_cc
 .text.__irq_tim2
                0x08001ec8        0xc C:\Users\USER\AppData\Local\arduino\cores\7bf7b0ebd1cd5824297d9ecc843c1978\core.a(timer.c.o)
                0x08001ec8                __irq_tim2
 .text.__irq_tim3
                0x08001ed4        0xc C:\Users\USER\AppData\Local\arduino\cores\7bf7b0ebd1cd5824297d9ecc843c1978\core.a(timer.c.o)
                0x08001ed4                __irq_tim3
 .text.__irq_tim4
                0x08001ee0        0xc C:\Users\USER\AppData\Local\arduino\cores\7bf7b0ebd1cd5824297d9ecc843c1978\core.a(timer.c.o)
                0x08001ee0                __irq_tim4
 .text.usart_tx
                0x08001eec       0x9c C:\Users\USER\AppData\Local\arduino\cores\7bf7b0ebd1cd5824297d9ecc843c1978\core.a(usart.c.o)
                0x08001eec                usart_tx
 .text.usart_irq
                0x08001f88       0xc8 C:\Users\USER\AppData\Local\arduino\cores\7bf7b0ebd1cd5824297d9ecc843c1978\core.a(usart_f1.c.o)
 .text.__irq_usart1
                0x08002050       0x18 C:\Users\USER\AppData\Local\arduino\cores\7bf7b0ebd1cd5824297d9ecc843c1978\core.a(usart_f1.c.o)
                0x08002050                __irq_usart1
 .text.__irq_usart2
                0x08002068       0x18 C:\Users\USER\AppData\Local\arduino\cores\7bf7b0ebd1cd5824297d9ecc843c1978\core.a(usart_f1.c.o)
                0x08002068                __irq_usart2
 .text.__irq_usart3
                0x08002080       0x18 C:\Users\USER\AppData\Local\arduino\cores\7bf7b0ebd1cd5824297d9ecc843c1978\core.a(usart_f1.c.o)
                0x08002080                __irq_usart3
 .text.usb_resume
                0x08002098       0xb4 C:\Users\USER\AppData\Local\arduino\cores\7bf7b0ebd1cd5824297d9ecc843c1978\core.a(usb.c.o)
 .text.__irq_usb_lp_can_rx0
                0x0800214c      0x1c8 C:\Users\USER\AppData\Local\arduino\cores\7bf7b0ebd1cd5824297d9ecc843c1978\core.a(usb.c.o)
                0x0800214c                __irq_usb_lp_can_rx0
 .text.usb_set_ep_rx_stat
                0x08002314       0x22 C:\Users\USER\AppData\Local\arduino\cores\7bf7b0ebd1cd5824297d9ecc843c1978\core.a(usb_cdcacm.c.o)
 *fill*         0x08002336        0x2 
 .text.vcomGetSetLineCoding
                0x08002338       0x18 C:\Users\USER\AppData\Local\arduino\cores\7bf7b0ebd1cd5824297d9ecc843c1978\core.a(usb_cdcacm.c.o)
 .text.usbDataSetup
                0x08002350       0x54 C:\Users\USER\AppData\Local\arduino\cores\7bf7b0ebd1cd5824297d9ecc843c1978\core.a(usb_cdcacm.c.o)
 .text.usbNoDataSetup
                0x080023a4       0x50 C:\Users\USER\AppData\Local\arduino\cores\7bf7b0ebd1cd5824297d9ecc843c1978\core.a(usb_cdcacm.c.o)
 .text.usbGetInterfaceSetting
                0x080023f4       0x10 C:\Users\USER\AppData\Local\arduino\cores\7bf7b0ebd1cd5824297d9ecc843c1978\core.a(usb_cdcacm.c.o)
 .text.usbGetStringDescriptor
                0x08002404       0x20 C:\Users\USER\AppData\Local\arduino\cores\7bf7b0ebd1cd5824297d9ecc843c1978\core.a(usb_cdcacm.c.o)
 .text.usbGetConfigDescriptor
                0x08002424        0xc C:\Users\USER\AppData\Local\arduino\cores\7bf7b0ebd1cd5824297d9ecc843c1978\core.a(usb_cdcacm.c.o)
 .text.usbGetDeviceDescriptor
                0x08002430        0xc C:\Users\USER\AppData\Local\arduino\cores\7bf7b0ebd1cd5824297d9ecc843c1978\core.a(usb_cdcacm.c.o)
 .text.usbInit  0x0800243c       0x44 C:\Users\USER\AppData\Local\arduino\cores\7bf7b0ebd1cd5824297d9ecc843c1978\core.a(usb_cdcacm.c.o)
 .text.usbReset
                0x08002480      0x160 C:\Users\USER\AppData\Local\arduino\cores\7bf7b0ebd1cd5824297d9ecc843c1978\core.a(usb_cdcacm.c.o)
 .text.usb_set_ep_rx_count
                0x080025e0       0x4c C:\Users\USER\AppData\Local\arduino\cores\7bf7b0ebd1cd5824297d9ecc843c1978\core.a(usb_reg_map.c.o)
                0x080025e0                usb_set_ep_rx_count
 .text.Standard_GetConfiguration
                0x0800262c       0x24 C:\Users\USER\AppData\Local\arduino\cores\7bf7b0ebd1cd5824297d9ecc843c1978\core.a(usb_core.c.o)
                0x0800262c                Standard_GetConfiguration
 .text.Standard_GetInterface
                0x08002650       0x24 C:\Users\USER\AppData\Local\arduino\cores\7bf7b0ebd1cd5824297d9ecc843c1978\core.a(usb_core.c.o)
                0x08002650                Standard_GetInterface
 .text.Standard_GetStatus
                0x08002674       0x90 C:\Users\USER\AppData\Local\arduino\cores\7bf7b0ebd1cd5824297d9ecc843c1978\core.a(usb_core.c.o)
                0x08002674                Standard_GetStatus
 .text.DataStageIn
                0x08002704       0xa8 C:\Users\USER\AppData\Local\arduino\cores\7bf7b0ebd1cd5824297d9ecc843c1978\core.a(usb_core.c.o)
 .text.Standard_SetConfiguration
                0x080027ac       0x38 C:\Users\USER\AppData\Local\arduino\cores\7bf7b0ebd1cd5824297d9ecc843c1978\core.a(usb_core.c.o)
                0x080027ac                Standard_SetConfiguration
 .text.Standard_SetInterface
                0x080027e4       0x48 C:\Users\USER\AppData\Local\arduino\cores\7bf7b0ebd1cd5824297d9ecc843c1978\core.a(usb_core.c.o)
                0x080027e4                Standard_SetInterface
 .text.Standard_ClearFeature
                0x0800282c       0xd0 C:\Users\USER\AppData\Local\arduino\cores\7bf7b0ebd1cd5824297d9ecc843c1978\core.a(usb_core.c.o)
                0x0800282c                Standard_ClearFeature
 .text.Standard_SetEndPointFeature
                0x080028fc       0x84 C:\Users\USER\AppData\Local\arduino\cores\7bf7b0ebd1cd5824297d9ecc843c1978\core.a(usb_core.c.o)
                0x080028fc                Standard_SetEndPointFeature
 .text.Standard_SetDeviceFeature
                0x08002980       0x24 C:\Users\USER\AppData\Local\arduino\cores\7bf7b0ebd1cd5824297d9ecc843c1978\core.a(usb_core.c.o)
                0x08002980                Standard_SetDeviceFeature
 .text.Standard_GetDescriptorData
                0x080029a4       0x1c C:\Users\USER\AppData\Local\arduino\cores\7bf7b0ebd1cd5824297d9ecc843c1978\core.a(usb_core.c.o)
                0x080029a4                Standard_GetDescriptorData
 .text.Post0_Process
                0x080029c0       0x40 C:\Users\USER\AppData\Local\arduino\cores\7bf7b0ebd1cd5824297d9ecc843c1978\core.a(usb_core.c.o)
                0x080029c0                Post0_Process
 .text.Setup0_Process
                0x08002a00      0x2d0 C:\Users\USER\AppData\Local\arduino\cores\7bf7b0ebd1cd5824297d9ecc843c1978\core.a(usb_core.c.o)
                0x08002a00                Setup0_Process
 .text.Out0_Process
                0x08002cd0       0xc8 C:\Users\USER\AppData\Local\arduino\cores\7bf7b0ebd1cd5824297d9ecc843c1978\core.a(usb_core.c.o)
                0x08002cd0                Out0_Process
 .text.SetDeviceAddress
                0x08002d98       0x38 C:\Users\USER\AppData\Local\arduino\cores\7bf7b0ebd1cd5824297d9ecc843c1978\core.a(usb_core.c.o)
                0x08002d98                SetDeviceAddress
 .text.In0_Process
                0x08002dd0       0x5c C:\Users\USER\AppData\Local\arduino\cores\7bf7b0ebd1cd5824297d9ecc843c1978\core.a(usb_core.c.o)
                0x08002dd0                In0_Process
 .text.NOP_Process
                0x08002e2c        0x2 C:\Users\USER\AppData\Local\arduino\cores\7bf7b0ebd1cd5824297d9ecc843c1978\core.a(usb_core.c.o)
                0x08002e2c                NOP_Process
 .text.UserToPMABufferCopy
                0x08002e2e       0x30 C:\Users\USER\AppData\Local\arduino\cores\7bf7b0ebd1cd5824297d9ecc843c1978\core.a(usb_mem.c.o)
                0x08002e2e                UserToPMABufferCopy
 .text.PMAToUserBufferCopy
                0x08002e5e       0x32 C:\Users\USER\AppData\Local\arduino\cores\7bf7b0ebd1cd5824297d9ecc843c1978\core.a(usb_mem.c.o)
                0x08002e5e                PMAToUserBufferCopy
 .text.SetEPTxStatus
                0x08002e90       0x2a C:\Users\USER\AppData\Local\arduino\cores\7bf7b0ebd1cd5824297d9ecc843c1978\core.a(usb_regs.c.o)
                0x08002e90                SetEPTxStatus
 .text.ClearDTOG_RX
                0x08002eba       0x20 C:\Users\USER\AppData\Local\arduino\cores\7bf7b0ebd1cd5824297d9ecc843c1978\core.a(usb_regs.c.o)
                0x08002eba                ClearDTOG_RX
 .text.ClearDTOG_TX
                0x08002eda       0x20 C:\Users\USER\AppData\Local\arduino\cores\7bf7b0ebd1cd5824297d9ecc843c1978\core.a(usb_regs.c.o)
                0x08002eda                ClearDTOG_TX
 *fill*         0x08002efa        0x2 
 .text.GetEPTxAddr
                0x08002efc       0x1c C:\Users\USER\AppData\Local\arduino\cores\7bf7b0ebd1cd5824297d9ecc843c1978\core.a(usb_regs.c.o)
                0x08002efc                GetEPTxAddr
 .text.GetEPRxAddr
                0x08002f18       0x1c C:\Users\USER\AppData\Local\arduino\cores\7bf7b0ebd1cd5824297d9ecc843c1978\core.a(usb_regs.c.o)
                0x08002f18                GetEPRxAddr
 .text.SetEPTxCount
                0x08002f34       0x1c C:\Users\USER\AppData\Local\arduino\cores\7bf7b0ebd1cd5824297d9ecc843c1978\core.a(usb_regs.c.o)
                0x08002f34                SetEPTxCount
 .text.SetEPRxCount
                0x08002f50       0x40 C:\Users\USER\AppData\Local\arduino\cores\7bf7b0ebd1cd5824297d9ecc843c1978\core.a(usb_regs.c.o)
                0x08002f50                SetEPRxCount
 .text.throb    0x08002f90       0x4c C:\Users\USER\AppData\Local\arduino\cores\7bf7b0ebd1cd5824297d9ecc843c1978\core.a(util.c.o)
                0x08002f90                throb
 .text.__error  0x08002fdc       0x14 C:\Users\USER\AppData\Local\arduino\cores\7bf7b0ebd1cd5824297d9ecc843c1978\core.a(util.c.o)
                0x08002fdc                __error
 .text.startup._Z7premainv
                0x08002ff0        0x4 C:\Users\USER\AppData\Local\arduino\cores\7bf7b0ebd1cd5824297d9ecc843c1978\core.a(main.cpp.o)
                0x08002ff0                premain()
 .text.startup.main
                0x08002ff4        0xc C:\Users\USER\AppData\Local\arduino\cores\7bf7b0ebd1cd5824297d9ecc843c1978\core.a(main.cpp.o)
                0x08002ff4                main
 .text._Z7pinModeh13WiringPinMode
                0x08003000       0x84 C:\Users\USER\AppData\Local\arduino\cores\7bf7b0ebd1cd5824297d9ecc843c1978\core.a(wirish_digital_f1.cpp.o)
                0x08003000                pinMode(unsigned char, WiringPinMode)
 .text._Z11digitalReadh
                0x08003084       0x2c C:\Users\USER\AppData\Local\arduino\cores\7bf7b0ebd1cd5824297d9ecc843c1978\core.a(wirish_digital.cpp.o)
                0x08003084                digitalRead(unsigned char)
 .text._Z12digitalWritehh
                0x080030b0       0x2c C:\Users\USER\AppData\Local\arduino\cores\7bf7b0ebd1cd5824297d9ecc843c1978\core.a(wirish_digital.cpp.o)
                0x080030b0                digitalWrite(unsigned char, unsigned char)
 .text.delayMicroseconds
                0x080030dc       0x10 C:\Users\USER\AppData\Local\arduino\cores\7bf7b0ebd1cd5824297d9ecc843c1978\core.a(wirish_time.cpp.o)
                0x080030dc                delayMicroseconds
 .text.gpio_init
                0x080030ec       0x14 C:\Users\USER\AppData\Local\arduino\cores\7bf7b0ebd1cd5824297d9ecc843c1978\core.a(gpio.c.o)
                0x080030ec                gpio_init
 .text.i2c_disable_irq
                0x08003100        0xc C:\Users\USER\AppData\Local\arduino\cores\7bf7b0ebd1cd5824297d9ecc843c1978\core.a(i2c.c.o)
 .text._i2c_irq_handler
                0x0800310c      0x3d8 C:\Users\USER\AppData\Local\arduino\cores\7bf7b0ebd1cd5824297d9ecc843c1978\core.a(i2c.c.o)
                0x0800310c                _i2c_irq_handler
 .text._i2c_irq_error_handler
                0x080034e4       0x74 C:\Users\USER\AppData\Local\arduino\cores\7bf7b0ebd1cd5824297d9ecc843c1978\core.a(i2c.c.o)
                0x080034e4                _i2c_irq_error_handler
 .text          0x08003558       0x38 c:/users/user/appdata/local/arduino15/packages/arduino/tools/arm-none-eabi-gcc/4.8.3-2014q1/bin/../lib/gcc/arm-none-eabi/4.8.3/armv7-m\libgcc.a(_aeabi_ldivmod.o)
                0x08003558                __aeabi_ldivmod
 .text          0x08003590       0x60 c:/users/user/appdata/local/arduino15/packages/arduino/tools/arm-none-eabi-gcc/4.8.3-2014q1/bin/../lib/gcc/arm-none-eabi/4.8.3/armv7-m\libgcc.a(bpabi.o)
                0x08003590                __gnu_ldivmod_helper
                0x080035c0                __gnu_uldivmod_helper
 .text          0x080035f0        0x4 c:/users/user/appdata/local/arduino15/packages/arduino/tools/arm-none-eabi-gcc/4.8.3-2014q1/bin/../lib/gcc/arm-none-eabi/4.8.3/armv7-m\libgcc.a(_dvmd_tls.o)
                0x080035f0                __aeabi_idiv0
                0x080035f0                __aeabi_ldiv0
 .text          0x080035f4      0x2a0 c:/users/user/appdata/local/arduino15/packages/arduino/tools/arm-none-eabi-gcc/4.8.3-2014q1/bin/../lib/gcc/arm-none-eabi/4.8.3/armv7-m\libgcc.a(_divdi3.o)
                0x080035f4                __divdi3
 .text          0x08003894      0x290 c:/users/user/appdata/local/arduino15/packages/arduino/tools/arm-none-eabi-gcc/4.8.3-2014q1/bin/../lib/gcc/arm-none-eabi/4.8.3/armv7-m\libgcc.a(_udivdi3.o)
                0x08003894                __udivdi3
 .text.exit     0x08003b24       0x28 c:/users/user/appdata/local/arduino15/packages/arduino/tools/arm-none-eabi-gcc/4.8.3-2014q1/bin/../lib/gcc/arm-none-eabi/4.8.3/../../../../arm-none-eabi/lib/armv7-m\libc_s.a(lib_a-exit.o)
                0x08003b24                exit
 .text.__libc_init_array
                0x08003b4c       0x4c c:/users/user/appdata/local/arduino15/packages/arduino/tools/arm-none-eabi-gcc/4.8.3-2014q1/bin/../lib/gcc/arm-none-eabi/4.8.3/../../../../arm-none-eabi/lib/armv7-m\libc_s.a(lib_a-init.o)
                0x08003b4c                __libc_init_array
 .text.memcpy   0x08003b98       0x12 c:/users/user/appdata/local/arduino15/packages/arduino/tools/arm-none-eabi-gcc/4.8.3-2014q1/bin/../lib/gcc/arm-none-eabi/4.8.3/../../../../arm-none-eabi/lib/armv7-m\libc_s.a(lib_a-memcpy-stub.o)
                0x08003b98                memcpy
 .text.strlen   0x08003baa       0x10 c:/users/user/appdata/local/arduino15/packages/arduino/tools/arm-none-eabi-gcc/4.8.3-2014q1/bin/../lib/gcc/arm-none-eabi/4.8.3/../../../../arm-none-eabi/lib/armv7-m\libc_s.a(lib_a-strlen.o)
                0x08003baa                strlen
 *(.plt)
 *(.gnu.warning)
 *(.glue_7t)
 .glue_7t       0x00000000        0x0 linker stubs
 *(.glue_7)
 .glue_7        0x00000000        0x0 linker stubs
 *(.vfp11_veneer)
 .vfp11_veneer  0x00000000        0x0 linker stubs
 *(.ARM.extab* .gnu.linkonce.armextab.*)
 *(.gcc_except_table)
 *(.eh_frame_hdr)
 *(.eh_frame)
 *fill*         0x08003bba        0x2 
 .eh_frame      0x08003bbc        0x0 c:/users/user/appdata/local/arduino15/packages/arduino/tools/arm-none-eabi-gcc/4.8.3-2014q1/bin/../lib/gcc/arm-none-eabi/4.8.3/armv7-m/crtbegin.o
                0x08003bbc                . = ALIGN (0x4)
 *(.init)
 .init          0x08003bbc        0x4 c:/users/user/appdata/local/arduino15/packages/arduino/tools/arm-none-eabi-gcc/4.8.3-2014q1/bin/../lib/gcc/arm-none-eabi/4.8.3/armv7-m/crti.o
                0x08003bbc                _init
 .init          0x08003bc0        0x8 c:/users/user/appdata/local/arduino15/packages/arduino/tools/arm-none-eabi-gcc/4.8.3-2014q1/bin/../lib/gcc/arm-none-eabi/4.8.3/armv7-m/crtn.o
                0x08003bc8                . = ALIGN (0x4)
                0x08003bc8                __preinit_array_start = .
 *(.preinit_array)
                0x08003bc8                __preinit_array_end = .
                0x08003bc8                . = ALIGN (0x4)
                0x08003bc8                __init_array_start = .
 *(SORT(.init_array.*))
 .init_array.00101
                0x08003bc8        0x4 C:\Users\USER\AppData\Local\arduino\cores\7bf7b0ebd1cd5824297d9ecc843c1978\core.a(main.cpp.o)
 *(.init_array)
 .init_array    0x08003bcc        0x4 c:/users/user/appdata/local/arduino15/packages/arduino/tools/arm-none-eabi-gcc/4.8.3-2014q1/bin/../lib/gcc/arm-none-eabi/4.8.3/armv7-m/crtbegin.o
 .init_array    0x08003bd0        0x4 C:\Users\USER\AppData\Local\arduino\sketches\452188ACB23955C2F3838071FEF76B93\sketch\Lavadora.ino.cpp.o
 .init_array    0x08003bd4        0x4 C:\Users\USER\AppData\Local\arduino\sketches\452188ACB23955C2F3838071FEF76B93\core\board.cpp.o
                0x08003bd8                __init_array_end = .
                0x08003bd8                . = ALIGN (0x4)
 *crtbegin.o(.ctors)
 *(EXCLUDE_FILE(*crtend.o) .ctors)
 *(SORT(.ctors.*))
 *crtend.o(.ctors)
                0x08003bd8                . = ALIGN (0x4)
 *(.fini)
 .fini          0x08003bd8        0x4 c:/users/user/appdata/local/arduino15/packages/arduino/tools/arm-none-eabi-gcc/4.8.3-2014q1/bin/../lib/gcc/arm-none-eabi/4.8.3/armv7-m/crti.o
                0x08003bd8                _fini
 .fini          0x08003bdc        0x8 c:/users/user/appdata/local/arduino15/packages/arduino/tools/arm-none-eabi-gcc/4.8.3-2014q1/bin/../lib/gcc/arm-none-eabi/4.8.3/armv7-m/crtn.o
                0x08003be4                . = ALIGN (0x4)
                0x08003be4                __fini_array_start = .
 *(.fini_array)
 .fini_array    0x08003be4        0x4 c:/users/user/appdata/local/arduino15/packages/arduino/tools/arm-none-eabi-gcc/4.8.3-2014q1/bin/../lib/gcc/arm-none-eabi/4.8.3/armv7-m/crtbegin.o
 *(SORT(.fini_array.*))
                0x08003be8                __fini_array_end = .
 *crtbegin.o(.dtors)
 *(EXCLUDE_FILE(*crtend.o) .dtors)
 *(SORT(.dtors.*))
 *crtend.o(.dtors)

.v4_bx          0x08003be8        0x0
 .v4_bx         0x00000000        0x0 linker stubs

.iplt           0x08003be8        0x0
 .iplt          0x00000000        0x0 c:/users/user/appdata/local/arduino15/packages/arduino/tools/arm-none-eabi-gcc/4.8.3-2014q1/bin/../lib/gcc/arm-none-eabi/4.8.3/armv7-m/crtbegin.o

.text.align     0x08003be8        0x0
                0x08003be8                . = ALIGN (0x8)
                0x08003be8                __text_end__ = .
                0x08003be8                __exidx_start = .

.ARM.exidx      0x08003be8        0x8
 *(.ARM.exidx* .gnu.linkonce.armexidx.*)
 .ARM.exidx     0x08003be8        0x8 C:\Users\USER\AppData\Local\arduino\sketches\452188ACB23955C2F3838071FEF76B93\core\wirish\start.S.o
 .ARM.exidx     0x08003bf0        0x0 c:/users/user/appdata/local/arduino15/packages/arduino/tools/arm-none-eabi-gcc/4.8.3-2014q1/bin/../lib/gcc/arm-none-eabi/4.8.3/armv7-m\libgcc.a(_divdi3.o)
                                  0x8 (size before relaxing)
 .ARM.exidx     0x08003bf0        0x0 c:/users/user/appdata/local/arduino15/packages/arduino/tools/arm-none-eabi-gcc/4.8.3-2014q1/bin/../lib/gcc/arm-none-eabi/4.8.3/armv7-m\libgcc.a(_udivdi3.o)
                                  0x8 (size before relaxing)
                0x08003bf0                __exidx_end = .

.data           0x20000000      0x478 load address 0x08003bf0
                0x20000000                __data_start__ = .
                0x20000000        0x4 LONG 0x0
                0x20000008                . = ALIGN (0x8)
 *fill*         0x20000004        0x4 
 *(.got.plt)
 *(.got)
 *(.data .data.* .gnu.linkonce.d.*)
 .data.prevEstadoTemperatura
                0x20000008        0x1 C:\Users\USER\AppData\Local\arduino\sketches\452188ACB23955C2F3838071FEF76B93\sketch\Lavadora.ino.cpp.o
                0x20000008                prevEstadoTemperatura
 .data.prevEstadoEncender
                0x20000009        0x1 C:\Users\USER\AppData\Local\arduino\sketches\452188ACB23955C2F3838071FEF76B93\sketch\Lavadora.ino.cpp.o
                0x20000009                prevEstadoEncender
 .data.prevEstadoIniciar
                0x2000000a        0x1 C:\Users\USER\AppData\Local\arduino\sketches\452188ACB23955C2F3838071FEF76B93\sketch\Lavadora.ino.cpp.o
                0x2000000a                prevEstadoIniciar
 .data.prevEstadoTipoLavado
                0x2000000b        0x1 C:\Users\USER\AppData\Local\arduino\sketches\452188ACB23955C2F3838071FEF76B93\sketch\Lavadora.ino.cpp.o
                0x2000000b                prevEstadoTipoLavado
 .data.prevEstadoLavado
                0x2000000c        0x1 C:\Users\USER\AppData\Local\arduino\sketches\452188ACB23955C2F3838071FEF76B93\sketch\Lavadora.ino.cpp.o
                0x2000000c                prevEstadoLavado
 .data.prevEstadoCentrifugado
                0x2000000d        0x1 C:\Users\USER\AppData\Local\arduino\sketches\452188ACB23955C2F3838071FEF76B93\sketch\Lavadora.ino.cpp.o
                0x2000000d                prevEstadoCentrifugado
 .data.prevEstadoEnjuague
                0x2000000e        0x1 C:\Users\USER\AppData\Local\arduino\sketches\452188ACB23955C2F3838071FEF76B93\sketch\Lavadora.ino.cpp.o
                0x2000000e                prevEstadoEnjuague
 .data.prevEstadoNivelAgua
                0x2000000f        0x1 C:\Users\USER\AppData\Local\arduino\sketches\452188ACB23955C2F3838071FEF76B93\sketch\Lavadora.ino.cpp.o
                0x2000000f                prevEstadoNivelAgua
 .data.prevEstadoRopa
                0x20000010        0x1 C:\Users\USER\AppData\Local\arduino\sketches\452188ACB23955C2F3838071FEF76B93\sketch\Lavadora.ino.cpp.o
                0x20000010                prevEstadoRopa
 *fill*         0x20000011        0x3 
 .data._ZN6wirish4privL8pll_dataE
                0x20000014        0x4 C:\Users\USER\AppData\Local\arduino\sketches\452188ACB23955C2F3838071FEF76B93\core\wirish\boards_setup.cpp.o
 .data._ZN6wirish4priv9w_adc_smpE
                0x20000018        0x1 C:\Users\USER\AppData\Local\arduino\sketches\452188ACB23955C2F3838071FEF76B93\core\wirish\boards_setup.cpp.o
                0x20000018                wirish::priv::w_adc_smp
 *fill*         0x20000019        0x1 
 .data._ZN6wirish4priv9w_adc_preE
                0x2000001a        0x2 C:\Users\USER\AppData\Local\arduino\sketches\452188ACB23955C2F3838071FEF76B93\core\wirish\boards_setup.cpp.o
                0x2000001a                wirish::priv::w_adc_pre
 .data._ZN6wirish4priv15w_board_pll_cfgE
                0x2000001c        0x8 C:\Users\USER\AppData\Local\arduino\sketches\452188ACB23955C2F3838071FEF76B93\core\wirish\boards_setup.cpp.o
                0x2000001c                wirish::priv::w_board_pll_cfg
 .data.adc2     0x20000024        0x8 C:\Users\USER\AppData\Local\arduino\cores\7bf7b0ebd1cd5824297d9ecc843c1978\core.a(adc_f1.c.o)
                0x20000024                adc2
 .data.adc1     0x2000002c       0x18 C:\Users\USER\AppData\Local\arduino\cores\7bf7b0ebd1cd5824297d9ecc843c1978\core.a(adc_f1.c.o)
                0x2000002c                adc1
 .data.ADC2     0x20000044        0x4 C:\Users\USER\AppData\Local\arduino\cores\7bf7b0ebd1cd5824297d9ecc843c1978\core.a(adc_f1.c.o)
                0x20000044                ADC2
 .data.ADC1     0x20000048        0x4 C:\Users\USER\AppData\Local\arduino\cores\7bf7b0ebd1cd5824297d9ecc843c1978\core.a(adc_f1.c.o)
                0x20000048                ADC1
 .data.dma1     0x2000004c       0x40 C:\Users\USER\AppData\Local\arduino\cores\7bf7b0ebd1cd5824297d9ecc843c1978\core.a(dma_f1.c.o)
 .data.DMA1     0x2000008c        0x4 C:\Users\USER\AppData\Local\arduino\cores\7bf7b0ebd1cd5824297d9ecc843c1978\core.a(dma_f1.c.o)
                0x2000008c                DMA1
 .data.gpioa    0x20000090        0x8 C:\Users\USER\AppData\Local\arduino\cores\7bf7b0ebd1cd5824297d9ecc843c1978\core.a(gpio_f1.c.o)
                0x20000090                gpioa
 .data.gpiob    0x20000098        0x8 C:\Users\USER\AppData\Local\arduino\cores\7bf7b0ebd1cd5824297d9ecc843c1978\core.a(gpio_f1.c.o)
                0x20000098                gpiob
 .data.gpioc    0x200000a0        0x8 C:\Users\USER\AppData\Local\arduino\cores\7bf7b0ebd1cd5824297d9ecc843c1978\core.a(gpio_f1.c.o)
                0x200000a0                gpioc
 .data.gpiod    0x200000a8        0x8 C:\Users\USER\AppData\Local\arduino\cores\7bf7b0ebd1cd5824297d9ecc843c1978\core.a(gpio_f1.c.o)
                0x200000a8                gpiod
 .data.i2c1     0x200000b0       0x38 C:\Users\USER\AppData\Local\arduino\cores\7bf7b0ebd1cd5824297d9ecc843c1978\core.a(i2c_f1.c.o)
 .data.i2c2     0x200000e8       0x38 C:\Users\USER\AppData\Local\arduino\cores\7bf7b0ebd1cd5824297d9ecc843c1978\core.a(i2c_f1.c.o)
 .data.enable_regs.4411
                0x20000120        0xc C:\Users\USER\AppData\Local\arduino\cores\7bf7b0ebd1cd5824297d9ecc843c1978\core.a(rcc_f1.c.o)
 .data.reset_regs.4415
                0x2000012c        0x8 C:\Users\USER\AppData\Local\arduino\cores\7bf7b0ebd1cd5824297d9ecc843c1978\core.a(rcc_f1.c.o)
 .data.enable_regs.4424
                0x20000134        0xc C:\Users\USER\AppData\Local\arduino\cores\7bf7b0ebd1cd5824297d9ecc843c1978\core.a(rcc_f1.c.o)
 .data.timer3   0x20000140       0x24 C:\Users\USER\AppData\Local\arduino\cores\7bf7b0ebd1cd5824297d9ecc843c1978\core.a(timer.c.o)
                0x20000140                timer3
 .data.timer4   0x20000164       0x24 C:\Users\USER\AppData\Local\arduino\cores\7bf7b0ebd1cd5824297d9ecc843c1978\core.a(timer.c.o)
                0x20000164                timer4
 .data.timer1   0x20000188       0x28 C:\Users\USER\AppData\Local\arduino\cores\7bf7b0ebd1cd5824297d9ecc843c1978\core.a(timer.c.o)
                0x20000188                timer1
 .data.timer2   0x200001b0       0x24 C:\Users\USER\AppData\Local\arduino\cores\7bf7b0ebd1cd5824297d9ecc843c1978\core.a(timer.c.o)
                0x200001b0                timer2
 .data.USART1   0x200001d4        0x4 C:\Users\USER\AppData\Local\arduino\cores\7bf7b0ebd1cd5824297d9ecc843c1978\core.a(usart_f1.c.o)
                0x200001d4                USART1
 .data.USART2   0x200001d8        0x4 C:\Users\USER\AppData\Local\arduino\cores\7bf7b0ebd1cd5824297d9ecc843c1978\core.a(usart_f1.c.o)
                0x200001d8                USART2
 .data.USART3   0x200001dc        0x4 C:\Users\USER\AppData\Local\arduino\cores\7bf7b0ebd1cd5824297d9ecc843c1978\core.a(usart_f1.c.o)
                0x200001dc                USART3
 .data.usart1   0x200001e0       0x94 C:\Users\USER\AppData\Local\arduino\cores\7bf7b0ebd1cd5824297d9ecc843c1978\core.a(usart_f1.c.o)
 .data.usart2   0x20000274       0x94 C:\Users\USER\AppData\Local\arduino\cores\7bf7b0ebd1cd5824297d9ecc843c1978\core.a(usart_f1.c.o)
 .data.usart3   0x20000308       0x94 C:\Users\USER\AppData\Local\arduino\cores\7bf7b0ebd1cd5824297d9ecc843c1978\core.a(usart_f1.c.o)
 .data.USBLIB   0x2000039c        0x4 C:\Users\USER\AppData\Local\arduino\cores\7bf7b0ebd1cd5824297d9ecc843c1978\core.a(usb.c.o)
                0x2000039c                USBLIB
 .data.usblib   0x200003a0       0x10 C:\Users\USER\AppData\Local\arduino\cores\7bf7b0ebd1cd5824297d9ecc843c1978\core.a(usb.c.o)
 .data.Config_Descriptor
                0x200003b0        0x8 C:\Users\USER\AppData\Local\arduino\cores\7bf7b0ebd1cd5824297d9ecc843c1978\core.a(usb_cdcacm.c.o)
 .data.Device_Property
                0x200003b8       0x30 C:\Users\USER\AppData\Local\arduino\cores\7bf7b0ebd1cd5824297d9ecc843c1978\core.a(usb_cdcacm.c.o)
                0x200003b8                Device_Property
 .data.String_Descriptor
                0x200003e8       0x18 C:\Users\USER\AppData\Local\arduino\cores\7bf7b0ebd1cd5824297d9ecc843c1978\core.a(usb_cdcacm.c.o)
 .data.line_coding
                0x20000400        0x7 C:\Users\USER\AppData\Local\arduino\cores\7bf7b0ebd1cd5824297d9ecc843c1978\core.a(usb_cdcacm.c.o)
 *fill*         0x20000407        0x1 
 .data.Device_Descriptor
                0x20000408        0x8 C:\Users\USER\AppData\Local\arduino\cores\7bf7b0ebd1cd5824297d9ecc843c1978\core.a(usb_cdcacm.c.o)
 .data.Device_Table
                0x20000410        0x2 C:\Users\USER\AppData\Local\arduino\cores\7bf7b0ebd1cd5824297d9ecc843c1978\core.a(usb_cdcacm.c.o)
                0x20000410                Device_Table
 *fill*         0x20000412        0x2 
 .data.impure_data
                0x20000414       0x60 c:/users/user/appdata/local/arduino15/packages/arduino/tools/arm-none-eabi-gcc/4.8.3-2014q1/bin/../lib/gcc/arm-none-eabi/4.8.3/../../../../arm-none-eabi/lib/armv7-m\libc_s.a(lib_a-impure.o)
                0x20000478                . = ALIGN (0x8)
 *fill*         0x20000474        0x4 
                0x20000478                __data_end__ = .

.jcr            0x20000478        0x0 load address 0x08004068
 .jcr           0x20000478        0x0 c:/users/user/appdata/local/arduino15/packages/arduino/tools/arm-none-eabi-gcc/4.8.3-2014q1/bin/../lib/gcc/arm-none-eabi/4.8.3/armv7-m/crtbegin.o

.igot.plt       0x20000478        0x0 load address 0x08004068
 .igot.plt      0x00000000        0x0 c:/users/user/appdata/local/arduino15/packages/arduino/tools/arm-none-eabi-gcc/4.8.3-2014q1/bin/../lib/gcc/arm-none-eabi/4.8.3/armv7-m/crtbegin.o

.rodata         0x08004068      0x4e0
 *(.rodata .rodata.* .gnu.linkonce.r.*)
 .rodata        0x08004068       0x6c C:\Users\USER\AppData\Local\arduino\sketches\452188ACB23955C2F3838071FEF76B93\sketch\Lavadora.ino.cpp.o
 .rodata._ZL12digitCodeMap
                0x080040d4       0x29 C:\Users\USER\AppData\Local\arduino\sketches\452188ACB23955C2F3838071FEF76B93\sketch\SevSeg.cpp.o
 *fill*         0x080040fd        0x3 
 .rodata._ZL10powersOf10
                0x08004100       0x28 C:\Users\USER\AppData\Local\arduino\sketches\452188ACB23955C2F3838071FEF76B93\sketch\SevSeg.cpp.o
 .rodata._ZL10powersOf16
                0x08004128       0x20 C:\Users\USER\AppData\Local\arduino\sketches\452188ACB23955C2F3838071FEF76B93\sketch\SevSeg.cpp.o
 .rodata.PIN_MAP
                0x08004148      0x2e0 C:\Users\USER\AppData\Local\arduino\sketches\452188ACB23955C2F3838071FEF76B93\core\board.cpp.o
                0x08004148                PIN_MAP
 .rodata._ZTV14HardwareSerial
                0x08004428       0x28 C:\Users\USER\AppData\Local\arduino\cores\7bf7b0ebd1cd5824297d9ecc843c1978\core.a(HardwareSerial.cpp.o)
                0x08004428                vtable for HardwareSerial
 .rodata.GPIOB  0x08004450        0x4 C:\Users\USER\AppData\Local\arduino\cores\7bf7b0ebd1cd5824297d9ecc843c1978\core.a(gpio_f1.c.o)
                0x08004450                GPIOB
 .rodata.rcc_dev_table
                0x08004454       0x5c C:\Users\USER\AppData\Local\arduino\cores\7bf7b0ebd1cd5824297d9ecc843c1978\core.a(rcc_f1.c.o)
                0x08004454                rcc_dev_table
 .rodata.masks.4420
                0x080044b0       0x14 C:\Users\USER\AppData\Local\arduino\cores\7bf7b0ebd1cd5824297d9ecc843c1978\core.a(rcc_f1.c.o)
 .rodata.usbVcomDescriptor_iProduct
                0x080044c4        0xc C:\Users\USER\AppData\Local\arduino\cores\7bf7b0ebd1cd5824297d9ecc843c1978\core.a(usb_cdcacm.c.o)
 .rodata.usbVcomDescriptor_iManufacturer
                0x080044d0       0x12 C:\Users\USER\AppData\Local\arduino\cores\7bf7b0ebd1cd5824297d9ecc843c1978\core.a(usb_cdcacm.c.o)
 .rodata.usbVcomDescriptor_Device
                0x080044e2       0x12 C:\Users\USER\AppData\Local\arduino\cores\7bf7b0ebd1cd5824297d9ecc843c1978\core.a(usb_cdcacm.c.o)
 .rodata.usbVcomDescriptor_Config
                0x080044f4       0x43 C:\Users\USER\AppData\Local\arduino\cores\7bf7b0ebd1cd5824297d9ecc843c1978\core.a(usb_cdcacm.c.o)
 .rodata.usbVcomDescriptor_LangID
                0x08004537        0x4 C:\Users\USER\AppData\Local\arduino\cores\7bf7b0ebd1cd5824297d9ecc843c1978\core.a(usb_cdcacm.c.o)
 .rodata.str1.1
                0x0800453b        0x2 c:/users/user/appdata/local/arduino15/packages/arduino/tools/arm-none-eabi-gcc/4.8.3-2014q1/bin/../lib/gcc/arm-none-eabi/4.8.3/../../../../arm-none-eabi/lib/armv7-m\libc_s.a(lib_a-impure.o)
 *fill*         0x0800453d        0x3 
 .rodata._global_impure_ptr
                0x08004540        0x4 c:/users/user/appdata/local/arduino15/packages/arduino/tools/arm-none-eabi-gcc/4.8.3-2014q1/bin/../lib/gcc/arm-none-eabi/4.8.3/../../../../arm-none-eabi/lib/armv7-m\libc_s.a(lib_a-impure.o)
                0x08004540                _global_impure_ptr
 *(.USER_FLASH)
                0x08004544                . = ALIGN (0x4)
                0x08004544                _lm_rom_img_cfgp = .
                0x08004544        0x4 LONG 0x8003bf0 LOADADDR (.data)
                0x20000688                _lm_heap_start = DEFINED (_lm_heap_start)?_lm_heap_start:_end
                0x20005000                _lm_heap_end = DEFINED (_lm_heap_end)?_lm_heap_end:__msp_init

.rel.dyn        0x08004548        0x0
 .rel.iplt      0x00000000        0x0 c:/users/user/appdata/local/arduino15/packages/arduino/tools/arm-none-eabi-gcc/4.8.3-2014q1/bin/../lib/gcc/arm-none-eabi/4.8.3/armv7-m/crtbegin.o

.bss            0x20000478      0x210
                0x20000478                . = ALIGN (0x8)
                0x20000478                __bss_start__ = .
 *(.bss .bss.* .gnu.linkonce.b.*)
 .bss           0x20000478       0x1c c:/users/user/appdata/local/arduino15/packages/arduino/tools/arm-none-eabi-gcc/4.8.3-2014q1/bin/../lib/gcc/arm-none-eabi/4.8.3/armv7-m/crtbegin.o
 .bss.minutos   0x20000494        0x4 C:\Users\USER\AppData\Local\arduino\sketches\452188ACB23955C2F3838071FEF76B93\sketch\Lavadora.ino.cpp.o
                0x20000494                minutos
 .bss.centrifugadoSeleccionado
                0x20000498        0x4 C:\Users\USER\AppData\Local\arduino\sketches\452188ACB23955C2F3838071FEF76B93\sketch\Lavadora.ino.cpp.o
                0x20000498                centrifugadoSeleccionado
 .bss.enjuagueSeleccionado
                0x2000049c        0x4 C:\Users\USER\AppData\Local\arduino\sketches\452188ACB23955C2F3838071FEF76B93\sketch\Lavadora.ino.cpp.o
                0x2000049c                enjuagueSeleccionado
 .bss.horas     0x200004a0        0x4 C:\Users\USER\AppData\Local\arduino\sketches\452188ACB23955C2F3838071FEF76B93\sketch\Lavadora.ino.cpp.o
                0x200004a0                horas
 .bss._ZZ22actualizarTemporizadorvE7endTime
                0x200004a4        0x4 C:\Users\USER\AppData\Local\arduino\sketches\452188ACB23955C2F3838071FEF76B93\sketch\Lavadora.ino.cpp.o
 .bss.contadorLavado
                0x200004a8        0x4 C:\Users\USER\AppData\Local\arduino\sketches\452188ACB23955C2F3838071FEF76B93\sketch\Lavadora.ino.cpp.o
                0x200004a8                contadorLavado
 .bss.contadorAgua
                0x200004ac        0x4 C:\Users\USER\AppData\Local\arduino\sketches\452188ACB23955C2F3838071FEF76B93\sketch\Lavadora.ino.cpp.o
                0x200004ac                contadorAgua
 .bss.nivelAguaSeleccionado
                0x200004b0        0x4 C:\Users\USER\AppData\Local\arduino\sketches\452188ACB23955C2F3838071FEF76B93\sketch\Lavadora.ino.cpp.o
                0x200004b0                nivelAguaSeleccionado
 .bss.tipoLavadoSeleccionado
                0x200004b4        0x4 C:\Users\USER\AppData\Local\arduino\sketches\452188ACB23955C2F3838071FEF76B93\sketch\Lavadora.ino.cpp.o
                0x200004b4                tipoLavadoSeleccionado
 .bss.temperaturaBloqueada
                0x200004b8        0x1 C:\Users\USER\AppData\Local\arduino\sketches\452188ACB23955C2F3838071FEF76B93\sketch\Lavadora.ino.cpp.o
                0x200004b8                temperaturaBloqueada
 *fill*         0x200004b9        0x3 
 .bss.contadorEnjuague
                0x200004bc        0x4 C:\Users\USER\AppData\Local\arduino\sketches\452188ACB23955C2F3838071FEF76B93\sketch\Lavadora.ino.cpp.o
                0x200004bc                contadorEnjuague
 .bss.lastUpdateTime
                0x200004c0        0x4 C:\Users\USER\AppData\Local\arduino\sketches\452188ACB23955C2F3838071FEF76B93\sketch\Lavadora.ino.cpp.o
                0x200004c0                lastUpdateTime
 .bss.sevseg    0x200004c4       0x30 C:\Users\USER\AppData\Local\arduino\sketches\452188ACB23955C2F3838071FEF76B93\sketch\Lavadora.ino.cpp.o
                0x200004c4                sevseg
 .bss.tiempoLavadoSeleccionado
                0x200004f4        0x4 C:\Users\USER\AppData\Local\arduino\sketches\452188ACB23955C2F3838071FEF76B93\sketch\Lavadora.ino.cpp.o
                0x200004f4                tiempoLavadoSeleccionado
 .bss.contadorCentrifugado
                0x200004f8        0x4 C:\Users\USER\AppData\Local\arduino\sketches\452188ACB23955C2F3838071FEF76B93\sketch\Lavadora.ino.cpp.o
                0x200004f8                contadorCentrifugado
 .bss.segundos  0x200004fc        0x4 C:\Users\USER\AppData\Local\arduino\sketches\452188ACB23955C2F3838071FEF76B93\sketch\Lavadora.ino.cpp.o
                0x200004fc                segundos
 .bss._ZZ18cambiarTemperaturavE17estadoTemperatura
                0x20000500        0x4 C:\Users\USER\AppData\Local\arduino\sketches\452188ACB23955C2F3838071FEF76B93\sketch\Lavadora.ino.cpp.o
 .bss.sistemaEncendido
                0x20000504        0x1 C:\Users\USER\AppData\Local\arduino\sketches\452188ACB23955C2F3838071FEF76B93\sketch\Lavadora.ino.cpp.o
                0x20000504                sistemaEncendido
 *fill*         0x20000505        0x3 
 .bss.cantidadSeleccionada
                0x20000508        0x4 C:\Users\USER\AppData\Local\arduino\sketches\452188ACB23955C2F3838071FEF76B93\sketch\Lavadora.ino.cpp.o
                0x20000508                cantidadSeleccionada
 .bss.enMarcha  0x2000050c        0x1 C:\Users\USER\AppData\Local\arduino\sketches\452188ACB23955C2F3838071FEF76B93\sketch\Lavadora.ino.cpp.o
                0x2000050c                enMarcha
 *fill*         0x2000050d        0x3 
 .bss.temperaturaSeleccionada
                0x20000510        0x4 C:\Users\USER\AppData\Local\arduino\sketches\452188ACB23955C2F3838071FEF76B93\sketch\Lavadora.ino.cpp.o
                0x20000510                temperaturaSeleccionada
 .bss.Serial1   0x20000514       0x18 C:\Users\USER\AppData\Local\arduino\sketches\452188ACB23955C2F3838071FEF76B93\core\board.cpp.o
                0x20000514                Serial1
 .bss.Serial2   0x2000052c       0x18 C:\Users\USER\AppData\Local\arduino\sketches\452188ACB23955C2F3838071FEF76B93\core\board.cpp.o
                0x2000052c                Serial2
 .bss.Serial3   0x20000544       0x18 C:\Users\USER\AppData\Local\arduino\sketches\452188ACB23955C2F3838071FEF76B93\core\board.cpp.o
                0x20000544                Serial3
 .bss.exti_channels
                0x2000055c       0x80 C:\Users\USER\AppData\Local\arduino\cores\7bf7b0ebd1cd5824297d9ecc843c1978\core.a(exti.c.o)
                0x2000055c                exti_channels
 .bss.systick_user_callback
                0x200005dc        0x4 C:\Users\USER\AppData\Local\arduino\cores\7bf7b0ebd1cd5824297d9ecc843c1978\core.a(systick.c.o)
 .bss.usart1_wb
                0x200005e0        0xc C:\Users\USER\AppData\Local\arduino\cores\7bf7b0ebd1cd5824297d9ecc843c1978\core.a(usart_f1.c.o)
 .bss.usart1_rb
                0x200005ec        0xc C:\Users\USER\AppData\Local\arduino\cores\7bf7b0ebd1cd5824297d9ecc843c1978\core.a(usart_f1.c.o)
 .bss.usart2_rb
                0x200005f8        0xc C:\Users\USER\AppData\Local\arduino\cores\7bf7b0ebd1cd5824297d9ecc843c1978\core.a(usart_f1.c.o)
 .bss.usart3_rb
                0x20000604        0xc C:\Users\USER\AppData\Local\arduino\cores\7bf7b0ebd1cd5824297d9ecc843c1978\core.a(usart_f1.c.o)
 .bss.usart2_wb
                0x20000610        0xc C:\Users\USER\AppData\Local\arduino\cores\7bf7b0ebd1cd5824297d9ecc843c1978\core.a(usart_f1.c.o)
 .bss.usart3_wb
                0x2000061c        0xc C:\Users\USER\AppData\Local\arduino\cores\7bf7b0ebd1cd5824297d9ecc843c1978\core.a(usart_f1.c.o)
 .bss.line_dtr_rts
                0x20000628        0x1 C:\Users\USER\AppData\Local\arduino\cores\7bf7b0ebd1cd5824297d9ecc843c1978\core.a(usb_cdcacm.c.o)
 *fill*         0x20000629        0x3 
 .bss.tx_head   0x2000062c        0x4 C:\Users\USER\AppData\Local\arduino\cores\7bf7b0ebd1cd5824297d9ecc843c1978\core.a(usb_cdcacm.c.o)
 .bss.transmitting
                0x20000630        0x1 C:\Users\USER\AppData\Local\arduino\cores\7bf7b0ebd1cd5824297d9ecc843c1978\core.a(usb_cdcacm.c.o)
 *fill*         0x20000631        0x3 
 .bss.rx_tail   0x20000634        0x4 C:\Users\USER\AppData\Local\arduino\cores\7bf7b0ebd1cd5824297d9ecc843c1978\core.a(usb_cdcacm.c.o)
 .bss.iface_setup_hook
                0x20000638        0x4 C:\Users\USER\AppData\Local\arduino\cores\7bf7b0ebd1cd5824297d9ecc843c1978\core.a(usb_cdcacm.c.o)
 .bss.rx_head   0x2000063c        0x4 C:\Users\USER\AppData\Local\arduino\cores\7bf7b0ebd1cd5824297d9ecc843c1978\core.a(usb_cdcacm.c.o)
 .bss.tx_tail   0x20000640        0x4 C:\Users\USER\AppData\Local\arduino\cores\7bf7b0ebd1cd5824297d9ecc843c1978\core.a(usb_cdcacm.c.o)
 .bss.Data_Mul_MaxPacketSize
                0x20000644        0x1 C:\Users\USER\AppData\Local\arduino\cores\7bf7b0ebd1cd5824297d9ecc843c1978\core.a(usb_core.c.o)
                0x20000644                Data_Mul_MaxPacketSize
 *(COMMON)
 *fill*         0x20000645        0x3 
 COMMON         0x20000648        0x4 C:\Users\USER\AppData\Local\arduino\cores\7bf7b0ebd1cd5824297d9ecc843c1978\core.a(systick.c.o)
                0x20000648                systick_uptime_millis
 COMMON         0x2000064c        0x6 C:\Users\USER\AppData\Local\arduino\cores\7bf7b0ebd1cd5824297d9ecc843c1978\core.a(usb.c.o)
                0x2000064c                SaveRState
                0x2000064e                SaveTState
                0x20000650                ResumeS
 COMMON         0x20000652        0x2 C:\Users\USER\AppData\Local\arduino\cores\7bf7b0ebd1cd5824297d9ecc843c1978\core.a(usb_core.c.o)
                0x20000652                StatusInfo
 COMMON         0x20000654       0x32 C:\Users\USER\AppData\Local\arduino\cores\7bf7b0ebd1cd5824297d9ecc843c1978\core.a(usb_init.c.o)
                0x20000654                SaveState
                0x20000658                pProperty
                0x2000065c                EPindex
                0x20000660                Device_Info
                0x2000067c                pUser_Standard_Requests
                0x20000680                pInformation
                0x20000684                wInterrupt_Mask
                0x20000688                . = ALIGN (0x8)
 *fill*         0x20000686        0x2 
                0x20000688                __bss_end__ = .
                0x20000688                _end = __bss_end__

.stab
 *(.stab)

.stabstr
 *(.stabstr)

.debug
 *(.debug)

.line
 *(.line)

.debug_srcinfo
 *(.debug_srcinfo)

.debug_sfnames
 *(.debug_sfnames)

.debug_aranges  0x00000000      0xfd8
 *(.debug_aranges)
 .debug_aranges
                0x00000000       0xa0 C:\Users\USER\AppData\Local\arduino\sketches\452188ACB23955C2F3838071FEF76B93\sketch\Lavadora.ino.cpp.o
 .debug_aranges
                0x000000a0       0xa8 C:\Users\USER\AppData\Local\arduino\sketches\452188ACB23955C2F3838071FEF76B93\sketch\SevSeg.cpp.o
 .debug_aranges
                0x00000148       0x28 C:\Users\USER\AppData\Local\arduino\sketches\452188ACB23955C2F3838071FEF76B93\core\board.cpp.o
 .debug_aranges
                0x00000170       0x40 C:\Users\USER\AppData\Local\arduino\sketches\452188ACB23955C2F3838071FEF76B93\core\wirish\boards.cpp.o
 .debug_aranges
                0x000001b0       0x40 C:\Users\USER\AppData\Local\arduino\sketches\452188ACB23955C2F3838071FEF76B93\core\wirish\boards_setup.cpp.o
 .debug_aranges
                0x000001f0       0x20 C:\Users\USER\AppData\Local\arduino\sketches\452188ACB23955C2F3838071FEF76B93\core\wirish\start.S.o
 .debug_aranges
                0x00000210       0x20 C:\Users\USER\AppData\Local\arduino\sketches\452188ACB23955C2F3838071FEF76B93\core\wirish\start_c.c.o
 .debug_aranges
                0x00000230       0x88 C:\Users\USER\AppData\Local\arduino\sketches\452188ACB23955C2F3838071FEF76B93\core\wirish\syscalls.c.o
 .debug_aranges
                0x000002b8       0x70 C:\Users\USER\AppData\Local\arduino\cores\7bf7b0ebd1cd5824297d9ecc843c1978\core.a(HardwareSerial.cpp.o)
 .debug_aranges
                0x00000328      0x110 C:\Users\USER\AppData\Local\arduino\cores\7bf7b0ebd1cd5824297d9ecc843c1978\core.a(Print.cpp.o)
 .debug_aranges
                0x00000438       0x28 C:\Users\USER\AppData\Local\arduino\cores\7bf7b0ebd1cd5824297d9ecc843c1978\core.a(cxxabi-compat.cpp.o)
 .debug_aranges
                0x00000460       0x38 C:\Users\USER\AppData\Local\arduino\cores\7bf7b0ebd1cd5824297d9ecc843c1978\core.a(adc.c.o)
 .debug_aranges
                0x00000498       0x58 C:\Users\USER\AppData\Local\arduino\cores\7bf7b0ebd1cd5824297d9ecc843c1978\core.a(adc_f1.c.o)
 .debug_aranges
                0x000004f0       0xb0 C:\Users\USER\AppData\Local\arduino\cores\7bf7b0ebd1cd5824297d9ecc843c1978\core.a(dma_f1.c.o)
 .debug_aranges
                0x000005a0       0x20 C:\Users\USER\AppData\Local\arduino\cores\7bf7b0ebd1cd5824297d9ecc843c1978\core.a(exc.S.o)
 .debug_aranges
                0x000005c0       0x80 C:\Users\USER\AppData\Local\arduino\cores\7bf7b0ebd1cd5824297d9ecc843c1978\core.a(exti.c.o)
 .debug_aranges
                0x00000640       0x20 C:\Users\USER\AppData\Local\arduino\cores\7bf7b0ebd1cd5824297d9ecc843c1978\core.a(exti_f1.c.o)
 .debug_aranges
                0x00000660       0x20 C:\Users\USER\AppData\Local\arduino\cores\7bf7b0ebd1cd5824297d9ecc843c1978\core.a(flash.c.o)
 .debug_aranges
                0x00000680       0x48 C:\Users\USER\AppData\Local\arduino\cores\7bf7b0ebd1cd5824297d9ecc843c1978\core.a(gpio_f1.c.o)
 .debug_aranges
                0x000006c8       0x50 C:\Users\USER\AppData\Local\arduino\cores\7bf7b0ebd1cd5824297d9ecc843c1978\core.a(i2c_f1.c.o)
 .debug_aranges
                0x00000718       0x38 C:\Users\USER\AppData\Local\arduino\cores\7bf7b0ebd1cd5824297d9ecc843c1978\core.a(nvic.c.o)
 .debug_aranges
                0x00000750       0x48 C:\Users\USER\AppData\Local\arduino\cores\7bf7b0ebd1cd5824297d9ecc843c1978\core.a(rcc.c.o)
 .debug_aranges
                0x00000798       0x48 C:\Users\USER\AppData\Local\arduino\cores\7bf7b0ebd1cd5824297d9ecc843c1978\core.a(rcc_f1.c.o)
 .debug_aranges
                0x000007e0       0x20 C:\Users\USER\AppData\Local\arduino\cores\7bf7b0ebd1cd5824297d9ecc843c1978\core.a(isrs.S.o)
 .debug_aranges
                0x00000800       0x40 C:\Users\USER\AppData\Local\arduino\cores\7bf7b0ebd1cd5824297d9ecc843c1978\core.a(systick.c.o)
 .debug_aranges
                0x00000840       0xb0 C:\Users\USER\AppData\Local\arduino\cores\7bf7b0ebd1cd5824297d9ecc843c1978\core.a(timer.c.o)
 .debug_aranges
                0x000008f0       0x48 C:\Users\USER\AppData\Local\arduino\cores\7bf7b0ebd1cd5824297d9ecc843c1978\core.a(usart.c.o)
 .debug_aranges
                0x00000938       0x50 C:\Users\USER\AppData\Local\arduino\cores\7bf7b0ebd1cd5824297d9ecc843c1978\core.a(usart_f1.c.o)
 .debug_aranges
                0x00000988       0x20 C:\Users\USER\AppData\Local\arduino\cores\7bf7b0ebd1cd5824297d9ecc843c1978\core.a(usart_private.c.o)
 .debug_aranges
                0x000009a8       0x38 C:\Users\USER\AppData\Local\arduino\cores\7bf7b0ebd1cd5824297d9ecc843c1978\core.a(usb.c.o)
 .debug_aranges
                0x000009e0      0x128 C:\Users\USER\AppData\Local\arduino\cores\7bf7b0ebd1cd5824297d9ecc843c1978\core.a(usb_cdcacm.c.o)
 .debug_aranges
                0x00000b08       0x20 C:\Users\USER\AppData\Local\arduino\cores\7bf7b0ebd1cd5824297d9ecc843c1978\core.a(usb_reg_map.c.o)
 .debug_aranges
                0x00000b28       0x98 C:\Users\USER\AppData\Local\arduino\cores\7bf7b0ebd1cd5824297d9ecc843c1978\core.a(usb_core.c.o)
 .debug_aranges
                0x00000bc0       0x20 C:\Users\USER\AppData\Local\arduino\cores\7bf7b0ebd1cd5824297d9ecc843c1978\core.a(usb_init.c.o)
 .debug_aranges
                0x00000be0       0x28 C:\Users\USER\AppData\Local\arduino\cores\7bf7b0ebd1cd5824297d9ecc843c1978\core.a(usb_mem.c.o)
 .debug_aranges
                0x00000c08      0x1f0 C:\Users\USER\AppData\Local\arduino\cores\7bf7b0ebd1cd5824297d9ecc843c1978\core.a(usb_regs.c.o)
 .debug_aranges
                0x00000df8       0x50 C:\Users\USER\AppData\Local\arduino\cores\7bf7b0ebd1cd5824297d9ecc843c1978\core.a(util.c.o)
 .debug_aranges
                0x00000e48       0x28 C:\Users\USER\AppData\Local\arduino\cores\7bf7b0ebd1cd5824297d9ecc843c1978\core.a(main.cpp.o)
 .debug_aranges
                0x00000e70       0x20 C:\Users\USER\AppData\Local\arduino\cores\7bf7b0ebd1cd5824297d9ecc843c1978\core.a(wirish_digital_f1.cpp.o)
 .debug_aranges
                0x00000e90       0x28 C:\Users\USER\AppData\Local\arduino\cores\7bf7b0ebd1cd5824297d9ecc843c1978\core.a(wirish_digital.cpp.o)
 .debug_aranges
                0x00000eb8       0x30 C:\Users\USER\AppData\Local\arduino\cores\7bf7b0ebd1cd5824297d9ecc843c1978\core.a(wirish_time.cpp.o)
 .debug_aranges
                0x00000ee8       0x20 C:\Users\USER\AppData\Local\arduino\cores\7bf7b0ebd1cd5824297d9ecc843c1978\core.a(hooks.c.o)
 .debug_aranges
                0x00000f08       0x28 C:\Users\USER\AppData\Local\arduino\cores\7bf7b0ebd1cd5824297d9ecc843c1978\core.a(dma.c.o)
 .debug_aranges
                0x00000f30       0x20 C:\Users\USER\AppData\Local\arduino\cores\7bf7b0ebd1cd5824297d9ecc843c1978\core.a(gpio.c.o)
 .debug_aranges
                0x00000f50       0x88 C:\Users\USER\AppData\Local\arduino\cores\7bf7b0ebd1cd5824297d9ecc843c1978\core.a(i2c.c.o)

.debug_pubnames
 *(.debug_pubnames)

.debug_info     0x00000000    0x1f89e
 *(.debug_info .gnu.linkonce.wi.*)
 .debug_info    0x00000000     0x1f11 C:\Users\USER\AppData\Local\arduino\sketches\452188ACB23955C2F3838071FEF76B93\sketch\Lavadora.ino.cpp.o
 .debug_info    0x00001f11     0x11a9 C:\Users\USER\AppData\Local\arduino\sketches\452188ACB23955C2F3838071FEF76B93\sketch\SevSeg.cpp.o
 .debug_info    0x000030ba     0x1170 C:\Users\USER\AppData\Local\arduino\sketches\452188ACB23955C2F3838071FEF76B93\core\board.cpp.o
 .debug_info    0x0000422a     0x1409 C:\Users\USER\AppData\Local\arduino\sketches\452188ACB23955C2F3838071FEF76B93\core\wirish\boards.cpp.o
 .debug_info    0x00005633      0x61e C:\Users\USER\AppData\Local\arduino\sketches\452188ACB23955C2F3838071FEF76B93\core\wirish\boards_setup.cpp.o
 .debug_info    0x00005c51       0xde C:\Users\USER\AppData\Local\arduino\sketches\452188ACB23955C2F3838071FEF76B93\core\wirish\start.S.o
 .debug_info    0x00005d2f      0x176 C:\Users\USER\AppData\Local\arduino\sketches\452188ACB23955C2F3838071FEF76B93\core\wirish\start_c.c.o
 .debug_info    0x00005ea5      0x5cd C:\Users\USER\AppData\Local\arduino\sketches\452188ACB23955C2F3838071FEF76B93\core\wirish\syscalls.c.o
 .debug_info    0x00006472     0x29ea C:\Users\USER\AppData\Local\arduino\cores\7bf7b0ebd1cd5824297d9ecc843c1978\core.a(HardwareSerial.cpp.o)
 .debug_info    0x00008e5c     0x258c C:\Users\USER\AppData\Local\arduino\cores\7bf7b0ebd1cd5824297d9ecc843c1978\core.a(Print.cpp.o)
 .debug_info    0x0000b3e8      0x526 C:\Users\USER\AppData\Local\arduino\cores\7bf7b0ebd1cd5824297d9ecc843c1978\core.a(cxxabi-compat.cpp.o)
 .debug_info    0x0000b90e      0x79a C:\Users\USER\AppData\Local\arduino\cores\7bf7b0ebd1cd5824297d9ecc843c1978\core.a(adc.c.o)
 .debug_info    0x0000c0a8      0xe4a C:\Users\USER\AppData\Local\arduino\cores\7bf7b0ebd1cd5824297d9ecc843c1978\core.a(adc_f1.c.o)
 .debug_info    0x0000cef2     0x18b1 C:\Users\USER\AppData\Local\arduino\cores\7bf7b0ebd1cd5824297d9ecc843c1978\core.a(dma_f1.c.o)
 .debug_info    0x0000e7a3       0xc9 C:\Users\USER\AppData\Local\arduino\cores\7bf7b0ebd1cd5824297d9ecc843c1978\core.a(exc.S.o)
 .debug_info    0x0000e86c      0xd3c C:\Users\USER\AppData\Local\arduino\cores\7bf7b0ebd1cd5824297d9ecc843c1978\core.a(exti.c.o)
 .debug_info    0x0000f5a8      0x213 C:\Users\USER\AppData\Local\arduino\cores\7bf7b0ebd1cd5824297d9ecc843c1978\core.a(exti_f1.c.o)
 .debug_info    0x0000f7bb      0x128 C:\Users\USER\AppData\Local\arduino\cores\7bf7b0ebd1cd5824297d9ecc843c1978\core.a(flash.c.o)
 .debug_info    0x0000f8e3      0x715 C:\Users\USER\AppData\Local\arduino\cores\7bf7b0ebd1cd5824297d9ecc843c1978\core.a(gpio_f1.c.o)
 .debug_info    0x0000fff8      0xc25 C:\Users\USER\AppData\Local\arduino\cores\7bf7b0ebd1cd5824297d9ecc843c1978\core.a(i2c_f1.c.o)
 .debug_info    0x00010c1d      0x5a2 C:\Users\USER\AppData\Local\arduino\cores\7bf7b0ebd1cd5824297d9ecc843c1978\core.a(nvic.c.o)
 .debug_info    0x000111bf      0x556 C:\Users\USER\AppData\Local\arduino\cores\7bf7b0ebd1cd5824297d9ecc843c1978\core.a(rcc.c.o)
 .debug_info    0x00011715      0xb64 C:\Users\USER\AppData\Local\arduino\cores\7bf7b0ebd1cd5824297d9ecc843c1978\core.a(rcc_f1.c.o)
 .debug_info    0x00012279       0xde C:\Users\USER\AppData\Local\arduino\cores\7bf7b0ebd1cd5824297d9ecc843c1978\core.a(isrs.S.o)
 .debug_info    0x00012357      0x182 C:\Users\USER\AppData\Local\arduino\cores\7bf7b0ebd1cd5824297d9ecc843c1978\core.a(systick.c.o)
 .debug_info    0x000124d9     0x197d C:\Users\USER\AppData\Local\arduino\cores\7bf7b0ebd1cd5824297d9ecc843c1978\core.a(timer.c.o)
 .debug_info    0x00013e56      0xc32 C:\Users\USER\AppData\Local\arduino\cores\7bf7b0ebd1cd5824297d9ecc843c1978\core.a(usart.c.o)
 .debug_info    0x00014a88      0xb89 C:\Users\USER\AppData\Local\arduino\cores\7bf7b0ebd1cd5824297d9ecc843c1978\core.a(usart_f1.c.o)
 .debug_info    0x00015611      0x595 C:\Users\USER\AppData\Local\arduino\cores\7bf7b0ebd1cd5824297d9ecc843c1978\core.a(usart_private.c.o)
 .debug_info    0x00015ba6      0xd16 C:\Users\USER\AppData\Local\arduino\cores\7bf7b0ebd1cd5824297d9ecc843c1978\core.a(usb.c.o)
 .debug_info    0x000168bc     0x22d2 C:\Users\USER\AppData\Local\arduino\cores\7bf7b0ebd1cd5824297d9ecc843c1978\core.a(usb_cdcacm.c.o)
 .debug_info    0x00018b8e      0x26c C:\Users\USER\AppData\Local\arduino\cores\7bf7b0ebd1cd5824297d9ecc843c1978\core.a(usb_reg_map.c.o)
 .debug_info    0x00018dfa      0xddf C:\Users\USER\AppData\Local\arduino\cores\7bf7b0ebd1cd5824297d9ecc843c1978\core.a(usb_core.c.o)
 .debug_info    0x00019bd9      0x3ed C:\Users\USER\AppData\Local\arduino\cores\7bf7b0ebd1cd5824297d9ecc843c1978\core.a(usb_init.c.o)
 .debug_info    0x00019fc6      0x183 C:\Users\USER\AppData\Local\arduino\cores\7bf7b0ebd1cd5824297d9ecc843c1978\core.a(usb_mem.c.o)
 .debug_info    0x0001a149      0xc88 C:\Users\USER\AppData\Local\arduino\cores\7bf7b0ebd1cd5824297d9ecc843c1978\core.a(usb_regs.c.o)
 .debug_info    0x0001add1      0xad2 C:\Users\USER\AppData\Local\arduino\cores\7bf7b0ebd1cd5824297d9ecc843c1978\core.a(util.c.o)
 .debug_info    0x0001b8a3       0x99 C:\Users\USER\AppData\Local\arduino\cores\7bf7b0ebd1cd5824297d9ecc843c1978\core.a(main.cpp.o)
 .debug_info    0x0001b93c      0xc8a C:\Users\USER\AppData\Local\arduino\cores\7bf7b0ebd1cd5824297d9ecc843c1978\core.a(wirish_digital_f1.cpp.o)
 .debug_info    0x0001c5c6      0xb0b C:\Users\USER\AppData\Local\arduino\cores\7bf7b0ebd1cd5824297d9ecc843c1978\core.a(wirish_digital.cpp.o)
 .debug_info    0x0001d0d1      0x2be C:\Users\USER\AppData\Local\arduino\cores\7bf7b0ebd1cd5824297d9ecc843c1978\core.a(wirish_time.cpp.o)
 .debug_info    0x0001d38f       0x33 C:\Users\USER\AppData\Local\arduino\cores\7bf7b0ebd1cd5824297d9ecc843c1978\core.a(hooks.c.o)
 .debug_info    0x0001d3c2      0x6f7 C:\Users\USER\AppData\Local\arduino\cores\7bf7b0ebd1cd5824297d9ecc843c1978\core.a(dma.c.o)
 .debug_info    0x0001dab9      0x313 C:\Users\USER\AppData\Local\arduino\cores\7bf7b0ebd1cd5824297d9ecc843c1978\core.a(gpio.c.o)
 .debug_info    0x0001ddcc     0x1ad2 C:\Users\USER\AppData\Local\arduino\cores\7bf7b0ebd1cd5824297d9ecc843c1978\core.a(i2c.c.o)

.debug_abbrev   0x00000000     0x60dd
 *(.debug_abbrev)
 .debug_abbrev  0x00000000      0x408 C:\Users\USER\AppData\Local\arduino\sketches\452188ACB23955C2F3838071FEF76B93\sketch\Lavadora.ino.cpp.o
 .debug_abbrev  0x00000408      0x450 C:\Users\USER\AppData\Local\arduino\sketches\452188ACB23955C2F3838071FEF76B93\sketch\SevSeg.cpp.o
 .debug_abbrev  0x00000858      0x275 C:\Users\USER\AppData\Local\arduino\sketches\452188ACB23955C2F3838071FEF76B93\core\board.cpp.o
 .debug_abbrev  0x00000acd      0x3dd C:\Users\USER\AppData\Local\arduino\sketches\452188ACB23955C2F3838071FEF76B93\core\wirish\boards.cpp.o
 .debug_abbrev  0x00000eaa      0x196 C:\Users\USER\AppData\Local\arduino\sketches\452188ACB23955C2F3838071FEF76B93\core\wirish\boards_setup.cpp.o
 .debug_abbrev  0x00001040       0x14 C:\Users\USER\AppData\Local\arduino\sketches\452188ACB23955C2F3838071FEF76B93\core\wirish\start.S.o
 .debug_abbrev  0x00001054      0x11f C:\Users\USER\AppData\Local\arduino\sketches\452188ACB23955C2F3838071FEF76B93\core\wirish\start_c.c.o
 .debug_abbrev  0x00001173      0x17e C:\Users\USER\AppData\Local\arduino\sketches\452188ACB23955C2F3838071FEF76B93\core\wirish\syscalls.c.o
 .debug_abbrev  0x000012f1      0x535 C:\Users\USER\AppData\Local\arduino\cores\7bf7b0ebd1cd5824297d9ecc843c1978\core.a(HardwareSerial.cpp.o)
 .debug_abbrev  0x00001826      0x414 C:\Users\USER\AppData\Local\arduino\cores\7bf7b0ebd1cd5824297d9ecc843c1978\core.a(Print.cpp.o)
 .debug_abbrev  0x00001c3a      0x163 C:\Users\USER\AppData\Local\arduino\cores\7bf7b0ebd1cd5824297d9ecc843c1978\core.a(cxxabi-compat.cpp.o)
 .debug_abbrev  0x00001d9d      0x20b C:\Users\USER\AppData\Local\arduino\cores\7bf7b0ebd1cd5824297d9ecc843c1978\core.a(adc.c.o)
 .debug_abbrev  0x00001fa8      0x2e6 C:\Users\USER\AppData\Local\arduino\cores\7bf7b0ebd1cd5824297d9ecc843c1978\core.a(adc_f1.c.o)
 .debug_abbrev  0x0000228e      0x3e9 C:\Users\USER\AppData\Local\arduino\cores\7bf7b0ebd1cd5824297d9ecc843c1978\core.a(dma_f1.c.o)
 .debug_abbrev  0x00002677       0x14 C:\Users\USER\AppData\Local\arduino\cores\7bf7b0ebd1cd5824297d9ecc843c1978\core.a(exc.S.o)
 .debug_abbrev  0x0000268b      0x286 C:\Users\USER\AppData\Local\arduino\cores\7bf7b0ebd1cd5824297d9ecc843c1978\core.a(exti.c.o)
 .debug_abbrev  0x00002911       0xdb C:\Users\USER\AppData\Local\arduino\cores\7bf7b0ebd1cd5824297d9ecc843c1978\core.a(exti_f1.c.o)
 .debug_abbrev  0x000029ec       0x9f C:\Users\USER\AppData\Local\arduino\cores\7bf7b0ebd1cd5824297d9ecc843c1978\core.a(flash.c.o)
 .debug_abbrev  0x00002a8b      0x191 C:\Users\USER\AppData\Local\arduino\cores\7bf7b0ebd1cd5824297d9ecc843c1978\core.a(gpio_f1.c.o)
 .debug_abbrev  0x00002c1c      0x20b C:\Users\USER\AppData\Local\arduino\cores\7bf7b0ebd1cd5824297d9ecc843c1978\core.a(i2c_f1.c.o)
 .debug_abbrev  0x00002e27      0x1ac C:\Users\USER\AppData\Local\arduino\cores\7bf7b0ebd1cd5824297d9ecc843c1978\core.a(nvic.c.o)
 .debug_abbrev  0x00002fd3      0x17f C:\Users\USER\AppData\Local\arduino\cores\7bf7b0ebd1cd5824297d9ecc843c1978\core.a(rcc.c.o)
 .debug_abbrev  0x00003152      0x28c C:\Users\USER\AppData\Local\arduino\cores\7bf7b0ebd1cd5824297d9ecc843c1978\core.a(rcc_f1.c.o)
 .debug_abbrev  0x000033de       0x14 C:\Users\USER\AppData\Local\arduino\cores\7bf7b0ebd1cd5824297d9ecc843c1978\core.a(isrs.S.o)
 .debug_abbrev  0x000033f2      0x10f C:\Users\USER\AppData\Local\arduino\cores\7bf7b0ebd1cd5824297d9ecc843c1978\core.a(systick.c.o)
 .debug_abbrev  0x00003501      0x4c8 C:\Users\USER\AppData\Local\arduino\cores\7bf7b0ebd1cd5824297d9ecc843c1978\core.a(timer.c.o)
 .debug_abbrev  0x000039c9      0x2ff C:\Users\USER\AppData\Local\arduino\cores\7bf7b0ebd1cd5824297d9ecc843c1978\core.a(usart.c.o)
 .debug_abbrev  0x00003cc8      0x2ad C:\Users\USER\AppData\Local\arduino\cores\7bf7b0ebd1cd5824297d9ecc843c1978\core.a(usart_f1.c.o)
 .debug_abbrev  0x00003f75      0x144 C:\Users\USER\AppData\Local\arduino\cores\7bf7b0ebd1cd5824297d9ecc843c1978\core.a(usart_private.c.o)
 .debug_abbrev  0x000040b9      0x352 C:\Users\USER\AppData\Local\arduino\cores\7bf7b0ebd1cd5824297d9ecc843c1978\core.a(usb.c.o)
 .debug_abbrev  0x0000440b      0x47d C:\Users\USER\AppData\Local\arduino\cores\7bf7b0ebd1cd5824297d9ecc843c1978\core.a(usb_cdcacm.c.o)
 .debug_abbrev  0x00004888      0x193 C:\Users\USER\AppData\Local\arduino\cores\7bf7b0ebd1cd5824297d9ecc843c1978\core.a(usb_reg_map.c.o)
 .debug_abbrev  0x00004a1b      0x3a6 C:\Users\USER\AppData\Local\arduino\cores\7bf7b0ebd1cd5824297d9ecc843c1978\core.a(usb_core.c.o)
 .debug_abbrev  0x00004dc1      0x101 C:\Users\USER\AppData\Local\arduino\cores\7bf7b0ebd1cd5824297d9ecc843c1978\core.a(usb_init.c.o)
 .debug_abbrev  0x00004ec2       0xa6 C:\Users\USER\AppData\Local\arduino\cores\7bf7b0ebd1cd5824297d9ecc843c1978\core.a(usb_mem.c.o)
 .debug_abbrev  0x00004f68      0x1f3 C:\Users\USER\AppData\Local\arduino\cores\7bf7b0ebd1cd5824297d9ecc843c1978\core.a(usb_regs.c.o)
 .debug_abbrev  0x0000515b      0x2cb C:\Users\USER\AppData\Local\arduino\cores\7bf7b0ebd1cd5824297d9ecc843c1978\core.a(util.c.o)
 .debug_abbrev  0x00005426       0x7b C:\Users\USER\AppData\Local\arduino\cores\7bf7b0ebd1cd5824297d9ecc843c1978\core.a(main.cpp.o)
 .debug_abbrev  0x000054a1      0x240 C:\Users\USER\AppData\Local\arduino\cores\7bf7b0ebd1cd5824297d9ecc843c1978\core.a(wirish_digital_f1.cpp.o)
 .debug_abbrev  0x000056e1      0x17e C:\Users\USER\AppData\Local\arduino\cores\7bf7b0ebd1cd5824297d9ecc843c1978\core.a(wirish_digital.cpp.o)
 .debug_abbrev  0x0000585f      0x196 C:\Users\USER\AppData\Local\arduino\cores\7bf7b0ebd1cd5824297d9ecc843c1978\core.a(wirish_time.cpp.o)
 .debug_abbrev  0x000059f5       0x26 C:\Users\USER\AppData\Local\arduino\cores\7bf7b0ebd1cd5824297d9ecc843c1978\core.a(hooks.c.o)
 .debug_abbrev  0x00005a1b      0x182 C:\Users\USER\AppData\Local\arduino\cores\7bf7b0ebd1cd5824297d9ecc843c1978\core.a(dma.c.o)
 .debug_abbrev  0x00005b9d      0x113 C:\Users\USER\AppData\Local\arduino\cores\7bf7b0ebd1cd5824297d9ecc843c1978\core.a(gpio.c.o)
 .debug_abbrev  0x00005cb0      0x42d C:\Users\USER\AppData\Local\arduino\cores\7bf7b0ebd1cd5824297d9ecc843c1978\core.a(i2c.c.o)

.debug_line     0x00000000     0xa9f8
 *(.debug_line)
 .debug_line    0x00000000      0x6fc C:\Users\USER\AppData\Local\arduino\sketches\452188ACB23955C2F3838071FEF76B93\sketch\Lavadora.ino.cpp.o
 .debug_line    0x000006fc      0x688 C:\Users\USER\AppData\Local\arduino\sketches\452188ACB23955C2F3838071FEF76B93\sketch\SevSeg.cpp.o
 .debug_line    0x00000d84      0x462 C:\Users\USER\AppData\Local\arduino\sketches\452188ACB23955C2F3838071FEF76B93\core\board.cpp.o
 .debug_line    0x000011e6      0x4c1 C:\Users\USER\AppData\Local\arduino\sketches\452188ACB23955C2F3838071FEF76B93\core\wirish\boards.cpp.o
 .debug_line    0x000016a7      0x3b4 C:\Users\USER\AppData\Local\arduino\sketches\452188ACB23955C2F3838071FEF76B93\core\wirish\boards_setup.cpp.o
 .debug_line    0x00001a5b       0xaf C:\Users\USER\AppData\Local\arduino\sketches\452188ACB23955C2F3838071FEF76B93\core\wirish\start.S.o
 .debug_line    0x00001b0a       0xc0 C:\Users\USER\AppData\Local\arduino\sketches\452188ACB23955C2F3838071FEF76B93\core\wirish\start_c.c.o
 .debug_line    0x00001bca      0x303 C:\Users\USER\AppData\Local\arduino\sketches\452188ACB23955C2F3838071FEF76B93\core\wirish\syscalls.c.o
 .debug_line    0x00001ecd      0x557 C:\Users\USER\AppData\Local\arduino\cores\7bf7b0ebd1cd5824297d9ecc843c1978\core.a(HardwareSerial.cpp.o)
 .debug_line    0x00002424      0x5c5 C:\Users\USER\AppData\Local\arduino\cores\7bf7b0ebd1cd5824297d9ecc843c1978\core.a(Print.cpp.o)
 .debug_line    0x000029e9      0x269 C:\Users\USER\AppData\Local\arduino\cores\7bf7b0ebd1cd5824297d9ecc843c1978\core.a(cxxabi-compat.cpp.o)
 .debug_line    0x00002c52      0x340 C:\Users\USER\AppData\Local\arduino\cores\7bf7b0ebd1cd5824297d9ecc843c1978\core.a(adc.c.o)
 .debug_line    0x00002f92      0x3ec C:\Users\USER\AppData\Local\arduino\cores\7bf7b0ebd1cd5824297d9ecc843c1978\core.a(adc_f1.c.o)
 .debug_line    0x0000337e      0x671 C:\Users\USER\AppData\Local\arduino\cores\7bf7b0ebd1cd5824297d9ecc843c1978\core.a(dma_f1.c.o)
 .debug_line    0x000039ef       0xb7 C:\Users\USER\AppData\Local\arduino\cores\7bf7b0ebd1cd5824297d9ecc843c1978\core.a(exc.S.o)
 .debug_line    0x00003aa6      0x419 C:\Users\USER\AppData\Local\arduino\cores\7bf7b0ebd1cd5824297d9ecc843c1978\core.a(exti.c.o)
 .debug_line    0x00003ebf      0x342 C:\Users\USER\AppData\Local\arduino\cores\7bf7b0ebd1cd5824297d9ecc843c1978\core.a(exti_f1.c.o)
 .debug_line    0x00004201      0x2c2 C:\Users\USER\AppData\Local\arduino\cores\7bf7b0ebd1cd5824297d9ecc843c1978\core.a(flash.c.o)
 .debug_line    0x000044c3      0x36b C:\Users\USER\AppData\Local\arduino\cores\7bf7b0ebd1cd5824297d9ecc843c1978\core.a(gpio_f1.c.o)
 .debug_line    0x0000482e      0x44f C:\Users\USER\AppData\Local\arduino\cores\7bf7b0ebd1cd5824297d9ecc843c1978\core.a(i2c_f1.c.o)
 .debug_line    0x00004c7d      0x32a C:\Users\USER\AppData\Local\arduino\cores\7bf7b0ebd1cd5824297d9ecc843c1978\core.a(nvic.c.o)
 .debug_line    0x00004fa7      0x3c3 C:\Users\USER\AppData\Local\arduino\cores\7bf7b0ebd1cd5824297d9ecc843c1978\core.a(rcc.c.o)
 .debug_line    0x0000536a      0x410 C:\Users\USER\AppData\Local\arduino\cores\7bf7b0ebd1cd5824297d9ecc843c1978\core.a(rcc_f1.c.o)
 .debug_line    0x0000577a       0xb4 C:\Users\USER\AppData\Local\arduino\cores\7bf7b0ebd1cd5824297d9ecc843c1978\core.a(isrs.S.o)
 .debug_line    0x0000582e      0x294 C:\Users\USER\AppData\Local\arduino\cores\7bf7b0ebd1cd5824297d9ecc843c1978\core.a(systick.c.o)
 .debug_line    0x00005ac2      0x623 C:\Users\USER\AppData\Local\arduino\cores\7bf7b0ebd1cd5824297d9ecc843c1978\core.a(timer.c.o)
 .debug_line    0x000060e5      0x458 C:\Users\USER\AppData\Local\arduino\cores\7bf7b0ebd1cd5824297d9ecc843c1978\core.a(usart.c.o)
 .debug_line    0x0000653d      0x460 C:\Users\USER\AppData\Local\arduino\cores\7bf7b0ebd1cd5824297d9ecc843c1978\core.a(usart_f1.c.o)
 .debug_line    0x0000699d      0x2fe C:\Users\USER\AppData\Local\arduino\cores\7bf7b0ebd1cd5824297d9ecc843c1978\core.a(usart_private.c.o)
 .debug_line    0x00006c9b      0x536 C:\Users\USER\AppData\Local\arduino\cores\7bf7b0ebd1cd5824297d9ecc843c1978\core.a(usb.c.o)
 .debug_line    0x000071d1      0x940 C:\Users\USER\AppData\Local\arduino\cores\7bf7b0ebd1cd5824297d9ecc843c1978\core.a(usb_cdcacm.c.o)
 .debug_line    0x00007b11      0x2f5 C:\Users\USER\AppData\Local\arduino\cores\7bf7b0ebd1cd5824297d9ecc843c1978\core.a(usb_reg_map.c.o)
 .debug_line    0x00007e06      0x431 C:\Users\USER\AppData\Local\arduino\cores\7bf7b0ebd1cd5824297d9ecc843c1978\core.a(usb_core.c.o)
 .debug_line    0x00008237      0x146 C:\Users\USER\AppData\Local\arduino\cores\7bf7b0ebd1cd5824297d9ecc843c1978\core.a(usb_init.c.o)
 .debug_line    0x0000837d      0x180 C:\Users\USER\AppData\Local\arduino\cores\7bf7b0ebd1cd5824297d9ecc843c1978\core.a(usb_mem.c.o)
 .debug_line    0x000084fd      0x5aa C:\Users\USER\AppData\Local\arduino\cores\7bf7b0ebd1cd5824297d9ecc843c1978\core.a(usb_regs.c.o)
 .debug_line    0x00008aa7      0x3c6 C:\Users\USER\AppData\Local\arduino\cores\7bf7b0ebd1cd5824297d9ecc843c1978\core.a(util.c.o)
 .debug_line    0x00008e6d       0xaf C:\Users\USER\AppData\Local\arduino\cores\7bf7b0ebd1cd5824297d9ecc843c1978\core.a(main.cpp.o)
 .debug_line    0x00008f1c      0x3f0 C:\Users\USER\AppData\Local\arduino\cores\7bf7b0ebd1cd5824297d9ecc843c1978\core.a(wirish_digital_f1.cpp.o)
 .debug_line    0x0000930c      0x374 C:\Users\USER\AppData\Local\arduino\cores\7bf7b0ebd1cd5824297d9ecc843c1978\core.a(wirish_digital.cpp.o)
 .debug_line    0x00009680      0x35b C:\Users\USER\AppData\Local\arduino\cores\7bf7b0ebd1cd5824297d9ecc843c1978\core.a(wirish_time.cpp.o)
 .debug_line    0x000099db       0x98 C:\Users\USER\AppData\Local\arduino\cores\7bf7b0ebd1cd5824297d9ecc843c1978\core.a(hooks.c.o)
 .debug_line    0x00009a73      0x38c C:\Users\USER\AppData\Local\arduino\cores\7bf7b0ebd1cd5824297d9ecc843c1978\core.a(dma.c.o)
 .debug_line    0x00009dff      0x2e7 C:\Users\USER\AppData\Local\arduino\cores\7bf7b0ebd1cd5824297d9ecc843c1978\core.a(gpio.c.o)
 .debug_line    0x0000a0e6      0x912 C:\Users\USER\AppData\Local\arduino\cores\7bf7b0ebd1cd5824297d9ecc843c1978\core.a(i2c.c.o)

.debug_frame    0x00000000     0x23ec
 *(.debug_frame)
 .debug_frame   0x00000000      0x1c0 C:\Users\USER\AppData\Local\arduino\sketches\452188ACB23955C2F3838071FEF76B93\sketch\Lavadora.ino.cpp.o
 .debug_frame   0x000001c0      0x1f0 C:\Users\USER\AppData\Local\arduino\sketches\452188ACB23955C2F3838071FEF76B93\sketch\SevSeg.cpp.o
 .debug_frame   0x000003b0       0x40 C:\Users\USER\AppData\Local\arduino\sketches\452188ACB23955C2F3838071FEF76B93\core\board.cpp.o
 .debug_frame   0x000003f0       0x84 C:\Users\USER\AppData\Local\arduino\sketches\452188ACB23955C2F3838071FEF76B93\core\wirish\boards.cpp.o
 .debug_frame   0x00000474       0x68 C:\Users\USER\AppData\Local\arduino\sketches\452188ACB23955C2F3838071FEF76B93\core\wirish\boards_setup.cpp.o
 .debug_frame   0x000004dc       0x28 C:\Users\USER\AppData\Local\arduino\sketches\452188ACB23955C2F3838071FEF76B93\core\wirish\start_c.c.o
 .debug_frame   0x00000504      0x130 C:\Users\USER\AppData\Local\arduino\sketches\452188ACB23955C2F3838071FEF76B93\core\wirish\syscalls.c.o
 .debug_frame   0x00000634      0x10c C:\Users\USER\AppData\Local\arduino\cores\7bf7b0ebd1cd5824297d9ecc843c1978\core.a(HardwareSerial.cpp.o)
 .debug_frame   0x00000740      0x378 C:\Users\USER\AppData\Local\arduino\cores\7bf7b0ebd1cd5824297d9ecc843c1978\core.a(Print.cpp.o)
 .debug_frame   0x00000ab8       0x38 C:\Users\USER\AppData\Local\arduino\cores\7bf7b0ebd1cd5824297d9ecc843c1978\core.a(cxxabi-compat.cpp.o)
 .debug_frame   0x00000af0       0x64 C:\Users\USER\AppData\Local\arduino\cores\7bf7b0ebd1cd5824297d9ecc843c1978\core.a(adc.c.o)
 .debug_frame   0x00000b54       0xb4 C:\Users\USER\AppData\Local\arduino\cores\7bf7b0ebd1cd5824297d9ecc843c1978\core.a(adc_f1.c.o)
 .debug_frame   0x00000c08      0x190 C:\Users\USER\AppData\Local\arduino\cores\7bf7b0ebd1cd5824297d9ecc843c1978\core.a(dma_f1.c.o)
 .debug_frame   0x00000d98      0x11c C:\Users\USER\AppData\Local\arduino\cores\7bf7b0ebd1cd5824297d9ecc843c1978\core.a(exti.c.o)
 .debug_frame   0x00000eb4       0x20 C:\Users\USER\AppData\Local\arduino\cores\7bf7b0ebd1cd5824297d9ecc843c1978\core.a(exti_f1.c.o)
 .debug_frame   0x00000ed4       0x20 C:\Users\USER\AppData\Local\arduino\cores\7bf7b0ebd1cd5824297d9ecc843c1978\core.a(flash.c.o)
 .debug_frame   0x00000ef4       0x8c C:\Users\USER\AppData\Local\arduino\cores\7bf7b0ebd1cd5824297d9ecc843c1978\core.a(gpio_f1.c.o)
 .debug_frame   0x00000f80       0x94 C:\Users\USER\AppData\Local\arduino\cores\7bf7b0ebd1cd5824297d9ecc843c1978\core.a(i2c_f1.c.o)
 .debug_frame   0x00001014       0x5c C:\Users\USER\AppData\Local\arduino\cores\7bf7b0ebd1cd5824297d9ecc843c1978\core.a(nvic.c.o)
 .debug_frame   0x00001070       0x70 C:\Users\USER\AppData\Local\arduino\cores\7bf7b0ebd1cd5824297d9ecc843c1978\core.a(rcc.c.o)
 .debug_frame   0x000010e0       0x98 C:\Users\USER\AppData\Local\arduino\cores\7bf7b0ebd1cd5824297d9ecc843c1978\core.a(rcc_f1.c.o)
 .debug_frame   0x00001178       0x68 C:\Users\USER\AppData\Local\arduino\cores\7bf7b0ebd1cd5824297d9ecc843c1978\core.a(systick.c.o)
 .debug_frame   0x000011e0      0x1c0 C:\Users\USER\AppData\Local\arduino\cores\7bf7b0ebd1cd5824297d9ecc843c1978\core.a(timer.c.o)
 .debug_frame   0x000013a0       0xb4 C:\Users\USER\AppData\Local\arduino\cores\7bf7b0ebd1cd5824297d9ecc843c1978\core.a(usart.c.o)
 .debug_frame   0x00001454       0xac C:\Users\USER\AppData\Local\arduino\cores\7bf7b0ebd1cd5824297d9ecc843c1978\core.a(usart_f1.c.o)
 .debug_frame   0x00001500       0x28 C:\Users\USER\AppData\Local\arduino\cores\7bf7b0ebd1cd5824297d9ecc843c1978\core.a(usart_private.c.o)
 .debug_frame   0x00001528       0x6c C:\Users\USER\AppData\Local\arduino\cores\7bf7b0ebd1cd5824297d9ecc843c1978\core.a(usb.c.o)
 .debug_frame   0x00001594      0x2c8 C:\Users\USER\AppData\Local\arduino\cores\7bf7b0ebd1cd5824297d9ecc843c1978\core.a(usb_cdcacm.c.o)
 .debug_frame   0x0000185c       0x20 C:\Users\USER\AppData\Local\arduino\cores\7bf7b0ebd1cd5824297d9ecc843c1978\core.a(usb_reg_map.c.o)
 .debug_frame   0x0000187c      0x1ac C:\Users\USER\AppData\Local\arduino\cores\7bf7b0ebd1cd5824297d9ecc843c1978\core.a(usb_core.c.o)
 .debug_frame   0x00001a28       0x28 C:\Users\USER\AppData\Local\arduino\cores\7bf7b0ebd1cd5824297d9ecc843c1978\core.a(usb_init.c.o)
 .debug_frame   0x00001a50       0x4c C:\Users\USER\AppData\Local\arduino\cores\7bf7b0ebd1cd5824297d9ecc843c1978\core.a(usb_mem.c.o)
 .debug_frame   0x00001a9c      0x3d0 C:\Users\USER\AppData\Local\arduino\cores\7bf7b0ebd1cd5824297d9ecc843c1978\core.a(usb_regs.c.o)
 .debug_frame   0x00001e6c       0xc8 C:\Users\USER\AppData\Local\arduino\cores\7bf7b0ebd1cd5824297d9ecc843c1978\core.a(util.c.o)
 .debug_frame   0x00001f34       0x38 C:\Users\USER\AppData\Local\arduino\cores\7bf7b0ebd1cd5824297d9ecc843c1978\core.a(main.cpp.o)
 .debug_frame   0x00001f6c       0x2c C:\Users\USER\AppData\Local\arduino\cores\7bf7b0ebd1cd5824297d9ecc843c1978\core.a(wirish_digital_f1.cpp.o)
 .debug_frame   0x00001f98       0x30 C:\Users\USER\AppData\Local\arduino\cores\7bf7b0ebd1cd5824297d9ecc843c1978\core.a(wirish_digital.cpp.o)
 .debug_frame   0x00001fc8       0x4c C:\Users\USER\AppData\Local\arduino\cores\7bf7b0ebd1cd5824297d9ecc843c1978\core.a(wirish_time.cpp.o)
 .debug_frame   0x00002014       0x20 C:\Users\USER\AppData\Local\arduino\cores\7bf7b0ebd1cd5824297d9ecc843c1978\core.a(hooks.c.o)
 .debug_frame   0x00002034       0x30 C:\Users\USER\AppData\Local\arduino\cores\7bf7b0ebd1cd5824297d9ecc843c1978\core.a(dma.c.o)
 .debug_frame   0x00002064       0x28 C:\Users\USER\AppData\Local\arduino\cores\7bf7b0ebd1cd5824297d9ecc843c1978\core.a(gpio.c.o)
 .debug_frame   0x0000208c      0x14c C:\Users\USER\AppData\Local\arduino\cores\7bf7b0ebd1cd5824297d9ecc843c1978\core.a(i2c.c.o)
 .debug_frame   0x000021d8       0x2c c:/users/user/appdata/local/arduino15/packages/arduino/tools/arm-none-eabi-gcc/4.8.3-2014q1/bin/../lib/gcc/arm-none-eabi/4.8.3/armv7-m\libgcc.a(_fixdfdi.o)
 .debug_frame   0x00002204       0x2c c:/users/user/appdata/local/arduino15/packages/arduino/tools/arm-none-eabi-gcc/4.8.3-2014q1/bin/../lib/gcc/arm-none-eabi/4.8.3/armv7-m\libgcc.a(_fixunsdfdi.o)
 .debug_frame   0x00002230       0x58 c:/users/user/appdata/local/arduino15/packages/arduino/tools/arm-none-eabi-gcc/4.8.3-2014q1/bin/../lib/gcc/arm-none-eabi/4.8.3/armv7-m\libgcc.a(bpabi.o)
 .debug_frame   0x00002288       0x34 c:/users/user/appdata/local/arduino15/packages/arduino/tools/arm-none-eabi-gcc/4.8.3-2014q1/bin/../lib/gcc/arm-none-eabi/4.8.3/armv7-m\libgcc.a(_divdi3.o)
 .debug_frame   0x000022bc       0x34 c:/users/user/appdata/local/arduino15/packages/arduino/tools/arm-none-eabi-gcc/4.8.3-2014q1/bin/../lib/gcc/arm-none-eabi/4.8.3/armv7-m\libgcc.a(_udivdi3.o)
 .debug_frame   0x000022f0       0x20 c:/users/user/appdata/local/arduino15/packages/arduino/tools/arm-none-eabi-gcc/4.8.3-2014q1/bin/../lib/gcc/arm-none-eabi/4.8.3/../../../../arm-none-eabi/lib/armv7-m\libc_s.a(lib_a-errno.o)
 .debug_frame   0x00002310       0x28 c:/users/user/appdata/local/arduino15/packages/arduino/tools/arm-none-eabi-gcc/4.8.3-2014q1/bin/../lib/gcc/arm-none-eabi/4.8.3/../../../../arm-none-eabi/lib/armv7-m\libc_s.a(lib_a-exit.o)
 .debug_frame   0x00002338       0x2c c:/users/user/appdata/local/arduino15/packages/arduino/tools/arm-none-eabi-gcc/4.8.3-2014q1/bin/../lib/gcc/arm-none-eabi/4.8.3/../../../../arm-none-eabi/lib/armv7-m\libc_s.a(lib_a-init.o)
 .debug_frame   0x00002364       0x28 c:/users/user/appdata/local/arduino15/packages/arduino/tools/arm-none-eabi-gcc/4.8.3-2014q1/bin/../lib/gcc/arm-none-eabi/4.8.3/../../../../arm-none-eabi/lib/armv7-m\libc_s.a(lib_a-memcpy-stub.o)
 .debug_frame   0x0000238c       0x20 c:/users/user/appdata/local/arduino15/packages/arduino/tools/arm-none-eabi-gcc/4.8.3-2014q1/bin/../lib/gcc/arm-none-eabi/4.8.3/../../../../arm-none-eabi/lib/armv7-m\libc_s.a(lib_a-memset.o)
 .debug_frame   0x000023ac       0x20 c:/users/user/appdata/local/arduino15/packages/arduino/tools/arm-none-eabi-gcc/4.8.3-2014q1/bin/../lib/gcc/arm-none-eabi/4.8.3/../../../../arm-none-eabi/lib/armv7-m\libc_s.a(lib_a-strcpy.o)
 .debug_frame   0x000023cc       0x20 c:/users/user/appdata/local/arduino15/packages/arduino/tools/arm-none-eabi-gcc/4.8.3-2014q1/bin/../lib/gcc/arm-none-eabi/4.8.3/../../../../arm-none-eabi/lib/armv7-m\libc_s.a(lib_a-strlen.o)

.debug_str      0x00000000     0x84c8
 *(.debug_str)
 .debug_str     0x00000000      0xe78 C:\Users\USER\AppData\Local\arduino\sketches\452188ACB23955C2F3838071FEF76B93\sketch\Lavadora.ino.cpp.o
                                0xf26 (size before relaxing)
 .debug_str     0x00000e78      0x1f7 C:\Users\USER\AppData\Local\arduino\sketches\452188ACB23955C2F3838071FEF76B93\sketch\SevSeg.cpp.o
                                0x911 (size before relaxing)
 .debug_str     0x0000106f      0xcf3 C:\Users\USER\AppData\Local\arduino\sketches\452188ACB23955C2F3838071FEF76B93\core\board.cpp.o
                               0x1005 (size before relaxing)
 .debug_str     0x00001d62      0x781 C:\Users\USER\AppData\Local\arduino\sketches\452188ACB23955C2F3838071FEF76B93\core\wirish\boards.cpp.o
                               0x1151 (size before relaxing)
 .debug_str     0x000024e3      0x3f9 C:\Users\USER\AppData\Local\arduino\sketches\452188ACB23955C2F3838071FEF76B93\core\wirish\boards_setup.cpp.o
                                0xabe (size before relaxing)
 .debug_str     0x000028dc      0x1c8 C:\Users\USER\AppData\Local\arduino\sketches\452188ACB23955C2F3838071FEF76B93\core\wirish\start_c.c.o
                                0x206 (size before relaxing)
 .debug_str     0x00002aa4      0x1e8 C:\Users\USER\AppData\Local\arduino\sketches\452188ACB23955C2F3838071FEF76B93\core\wirish\syscalls.c.o
                                0x388 (size before relaxing)
 .debug_str     0x00002c8c     0x10ba C:\Users\USER\AppData\Local\arduino\cores\7bf7b0ebd1cd5824297d9ecc843c1978\core.a(HardwareSerial.cpp.o)
                               0x1c0f (size before relaxing)
 .debug_str     0x00003d46      0x431 C:\Users\USER\AppData\Local\arduino\cores\7bf7b0ebd1cd5824297d9ecc843c1978\core.a(Print.cpp.o)
                                0xfdd (size before relaxing)
 .debug_str     0x00004177      0x181 C:\Users\USER\AppData\Local\arduino\cores\7bf7b0ebd1cd5824297d9ecc843c1978\core.a(cxxabi-compat.cpp.o)
                                0x39c (size before relaxing)
 .debug_str     0x000042f8      0x231 C:\Users\USER\AppData\Local\arduino\cores\7bf7b0ebd1cd5824297d9ecc843c1978\core.a(adc.c.o)
                                0xad5 (size before relaxing)
 .debug_str     0x00004529      0x217 C:\Users\USER\AppData\Local\arduino\cores\7bf7b0ebd1cd5824297d9ecc843c1978\core.a(adc_f1.c.o)
                                0xdf0 (size before relaxing)
 .debug_str     0x00004740      0xaee C:\Users\USER\AppData\Local\arduino\cores\7bf7b0ebd1cd5824297d9ecc843c1978\core.a(dma_f1.c.o)
                               0x13b3 (size before relaxing)
 .debug_str     0x0000522e      0x239 C:\Users\USER\AppData\Local\arduino\cores\7bf7b0ebd1cd5824297d9ecc843c1978\core.a(exti.c.o)
                                0x934 (size before relaxing)
 .debug_str     0x00005467       0x74 C:\Users\USER\AppData\Local\arduino\cores\7bf7b0ebd1cd5824297d9ecc843c1978\core.a(exti_f1.c.o)
                                0x2fa (size before relaxing)
 .debug_str     0x000054db       0x7e C:\Users\USER\AppData\Local\arduino\cores\7bf7b0ebd1cd5824297d9ecc843c1978\core.a(flash.c.o)
                                0x219 (size before relaxing)
 .debug_str     0x00005559       0xae C:\Users\USER\AppData\Local\arduino\cores\7bf7b0ebd1cd5824297d9ecc843c1978\core.a(gpio_f1.c.o)
                                0x7f2 (size before relaxing)
 .debug_str     0x00005607      0x2e9 C:\Users\USER\AppData\Local\arduino\cores\7bf7b0ebd1cd5824297d9ecc843c1978\core.a(i2c_f1.c.o)
                                0xdcb (size before relaxing)
 .debug_str     0x000058f0       0xed C:\Users\USER\AppData\Local\arduino\cores\7bf7b0ebd1cd5824297d9ecc843c1978\core.a(nvic.c.o)
                                0x722 (size before relaxing)
 .debug_str     0x000059dd      0x111 C:\Users\USER\AppData\Local\arduino\cores\7bf7b0ebd1cd5824297d9ecc843c1978\core.a(rcc.c.o)
                                0x56e (size before relaxing)
 .debug_str     0x00005aee      0x105 C:\Users\USER\AppData\Local\arduino\cores\7bf7b0ebd1cd5824297d9ecc843c1978\core.a(rcc_f1.c.o)
                                0x80f (size before relaxing)
 .debug_str     0x00005bf3       0xda C:\Users\USER\AppData\Local\arduino\cores\7bf7b0ebd1cd5824297d9ecc843c1978\core.a(systick.c.o)
                                0x27f (size before relaxing)
 .debug_str     0x00005ccd      0x370 C:\Users\USER\AppData\Local\arduino\cores\7bf7b0ebd1cd5824297d9ecc843c1978\core.a(timer.c.o)
                                0xec8 (size before relaxing)
 .debug_str     0x0000603d       0xee C:\Users\USER\AppData\Local\arduino\cores\7bf7b0ebd1cd5824297d9ecc843c1978\core.a(usart.c.o)
                                0x9e5 (size before relaxing)
 .debug_str     0x0000612b      0x14d C:\Users\USER\AppData\Local\arduino\cores\7bf7b0ebd1cd5824297d9ecc843c1978\core.a(usart_f1.c.o)
                                0xad9 (size before relaxing)
 .debug_str     0x00006278       0x7a C:\Users\USER\AppData\Local\arduino\cores\7bf7b0ebd1cd5824297d9ecc843c1978\core.a(usart_private.c.o)
                                0x8a4 (size before relaxing)
 .debug_str     0x000062f2      0x61c C:\Users\USER\AppData\Local\arduino\cores\7bf7b0ebd1cd5824297d9ecc843c1978\core.a(usb.c.o)
                                0xa7c (size before relaxing)
 .debug_str     0x0000690e      0x999 C:\Users\USER\AppData\Local\arduino\cores\7bf7b0ebd1cd5824297d9ecc843c1978\core.a(usb_cdcacm.c.o)
                               0x184d (size before relaxing)
 .debug_str     0x000072a7       0xa7 C:\Users\USER\AppData\Local\arduino\cores\7bf7b0ebd1cd5824297d9ecc843c1978\core.a(usb_reg_map.c.o)
                                0x2a2 (size before relaxing)
 .debug_str     0x0000734e      0x4a7 C:\Users\USER\AppData\Local\arduino\cores\7bf7b0ebd1cd5824297d9ecc843c1978\core.a(usb_core.c.o)
                                0xada (size before relaxing)
 .debug_str     0x000077f5       0xac C:\Users\USER\AppData\Local\arduino\cores\7bf7b0ebd1cd5824297d9ecc843c1978\core.a(usb_init.c.o)
                                0x53e (size before relaxing)
 .debug_str     0x000078a1       0xb8 C:\Users\USER\AppData\Local\arduino\cores\7bf7b0ebd1cd5824297d9ecc843c1978\core.a(usb_mem.c.o)
                                0x1fc (size before relaxing)
 .debug_str     0x00007959      0x3f1 C:\Users\USER\AppData\Local\arduino\cores\7bf7b0ebd1cd5824297d9ecc843c1978\core.a(usb_regs.c.o)
                                0x57c (size before relaxing)
 .debug_str     0x00007d4a      0x10e C:\Users\USER\AppData\Local\arduino\cores\7bf7b0ebd1cd5824297d9ecc843c1978\core.a(util.c.o)
                                0xa51 (size before relaxing)
 .debug_str     0x00007e58       0x7e C:\Users\USER\AppData\Local\arduino\cores\7bf7b0ebd1cd5824297d9ecc843c1978\core.a(main.cpp.o)
                                0x1c2 (size before relaxing)
 .debug_str     0x00007ed6       0x8a C:\Users\USER\AppData\Local\arduino\cores\7bf7b0ebd1cd5824297d9ecc843c1978\core.a(wirish_digital_f1.cpp.o)
                                0xc71 (size before relaxing)
 .debug_str     0x00007f60       0x82 C:\Users\USER\AppData\Local\arduino\cores\7bf7b0ebd1cd5824297d9ecc843c1978\core.a(wirish_digital.cpp.o)
                                0xae2 (size before relaxing)
 .debug_str     0x00007fe2       0x86 C:\Users\USER\AppData\Local\arduino\cores\7bf7b0ebd1cd5824297d9ecc843c1978\core.a(wirish_time.cpp.o)
                                0x33a (size before relaxing)
 .debug_str     0x00008068       0x71 C:\Users\USER\AppData\Local\arduino\cores\7bf7b0ebd1cd5824297d9ecc843c1978\core.a(hooks.c.o)
                                0x13b (size before relaxing)
 .debug_str     0x000080d9      0x148 C:\Users\USER\AppData\Local\arduino\cores\7bf7b0ebd1cd5824297d9ecc843c1978\core.a(dma.c.o)
                                0xa4d (size before relaxing)
 .debug_str     0x00008221       0x71 C:\Users\USER\AppData\Local\arduino\cores\7bf7b0ebd1cd5824297d9ecc843c1978\core.a(gpio.c.o)
                                0x45d (size before relaxing)
 .debug_str     0x00008292      0x236 C:\Users\USER\AppData\Local\arduino\cores\7bf7b0ebd1cd5824297d9ecc843c1978\core.a(i2c.c.o)
                                0xfce (size before relaxing)

.debug_loc      0x00000000     0x94f0
 *(.debug_loc)
 .debug_loc     0x00000000      0x1fc C:\Users\USER\AppData\Local\arduino\sketches\452188ACB23955C2F3838071FEF76B93\sketch\Lavadora.ino.cpp.o
 .debug_loc     0x000001fc      0xda0 C:\Users\USER\AppData\Local\arduino\sketches\452188ACB23955C2F3838071FEF76B93\sketch\SevSeg.cpp.o
 .debug_loc     0x00000f9c      0x253 C:\Users\USER\AppData\Local\arduino\sketches\452188ACB23955C2F3838071FEF76B93\core\wirish\boards.cpp.o
 .debug_loc     0x000011ef       0xa5 C:\Users\USER\AppData\Local\arduino\sketches\452188ACB23955C2F3838071FEF76B93\core\wirish\start_c.c.o
 .debug_loc     0x00001294      0x38a C:\Users\USER\AppData\Local\arduino\sketches\452188ACB23955C2F3838071FEF76B93\core\wirish\syscalls.c.o
 .debug_loc     0x0000161e      0x39a C:\Users\USER\AppData\Local\arduino\cores\7bf7b0ebd1cd5824297d9ecc843c1978\core.a(HardwareSerial.cpp.o)
 .debug_loc     0x000019b8     0x10a7 C:\Users\USER\AppData\Local\arduino\cores\7bf7b0ebd1cd5824297d9ecc843c1978\core.a(Print.cpp.o)
 .debug_loc     0x00002a5f       0x81 C:\Users\USER\AppData\Local\arduino\cores\7bf7b0ebd1cd5824297d9ecc843c1978\core.a(cxxabi-compat.cpp.o)
 .debug_loc     0x00002ae0      0x145 C:\Users\USER\AppData\Local\arduino\cores\7bf7b0ebd1cd5824297d9ecc843c1978\core.a(adc.c.o)
 .debug_loc     0x00002c25      0x2c7 C:\Users\USER\AppData\Local\arduino\cores\7bf7b0ebd1cd5824297d9ecc843c1978\core.a(adc_f1.c.o)
 .debug_loc     0x00002eec      0xb40 C:\Users\USER\AppData\Local\arduino\cores\7bf7b0ebd1cd5824297d9ecc843c1978\core.a(dma_f1.c.o)
 .debug_loc     0x00003a2c      0x5ee C:\Users\USER\AppData\Local\arduino\cores\7bf7b0ebd1cd5824297d9ecc843c1978\core.a(exti.c.o)
 .debug_loc     0x0000401a       0x42 C:\Users\USER\AppData\Local\arduino\cores\7bf7b0ebd1cd5824297d9ecc843c1978\core.a(exti_f1.c.o)
 .debug_loc     0x0000405c       0x3f C:\Users\USER\AppData\Local\arduino\cores\7bf7b0ebd1cd5824297d9ecc843c1978\core.a(flash.c.o)
 .debug_loc     0x0000409b      0x2ba C:\Users\USER\AppData\Local\arduino\cores\7bf7b0ebd1cd5824297d9ecc843c1978\core.a(gpio_f1.c.o)
 .debug_loc     0x00004355      0x1b9 C:\Users\USER\AppData\Local\arduino\cores\7bf7b0ebd1cd5824297d9ecc843c1978\core.a(i2c_f1.c.o)
 .debug_loc     0x0000450e      0x121 C:\Users\USER\AppData\Local\arduino\cores\7bf7b0ebd1cd5824297d9ecc843c1978\core.a(nvic.c.o)
 .debug_loc     0x0000462f      0x131 C:\Users\USER\AppData\Local\arduino\cores\7bf7b0ebd1cd5824297d9ecc843c1978\core.a(rcc.c.o)
 .debug_loc     0x00004760      0x352 C:\Users\USER\AppData\Local\arduino\cores\7bf7b0ebd1cd5824297d9ecc843c1978\core.a(rcc_f1.c.o)
 .debug_loc     0x00004ab2      0xb8c C:\Users\USER\AppData\Local\arduino\cores\7bf7b0ebd1cd5824297d9ecc843c1978\core.a(timer.c.o)
 .debug_loc     0x0000563e      0x3af C:\Users\USER\AppData\Local\arduino\cores\7bf7b0ebd1cd5824297d9ecc843c1978\core.a(usart.c.o)
 .debug_loc     0x000059ed      0x2d2 C:\Users\USER\AppData\Local\arduino\cores\7bf7b0ebd1cd5824297d9ecc843c1978\core.a(usart_f1.c.o)
 .debug_loc     0x00005cbf       0x3f C:\Users\USER\AppData\Local\arduino\cores\7bf7b0ebd1cd5824297d9ecc843c1978\core.a(usart_private.c.o)
 .debug_loc     0x00005cfe      0x4c8 C:\Users\USER\AppData\Local\arduino\cores\7bf7b0ebd1cd5824297d9ecc843c1978\core.a(usb.c.o)
 .debug_loc     0x000061c6      0xaab C:\Users\USER\AppData\Local\arduino\cores\7bf7b0ebd1cd5824297d9ecc843c1978\core.a(usb_cdcacm.c.o)
 .debug_loc     0x00006c71      0x119 C:\Users\USER\AppData\Local\arduino\cores\7bf7b0ebd1cd5824297d9ecc843c1978\core.a(usb_reg_map.c.o)
 .debug_loc     0x00006d8a      0x7a1 C:\Users\USER\AppData\Local\arduino\cores\7bf7b0ebd1cd5824297d9ecc843c1978\core.a(usb_core.c.o)
 .debug_loc     0x0000752b      0x260 C:\Users\USER\AppData\Local\arduino\cores\7bf7b0ebd1cd5824297d9ecc843c1978\core.a(usb_mem.c.o)
 .debug_loc     0x0000778b      0xbab C:\Users\USER\AppData\Local\arduino\cores\7bf7b0ebd1cd5824297d9ecc843c1978\core.a(usb_regs.c.o)
 .debug_loc     0x00008336      0x27f C:\Users\USER\AppData\Local\arduino\cores\7bf7b0ebd1cd5824297d9ecc843c1978\core.a(util.c.o)
 .debug_loc     0x000085b5      0x137 C:\Users\USER\AppData\Local\arduino\cores\7bf7b0ebd1cd5824297d9ecc843c1978\core.a(wirish_digital_f1.cpp.o)
 .debug_loc     0x000086ec       0x7c C:\Users\USER\AppData\Local\arduino\cores\7bf7b0ebd1cd5824297d9ecc843c1978\core.a(wirish_digital.cpp.o)
 .debug_loc     0x00008768       0x82 C:\Users\USER\AppData\Local\arduino\cores\7bf7b0ebd1cd5824297d9ecc843c1978\core.a(wirish_time.cpp.o)
 .debug_loc     0x000087ea       0x42 C:\Users\USER\AppData\Local\arduino\cores\7bf7b0ebd1cd5824297d9ecc843c1978\core.a(dma.c.o)
 .debug_loc     0x0000882c       0x2c C:\Users\USER\AppData\Local\arduino\cores\7bf7b0ebd1cd5824297d9ecc843c1978\core.a(gpio.c.o)
 .debug_loc     0x00008858      0xc98 C:\Users\USER\AppData\Local\arduino\cores\7bf7b0ebd1cd5824297d9ecc843c1978\core.a(i2c.c.o)

.debug_macinfo
 *(.debug_macinfo)

.debug_weaknames
 *(.debug_weaknames)

.debug_funcnames
 *(.debug_funcnames)

.debug_typenames
 *(.debug_typenames)

.debug_varnames
 *(.debug_varnames)

.note.gnu.arm.ident
 *(.note.gnu.arm.ident)

.ARM.attributes
                0x00000000       0x29
 *(.ARM.attributes)
 .ARM.attributes
                0x00000000       0x1d c:/users/user/appdata/local/arduino15/packages/arduino/tools/arm-none-eabi-gcc/4.8.3-2014q1/bin/../lib/gcc/arm-none-eabi/4.8.3/armv7-m/crti.o
 .ARM.attributes
                0x0000001d       0x2d c:/users/user/appdata/local/arduino15/packages/arduino/tools/arm-none-eabi-gcc/4.8.3-2014q1/bin/../lib/gcc/arm-none-eabi/4.8.3/armv7-m/crtbegin.o
 .ARM.attributes
                0x0000004a       0x1b c:/users/user/appdata/local/arduino15/packages/arduino/tools/arm-none-eabi-gcc/4.8.3-2014q1/bin/../lib/gcc/arm-none-eabi/4.8.3/../../../../arm-none-eabi/lib/armv7-m/crt0.o
 .ARM.attributes
                0x00000065       0x33 C:\Users\USER\AppData\Local\arduino\sketches\452188ACB23955C2F3838071FEF76B93\sketch\Lavadora.ino.cpp.o
 .ARM.attributes
                0x00000098       0x33 C:\Users\USER\AppData\Local\arduino\sketches\452188ACB23955C2F3838071FEF76B93\sketch\SevSeg.cpp.o
 .ARM.attributes
                0x000000cb       0x33 C:\Users\USER\AppData\Local\arduino\sketches\452188ACB23955C2F3838071FEF76B93\core\board.cpp.o
 .ARM.attributes
                0x000000fe       0x33 C:\Users\USER\AppData\Local\arduino\sketches\452188ACB23955C2F3838071FEF76B93\core\wirish\boards.cpp.o
 .ARM.attributes
                0x00000131       0x33 C:\Users\USER\AppData\Local\arduino\sketches\452188ACB23955C2F3838071FEF76B93\core\wirish\boards_setup.cpp.o
 .ARM.attributes
                0x00000164       0x1b C:\Users\USER\AppData\Local\arduino\sketches\452188ACB23955C2F3838071FEF76B93\core\wirish\start.S.o
 .ARM.attributes
                0x0000017f       0x33 C:\Users\USER\AppData\Local\arduino\sketches\452188ACB23955C2F3838071FEF76B93\core\wirish\start_c.c.o
 .ARM.attributes
                0x000001b2       0x33 C:\Users\USER\AppData\Local\arduino\sketches\452188ACB23955C2F3838071FEF76B93\core\wirish\syscalls.c.o
 .ARM.attributes
                0x000001e5       0x33 C:\Users\USER\AppData\Local\arduino\cores\7bf7b0ebd1cd5824297d9ecc843c1978\core.a(HardwareSerial.cpp.o)
 .ARM.attributes
                0x00000218       0x33 C:\Users\USER\AppData\Local\arduino\cores\7bf7b0ebd1cd5824297d9ecc843c1978\core.a(Print.cpp.o)
 .ARM.attributes
                0x0000024b       0x33 C:\Users\USER\AppData\Local\arduino\cores\7bf7b0ebd1cd5824297d9ecc843c1978\core.a(cxxabi-compat.cpp.o)
 .ARM.attributes
                0x0000027e       0x33 C:\Users\USER\AppData\Local\arduino\cores\7bf7b0ebd1cd5824297d9ecc843c1978\core.a(adc.c.o)
 .ARM.attributes
                0x000002b1       0x33 C:\Users\USER\AppData\Local\arduino\cores\7bf7b0ebd1cd5824297d9ecc843c1978\core.a(adc_f1.c.o)
 .ARM.attributes
                0x000002e4       0x33 C:\Users\USER\AppData\Local\arduino\cores\7bf7b0ebd1cd5824297d9ecc843c1978\core.a(dma_f1.c.o)
 .ARM.attributes
                0x00000317       0x1b C:\Users\USER\AppData\Local\arduino\cores\7bf7b0ebd1cd5824297d9ecc843c1978\core.a(exc.S.o)
 .ARM.attributes
                0x00000332       0x33 C:\Users\USER\AppData\Local\arduino\cores\7bf7b0ebd1cd5824297d9ecc843c1978\core.a(exti.c.o)
 .ARM.attributes
                0x00000365       0x33 C:\Users\USER\AppData\Local\arduino\cores\7bf7b0ebd1cd5824297d9ecc843c1978\core.a(exti_f1.c.o)
 .ARM.attributes
                0x00000398       0x33 C:\Users\USER\AppData\Local\arduino\cores\7bf7b0ebd1cd5824297d9ecc843c1978\core.a(flash.c.o)
 .ARM.attributes
                0x000003cb       0x33 C:\Users\USER\AppData\Local\arduino\cores\7bf7b0ebd1cd5824297d9ecc843c1978\core.a(gpio_f1.c.o)
 .ARM.attributes
                0x000003fe       0x33 C:\Users\USER\AppData\Local\arduino\cores\7bf7b0ebd1cd5824297d9ecc843c1978\core.a(i2c_f1.c.o)
 .ARM.attributes
                0x00000431       0x33 C:\Users\USER\AppData\Local\arduino\cores\7bf7b0ebd1cd5824297d9ecc843c1978\core.a(nvic.c.o)
 .ARM.attributes
                0x00000464       0x33 C:\Users\USER\AppData\Local\arduino\cores\7bf7b0ebd1cd5824297d9ecc843c1978\core.a(rcc.c.o)
 .ARM.attributes
                0x00000497       0x33 C:\Users\USER\AppData\Local\arduino\cores\7bf7b0ebd1cd5824297d9ecc843c1978\core.a(rcc_f1.c.o)
 .ARM.attributes
                0x000004ca       0x1b C:\Users\USER\AppData\Local\arduino\cores\7bf7b0ebd1cd5824297d9ecc843c1978\core.a(isrs.S.o)
 .ARM.attributes
                0x000004e5       0x1b C:\Users\USER\AppData\Local\arduino\cores\7bf7b0ebd1cd5824297d9ecc843c1978\core.a(vector_table.S.o)
 .ARM.attributes
                0x00000500       0x33 C:\Users\USER\AppData\Local\arduino\cores\7bf7b0ebd1cd5824297d9ecc843c1978\core.a(systick.c.o)
 .ARM.attributes
                0x00000533       0x33 C:\Users\USER\AppData\Local\arduino\cores\7bf7b0ebd1cd5824297d9ecc843c1978\core.a(timer.c.o)
 .ARM.attributes
                0x00000566       0x33 C:\Users\USER\AppData\Local\arduino\cores\7bf7b0ebd1cd5824297d9ecc843c1978\core.a(usart.c.o)
 .ARM.attributes
                0x00000599       0x33 C:\Users\USER\AppData\Local\arduino\cores\7bf7b0ebd1cd5824297d9ecc843c1978\core.a(usart_f1.c.o)
 .ARM.attributes
                0x000005cc       0x33 C:\Users\USER\AppData\Local\arduino\cores\7bf7b0ebd1cd5824297d9ecc843c1978\core.a(usart_private.c.o)
 .ARM.attributes
                0x000005ff       0x33 C:\Users\USER\AppData\Local\arduino\cores\7bf7b0ebd1cd5824297d9ecc843c1978\core.a(usb.c.o)
 .ARM.attributes
                0x00000632       0x33 C:\Users\USER\AppData\Local\arduino\cores\7bf7b0ebd1cd5824297d9ecc843c1978\core.a(usb_cdcacm.c.o)
 .ARM.attributes
                0x00000665       0x33 C:\Users\USER\AppData\Local\arduino\cores\7bf7b0ebd1cd5824297d9ecc843c1978\core.a(usb_reg_map.c.o)
 .ARM.attributes
                0x00000698       0x33 C:\Users\USER\AppData\Local\arduino\cores\7bf7b0ebd1cd5824297d9ecc843c1978\core.a(usb_core.c.o)
 .ARM.attributes
                0x000006cb       0x33 C:\Users\USER\AppData\Local\arduino\cores\7bf7b0ebd1cd5824297d9ecc843c1978\core.a(usb_init.c.o)
 .ARM.attributes
                0x000006fe       0x33 C:\Users\USER\AppData\Local\arduino\cores\7bf7b0ebd1cd5824297d9ecc843c1978\core.a(usb_mem.c.o)
 .ARM.attributes
                0x00000731       0x33 C:\Users\USER\AppData\Local\arduino\cores\7bf7b0ebd1cd5824297d9ecc843c1978\core.a(usb_regs.c.o)
 .ARM.attributes
                0x00000764       0x33 C:\Users\USER\AppData\Local\arduino\cores\7bf7b0ebd1cd5824297d9ecc843c1978\core.a(util.c.o)
 .ARM.attributes
                0x00000797       0x33 C:\Users\USER\AppData\Local\arduino\cores\7bf7b0ebd1cd5824297d9ecc843c1978\core.a(main.cpp.o)
 .ARM.attributes
                0x000007ca       0x33 C:\Users\USER\AppData\Local\arduino\cores\7bf7b0ebd1cd5824297d9ecc843c1978\core.a(wirish_digital_f1.cpp.o)
 .ARM.attributes
                0x000007fd       0x33 C:\Users\USER\AppData\Local\arduino\cores\7bf7b0ebd1cd5824297d9ecc843c1978\core.a(wirish_digital.cpp.o)
 .ARM.attributes
                0x00000830       0x33 C:\Users\USER\AppData\Local\arduino\cores\7bf7b0ebd1cd5824297d9ecc843c1978\core.a(wirish_time.cpp.o)
 .ARM.attributes
                0x00000863       0x33 C:\Users\USER\AppData\Local\arduino\cores\7bf7b0ebd1cd5824297d9ecc843c1978\core.a(hooks.c.o)
 .ARM.attributes
                0x00000896       0x33 C:\Users\USER\AppData\Local\arduino\cores\7bf7b0ebd1cd5824297d9ecc843c1978\core.a(dma.c.o)
 .ARM.attributes
                0x000008c9       0x33 C:\Users\USER\AppData\Local\arduino\cores\7bf7b0ebd1cd5824297d9ecc843c1978\core.a(gpio.c.o)
 .ARM.attributes
                0x000008fc       0x33 C:\Users\USER\AppData\Local\arduino\cores\7bf7b0ebd1cd5824297d9ecc843c1978\core.a(i2c.c.o)
 .ARM.attributes
                0x0000092f       0x1d c:/users/user/appdata/local/arduino15/packages/arduino/tools/arm-none-eabi-gcc/4.8.3-2014q1/bin/../lib/gcc/arm-none-eabi/4.8.3/armv7-m\libgcc.a(_arm_addsubdf3.o)
 .ARM.attributes
                0x0000094c       0x1d c:/users/user/appdata/local/arduino15/packages/arduino/tools/arm-none-eabi-gcc/4.8.3-2014q1/bin/../lib/gcc/arm-none-eabi/4.8.3/armv7-m\libgcc.a(_arm_muldivdf3.o)
 .ARM.attributes
                0x00000969       0x1d c:/users/user/appdata/local/arduino15/packages/arduino/tools/arm-none-eabi-gcc/4.8.3-2014q1/bin/../lib/gcc/arm-none-eabi/4.8.3/armv7-m\libgcc.a(_arm_cmpdf2.o)
 .ARM.attributes
                0x00000986       0x1d c:/users/user/appdata/local/arduino15/packages/arduino/tools/arm-none-eabi-gcc/4.8.3-2014q1/bin/../lib/gcc/arm-none-eabi/4.8.3/armv7-m\libgcc.a(_arm_fixdfsi.o)
 .ARM.attributes
                0x000009a3       0x1d c:/users/user/appdata/local/arduino15/packages/arduino/tools/arm-none-eabi-gcc/4.8.3-2014q1/bin/../lib/gcc/arm-none-eabi/4.8.3/armv7-m\libgcc.a(_arm_addsubsf3.o)
 .ARM.attributes
                0x000009c0       0x1d c:/users/user/appdata/local/arduino15/packages/arduino/tools/arm-none-eabi-gcc/4.8.3-2014q1/bin/../lib/gcc/arm-none-eabi/4.8.3/armv7-m\libgcc.a(_arm_muldivsf3.o)
 .ARM.attributes
                0x000009dd       0x1d c:/users/user/appdata/local/arduino15/packages/arduino/tools/arm-none-eabi-gcc/4.8.3-2014q1/bin/../lib/gcc/arm-none-eabi/4.8.3/armv7-m\libgcc.a(_arm_cmpsf2.o)
 .ARM.attributes
                0x000009fa       0x1d c:/users/user/appdata/local/arduino15/packages/arduino/tools/arm-none-eabi-gcc/4.8.3-2014q1/bin/../lib/gcc/arm-none-eabi/4.8.3/armv7-m\libgcc.a(_arm_fixsfsi.o)
 .ARM.attributes
                0x00000a17       0x1d c:/users/user/appdata/local/arduino15/packages/arduino/tools/arm-none-eabi-gcc/4.8.3-2014q1/bin/../lib/gcc/arm-none-eabi/4.8.3/armv7-m\libgcc.a(_aeabi_ldivmod.o)
 .ARM.attributes
                0x00000a34       0x1d c:/users/user/appdata/local/arduino15/packages/arduino/tools/arm-none-eabi-gcc/4.8.3-2014q1/bin/../lib/gcc/arm-none-eabi/4.8.3/armv7-m\libgcc.a(_aeabi_uldivmod.o)
 .ARM.attributes
                0x00000a51       0x2d c:/users/user/appdata/local/arduino15/packages/arduino/tools/arm-none-eabi-gcc/4.8.3-2014q1/bin/../lib/gcc/arm-none-eabi/4.8.3/armv7-m\libgcc.a(_fixdfdi.o)
 .ARM.attributes
                0x00000a7e       0x2d c:/users/user/appdata/local/arduino15/packages/arduino/tools/arm-none-eabi-gcc/4.8.3-2014q1/bin/../lib/gcc/arm-none-eabi/4.8.3/armv7-m\libgcc.a(_fixunsdfdi.o)
 .ARM.attributes
                0x00000aab       0x2d c:/users/user/appdata/local/arduino15/packages/arduino/tools/arm-none-eabi-gcc/4.8.3-2014q1/bin/../lib/gcc/arm-none-eabi/4.8.3/armv7-m\libgcc.a(bpabi.o)
 .ARM.attributes
                0x00000ad8       0x1d c:/users/user/appdata/local/arduino15/packages/arduino/tools/arm-none-eabi-gcc/4.8.3-2014q1/bin/../lib/gcc/arm-none-eabi/4.8.3/armv7-m\libgcc.a(_dvmd_tls.o)
 .ARM.attributes
                0x00000af5       0x1d c:/users/user/appdata/local/arduino15/packages/arduino/tools/arm-none-eabi-gcc/4.8.3-2014q1/bin/../lib/gcc/arm-none-eabi/4.8.3/armv7-m\libgcc.a(_arm_fixunsdfsi.o)
 .ARM.attributes
                0x00000b12       0x2d c:/users/user/appdata/local/arduino15/packages/arduino/tools/arm-none-eabi-gcc/4.8.3-2014q1/bin/../lib/gcc/arm-none-eabi/4.8.3/armv7-m\libgcc.a(_divdi3.o)
 .ARM.attributes
                0x00000b3f       0x2d c:/users/user/appdata/local/arduino15/packages/arduino/tools/arm-none-eabi-gcc/4.8.3-2014q1/bin/../lib/gcc/arm-none-eabi/4.8.3/armv7-m\libgcc.a(_udivdi3.o)
 .ARM.attributes
                0x00000b6c       0x2d c:/users/user/appdata/local/arduino15/packages/arduino/tools/arm-none-eabi-gcc/4.8.3-2014q1/bin/../lib/gcc/arm-none-eabi/4.8.3/../../../../arm-none-eabi/lib/armv7-m\libc_s.a(lib_a-errno.o)
 .ARM.attributes
                0x00000b99       0x2d c:/users/user/appdata/local/arduino15/packages/arduino/tools/arm-none-eabi-gcc/4.8.3-2014q1/bin/../lib/gcc/arm-none-eabi/4.8.3/../../../../arm-none-eabi/lib/armv7-m\libc_s.a(lib_a-exit.o)
 .ARM.attributes
                0x00000bc6       0x2d c:/users/user/appdata/local/arduino15/packages/arduino/tools/arm-none-eabi-gcc/4.8.3-2014q1/bin/../lib/gcc/arm-none-eabi/4.8.3/../../../../arm-none-eabi/lib/armv7-m\libc_s.a(lib_a-impure.o)
 .ARM.attributes
                0x00000bf3       0x2d c:/users/user/appdata/local/arduino15/packages/arduino/tools/arm-none-eabi-gcc/4.8.3-2014q1/bin/../lib/gcc/arm-none-eabi/4.8.3/../../../../arm-none-eabi/lib/armv7-m\libc_s.a(lib_a-init.o)
 .ARM.attributes
                0x00000c20       0x2d c:/users/user/appdata/local/arduino15/packages/arduino/tools/arm-none-eabi-gcc/4.8.3-2014q1/bin/../lib/gcc/arm-none-eabi/4.8.3/../../../../arm-none-eabi/lib/armv7-m\libc_s.a(lib_a-memcpy-stub.o)
 .ARM.attributes
                0x00000c4d       0x2d c:/users/user/appdata/local/arduino15/packages/arduino/tools/arm-none-eabi-gcc/4.8.3-2014q1/bin/../lib/gcc/arm-none-eabi/4.8.3/../../../../arm-none-eabi/lib/armv7-m\libc_s.a(lib_a-memset.o)
 .ARM.attributes
                0x00000c7a       0x2d c:/users/user/appdata/local/arduino15/packages/arduino/tools/arm-none-eabi-gcc/4.8.3-2014q1/bin/../lib/gcc/arm-none-eabi/4.8.3/../../../../arm-none-eabi/lib/armv7-m\libc_s.a(lib_a-strcpy.o)
 .ARM.attributes
                0x00000ca7       0x2d c:/users/user/appdata/local/arduino15/packages/arduino/tools/arm-none-eabi-gcc/4.8.3-2014q1/bin/../lib/gcc/arm-none-eabi/4.8.3/../../../../arm-none-eabi/lib/armv7-m\libc_s.a(lib_a-strlen.o)
 .ARM.attributes
                0x00000cd4       0x2d c:/users/user/appdata/local/arduino15/packages/arduino/tools/arm-none-eabi-gcc/4.8.3-2014q1/bin/../lib/gcc/arm-none-eabi/4.8.3/armv7-m/crtend.o
 .ARM.attributes
                0x00000d01       0x1d c:/users/user/appdata/local/arduino15/packages/arduino/tools/arm-none-eabi-gcc/4.8.3-2014q1/bin/../lib/gcc/arm-none-eabi/4.8.3/armv7-m/crtn.o

/DISCARD/
 *(.note.GNU-stack)
OUTPUT(C:\Users\USER\AppData\Local\arduino\sketches\452188ACB23955C2F3838071FEF76B93/Lavadora.ino.elf elf32-littlearm)

.debug_ranges   0x00000000     0x1c70
 .debug_ranges  0x00000000      0x128 C:\Users\USER\AppData\Local\arduino\sketches\452188ACB23955C2F3838071FEF76B93\sketch\Lavadora.ino.cpp.o
 .debug_ranges  0x00000128      0x210 C:\Users\USER\AppData\Local\arduino\sketches\452188ACB23955C2F3838071FEF76B93\sketch\SevSeg.cpp.o
 .debug_ranges  0x00000338       0x50 C:\Users\USER\AppData\Local\arduino\sketches\452188ACB23955C2F3838071FEF76B93\core\board.cpp.o
 .debug_ranges  0x00000388      0x148 C:\Users\USER\AppData\Local\arduino\sketches\452188ACB23955C2F3838071FEF76B93\core\wirish\boards.cpp.o
 .debug_ranges  0x000004d0       0x30 C:\Users\USER\AppData\Local\arduino\sketches\452188ACB23955C2F3838071FEF76B93\core\wirish\boards_setup.cpp.o
 .debug_ranges  0x00000500       0x10 C:\Users\USER\AppData\Local\arduino\sketches\452188ACB23955C2F3838071FEF76B93\core\wirish\start_c.c.o
 .debug_ranges  0x00000510       0x78 C:\Users\USER\AppData\Local\arduino\sketches\452188ACB23955C2F3838071FEF76B93\core\wirish\syscalls.c.o
 .debug_ranges  0x00000588       0x90 C:\Users\USER\AppData\Local\arduino\cores\7bf7b0ebd1cd5824297d9ecc843c1978\core.a(HardwareSerial.cpp.o)
 .debug_ranges  0x00000618      0x230 C:\Users\USER\AppData\Local\arduino\cores\7bf7b0ebd1cd5824297d9ecc843c1978\core.a(Print.cpp.o)
 .debug_ranges  0x00000848       0x18 C:\Users\USER\AppData\Local\arduino\cores\7bf7b0ebd1cd5824297d9ecc843c1978\core.a(cxxabi-compat.cpp.o)
 .debug_ranges  0x00000860       0x28 C:\Users\USER\AppData\Local\arduino\cores\7bf7b0ebd1cd5824297d9ecc843c1978\core.a(adc.c.o)
 .debug_ranges  0x00000888       0xb8 C:\Users\USER\AppData\Local\arduino\cores\7bf7b0ebd1cd5824297d9ecc843c1978\core.a(adc_f1.c.o)
 .debug_ranges  0x00000940      0x1d8 C:\Users\USER\AppData\Local\arduino\cores\7bf7b0ebd1cd5824297d9ecc843c1978\core.a(dma_f1.c.o)
 .debug_ranges  0x00000b18       0xb8 C:\Users\USER\AppData\Local\arduino\cores\7bf7b0ebd1cd5824297d9ecc843c1978\core.a(exti.c.o)
 .debug_ranges  0x00000bd0       0x10 C:\Users\USER\AppData\Local\arduino\cores\7bf7b0ebd1cd5824297d9ecc843c1978\core.a(exti_f1.c.o)
 .debug_ranges  0x00000be0       0x10 C:\Users\USER\AppData\Local\arduino\cores\7bf7b0ebd1cd5824297d9ecc843c1978\core.a(flash.c.o)
 .debug_ranges  0x00000bf0       0x38 C:\Users\USER\AppData\Local\arduino\cores\7bf7b0ebd1cd5824297d9ecc843c1978\core.a(gpio_f1.c.o)
 .debug_ranges  0x00000c28       0x90 C:\Users\USER\AppData\Local\arduino\cores\7bf7b0ebd1cd5824297d9ecc843c1978\core.a(i2c_f1.c.o)
 .debug_ranges  0x00000cb8       0x40 C:\Users\USER\AppData\Local\arduino\cores\7bf7b0ebd1cd5824297d9ecc843c1978\core.a(nvic.c.o)
 .debug_ranges  0x00000cf8       0x98 C:\Users\USER\AppData\Local\arduino\cores\7bf7b0ebd1cd5824297d9ecc843c1978\core.a(rcc.c.o)
 .debug_ranges  0x00000d90       0xc8 C:\Users\USER\AppData\Local\arduino\cores\7bf7b0ebd1cd5824297d9ecc843c1978\core.a(rcc_f1.c.o)
 .debug_ranges  0x00000e58       0x48 C:\Users\USER\AppData\Local\arduino\cores\7bf7b0ebd1cd5824297d9ecc843c1978\core.a(systick.c.o)
 .debug_ranges  0x00000ea0       0xe8 C:\Users\USER\AppData\Local\arduino\cores\7bf7b0ebd1cd5824297d9ecc843c1978\core.a(timer.c.o)
 .debug_ranges  0x00000f88       0xd0 C:\Users\USER\AppData\Local\arduino\cores\7bf7b0ebd1cd5824297d9ecc843c1978\core.a(usart.c.o)
 .debug_ranges  0x00001058       0x90 C:\Users\USER\AppData\Local\arduino\cores\7bf7b0ebd1cd5824297d9ecc843c1978\core.a(usart_f1.c.o)
 .debug_ranges  0x000010e8       0x10 C:\Users\USER\AppData\Local\arduino\cores\7bf7b0ebd1cd5824297d9ecc843c1978\core.a(usart_private.c.o)
 .debug_ranges  0x000010f8       0xa8 C:\Users\USER\AppData\Local\arduino\cores\7bf7b0ebd1cd5824297d9ecc843c1978\core.a(usb.c.o)
 .debug_ranges  0x000011a0      0x238 C:\Users\USER\AppData\Local\arduino\cores\7bf7b0ebd1cd5824297d9ecc843c1978\core.a(usb_cdcacm.c.o)
 .debug_ranges  0x000013d8       0x60 C:\Users\USER\AppData\Local\arduino\cores\7bf7b0ebd1cd5824297d9ecc843c1978\core.a(usb_reg_map.c.o)
 .debug_ranges  0x00001438       0xc0 C:\Users\USER\AppData\Local\arduino\cores\7bf7b0ebd1cd5824297d9ecc843c1978\core.a(usb_core.c.o)
 .debug_ranges  0x000014f8       0x10 C:\Users\USER\AppData\Local\arduino\cores\7bf7b0ebd1cd5824297d9ecc843c1978\core.a(usb_init.c.o)
 .debug_ranges  0x00001508       0x38 C:\Users\USER\AppData\Local\arduino\cores\7bf7b0ebd1cd5824297d9ecc843c1978\core.a(usb_mem.c.o)
 .debug_ranges  0x00001540      0x290 C:\Users\USER\AppData\Local\arduino\cores\7bf7b0ebd1cd5824297d9ecc843c1978\core.a(usb_regs.c.o)
 .debug_ranges  0x000017d0       0x58 C:\Users\USER\AppData\Local\arduino\cores\7bf7b0ebd1cd5824297d9ecc843c1978\core.a(util.c.o)
 .debug_ranges  0x00001828       0x18 C:\Users\USER\AppData\Local\arduino\cores\7bf7b0ebd1cd5824297d9ecc843c1978\core.a(main.cpp.o)
 .debug_ranges  0x00001840       0x30 C:\Users\USER\AppData\Local\arduino\cores\7bf7b0ebd1cd5824297d9ecc843c1978\core.a(wirish_digital_f1.cpp.o)
 .debug_ranges  0x00001870       0x50 C:\Users\USER\AppData\Local\arduino\cores\7bf7b0ebd1cd5824297d9ecc843c1978\core.a(wirish_digital.cpp.o)
 .debug_ranges  0x000018c0       0x38 C:\Users\USER\AppData\Local\arduino\cores\7bf7b0ebd1cd5824297d9ecc843c1978\core.a(wirish_time.cpp.o)
 .debug_ranges  0x000018f8       0x10 C:\Users\USER\AppData\Local\arduino\cores\7bf7b0ebd1cd5824297d9ecc843c1978\core.a(hooks.c.o)
 .debug_ranges  0x00001908       0x18 C:\Users\USER\AppData\Local\arduino\cores\7bf7b0ebd1cd5824297d9ecc843c1978\core.a(dma.c.o)
 .debug_ranges  0x00001920       0x10 C:\Users\USER\AppData\Local\arduino\cores\7bf7b0ebd1cd5824297d9ecc843c1978\core.a(gpio.c.o)
 .debug_ranges  0x00001930      0x340 C:\Users\USER\AppData\Local\arduino\cores\7bf7b0ebd1cd5824297d9ecc843c1978\core.a(i2c.c.o)

.comment        0x00000000       0x70
 .comment       0x00000000       0x70 C:\Users\USER\AppData\Local\arduino\sketches\452188ACB23955C2F3838071FEF76B93\sketch\Lavadora.ino.cpp.o
                                 0x71 (size before relaxing)
 .comment       0x00000000       0x71 C:\Users\USER\AppData\Local\arduino\sketches\452188ACB23955C2F3838071FEF76B93\sketch\SevSeg.cpp.o
 .comment       0x00000000       0x71 C:\Users\USER\AppData\Local\arduino\sketches\452188ACB23955C2F3838071FEF76B93\core\board.cpp.o
 .comment       0x00000000       0x71 C:\Users\USER\AppData\Local\arduino\sketches\452188ACB23955C2F3838071FEF76B93\core\wirish\boards.cpp.o
 .comment       0x00000000       0x71 C:\Users\USER\AppData\Local\arduino\sketches\452188ACB23955C2F3838071FEF76B93\core\wirish\boards_setup.cpp.o
 .comment       0x00000000       0x71 C:\Users\USER\AppData\Local\arduino\sketches\452188ACB23955C2F3838071FEF76B93\core\wirish\start_c.c.o
 .comment       0x00000000       0x71 C:\Users\USER\AppData\Local\arduino\sketches\452188ACB23955C2F3838071FEF76B93\core\wirish\syscalls.c.o
 .comment       0x00000000       0x71 C:\Users\USER\AppData\Local\arduino\cores\7bf7b0ebd1cd5824297d9ecc843c1978\core.a(HardwareSerial.cpp.o)
 .comment       0x00000000       0x71 C:\Users\USER\AppData\Local\arduino\cores\7bf7b0ebd1cd5824297d9ecc843c1978\core.a(Print.cpp.o)
 .comment       0x00000000       0x71 C:\Users\USER\AppData\Local\arduino\cores\7bf7b0ebd1cd5824297d9ecc843c1978\core.a(cxxabi-compat.cpp.o)
 .comment       0x00000000       0x71 C:\Users\USER\AppData\Local\arduino\cores\7bf7b0ebd1cd5824297d9ecc843c1978\core.a(adc.c.o)
 .comment       0x00000000       0x71 C:\Users\USER\AppData\Local\arduino\cores\7bf7b0ebd1cd5824297d9ecc843c1978\core.a(adc_f1.c.o)
 .comment       0x00000000       0x71 C:\Users\USER\AppData\Local\arduino\cores\7bf7b0ebd1cd5824297d9ecc843c1978\core.a(dma_f1.c.o)
 .comment       0x00000000       0x71 C:\Users\USER\AppData\Local\arduino\cores\7bf7b0ebd1cd5824297d9ecc843c1978\core.a(exti.c.o)
 .comment       0x00000000       0x71 C:\Users\USER\AppData\Local\arduino\cores\7bf7b0ebd1cd5824297d9ecc843c1978\core.a(exti_f1.c.o)
 .comment       0x00000000       0x71 C:\Users\USER\AppData\Local\arduino\cores\7bf7b0ebd1cd5824297d9ecc843c1978\core.a(flash.c.o)
 .comment       0x00000000       0x71 C:\Users\USER\AppData\Local\arduino\cores\7bf7b0ebd1cd5824297d9ecc843c1978\core.a(gpio_f1.c.o)
 .comment       0x00000000       0x71 C:\Users\USER\AppData\Local\arduino\cores\7bf7b0ebd1cd5824297d9ecc843c1978\core.a(i2c_f1.c.o)
 .comment       0x00000000       0x71 C:\Users\USER\AppData\Local\arduino\cores\7bf7b0ebd1cd5824297d9ecc843c1978\core.a(nvic.c.o)
 .comment       0x00000000       0x71 C:\Users\USER\AppData\Local\arduino\cores\7bf7b0ebd1cd5824297d9ecc843c1978\core.a(rcc.c.o)
 .comment       0x00000000       0x71 C:\Users\USER\AppData\Local\arduino\cores\7bf7b0ebd1cd5824297d9ecc843c1978\core.a(rcc_f1.c.o)
 .comment       0x00000000       0x71 C:\Users\USER\AppData\Local\arduino\cores\7bf7b0ebd1cd5824297d9ecc843c1978\core.a(systick.c.o)
 .comment       0x00000000       0x71 C:\Users\USER\AppData\Local\arduino\cores\7bf7b0ebd1cd5824297d9ecc843c1978\core.a(timer.c.o)
 .comment       0x00000000       0x71 C:\Users\USER\AppData\Local\arduino\cores\7bf7b0ebd1cd5824297d9ecc843c1978\core.a(usart.c.o)
 .comment       0x00000000       0x71 C:\Users\USER\AppData\Local\arduino\cores\7bf7b0ebd1cd5824297d9ecc843c1978\core.a(usart_f1.c.o)
 .comment       0x00000000       0x71 C:\Users\USER\AppData\Local\arduino\cores\7bf7b0ebd1cd5824297d9ecc843c1978\core.a(usart_private.c.o)
 .comment       0x00000000       0x71 C:\Users\USER\AppData\Local\arduino\cores\7bf7b0ebd1cd5824297d9ecc843c1978\core.a(usb.c.o)
 .comment       0x00000000       0x71 C:\Users\USER\AppData\Local\arduino\cores\7bf7b0ebd1cd5824297d9ecc843c1978\core.a(usb_cdcacm.c.o)
 .comment       0x00000000       0x71 C:\Users\USER\AppData\Local\arduino\cores\7bf7b0ebd1cd5824297d9ecc843c1978\core.a(usb_reg_map.c.o)
 .comment       0x00000000       0x71 C:\Users\USER\AppData\Local\arduino\cores\7bf7b0ebd1cd5824297d9ecc843c1978\core.a(usb_core.c.o)
 .comment       0x00000000       0x71 C:\Users\USER\AppData\Local\arduino\cores\7bf7b0ebd1cd5824297d9ecc843c1978\core.a(usb_init.c.o)
 .comment       0x00000000       0x71 C:\Users\USER\AppData\Local\arduino\cores\7bf7b0ebd1cd5824297d9ecc843c1978\core.a(usb_mem.c.o)
 .comment       0x00000000       0x71 C:\Users\USER\AppData\Local\arduino\cores\7bf7b0ebd1cd5824297d9ecc843c1978\core.a(usb_regs.c.o)
 .comment       0x00000000       0x71 C:\Users\USER\AppData\Local\arduino\cores\7bf7b0ebd1cd5824297d9ecc843c1978\core.a(util.c.o)
 .comment       0x00000000       0x71 C:\Users\USER\AppData\Local\arduino\cores\7bf7b0ebd1cd5824297d9ecc843c1978\core.a(main.cpp.o)
 .comment       0x00000000       0x71 C:\Users\USER\AppData\Local\arduino\cores\7bf7b0ebd1cd5824297d9ecc843c1978\core.a(wirish_digital_f1.cpp.o)
 .comment       0x00000000       0x71 C:\Users\USER\AppData\Local\arduino\cores\7bf7b0ebd1cd5824297d9ecc843c1978\core.a(wirish_digital.cpp.o)
 .comment       0x00000000       0x71 C:\Users\USER\AppData\Local\arduino\cores\7bf7b0ebd1cd5824297d9ecc843c1978\core.a(wirish_time.cpp.o)
 .comment       0x00000000       0x71 C:\Users\USER\AppData\Local\arduino\cores\7bf7b0ebd1cd5824297d9ecc843c1978\core.a(hooks.c.o)
 .comment       0x00000000       0x71 C:\Users\USER\AppData\Local\arduino\cores\7bf7b0ebd1cd5824297d9ecc843c1978\core.a(dma.c.o)
 .comment       0x00000000       0x71 C:\Users\USER\AppData\Local\arduino\cores\7bf7b0ebd1cd5824297d9ecc843c1978\core.a(gpio.c.o)
 .comment       0x00000000       0x71 C:\Users\USER\AppData\Local\arduino\cores\7bf7b0ebd1cd5824297d9ecc843c1978\core.a(i2c.c.o)

Cross Reference Table

Symbol                                            File
ADC1                                              C:\Users\USER\AppData\Local\arduino\cores\7bf7b0ebd1cd5824297d9ecc843c1978\core.a(adc_f1.c.o)
ADC2                                              C:\Users\USER\AppData\Local\arduino\cores\7bf7b0ebd1cd5824297d9ecc843c1978\core.a(adc_f1.c.o)
ByteSwap                                          C:\Users\USER\AppData\Local\arduino\cores\7bf7b0ebd1cd5824297d9ecc843c1978\core.a(usb_regs.c.o)
ClearDTOG_RX                                      C:\Users\USER\AppData\Local\arduino\cores\7bf7b0ebd1cd5824297d9ecc843c1978\core.a(usb_regs.c.o)
                                                  C:\Users\USER\AppData\Local\arduino\cores\7bf7b0ebd1cd5824297d9ecc843c1978\core.a(usb_core.c.o)
ClearDTOG_TX                                      C:\Users\USER\AppData\Local\arduino\cores\7bf7b0ebd1cd5824297d9ecc843c1978\core.a(usb_regs.c.o)
                                                  C:\Users\USER\AppData\Local\arduino\cores\7bf7b0ebd1cd5824297d9ecc843c1978\core.a(usb_core.c.o)
ClearEPDoubleBuff                                 C:\Users\USER\AppData\Local\arduino\cores\7bf7b0ebd1cd5824297d9ecc843c1978\core.a(usb_regs.c.o)
ClearEP_CTR_RX                                    C:\Users\USER\AppData\Local\arduino\cores\7bf7b0ebd1cd5824297d9ecc843c1978\core.a(usb_regs.c.o)
ClearEP_CTR_TX                                    C:\Users\USER\AppData\Local\arduino\cores\7bf7b0ebd1cd5824297d9ecc843c1978\core.a(usb_regs.c.o)
ClearEP_KIND                                      C:\Users\USER\AppData\Local\arduino\cores\7bf7b0ebd1cd5824297d9ecc843c1978\core.a(usb_regs.c.o)
Clear_Status_Out                                  C:\Users\USER\AppData\Local\arduino\cores\7bf7b0ebd1cd5824297d9ecc843c1978\core.a(usb_regs.c.o)
DMA1                                              C:\Users\USER\AppData\Local\arduino\cores\7bf7b0ebd1cd5824297d9ecc843c1978\core.a(dma_f1.c.o)
Data_Mul_MaxPacketSize                            C:\Users\USER\AppData\Local\arduino\cores\7bf7b0ebd1cd5824297d9ecc843c1978\core.a(usb_core.c.o)
Device_Info                                       C:\Users\USER\AppData\Local\arduino\cores\7bf7b0ebd1cd5824297d9ecc843c1978\core.a(usb_init.c.o)
                                                  C:\Users\USER\AppData\Local\arduino\cores\7bf7b0ebd1cd5824297d9ecc843c1978\core.a(usb.c.o)
Device_Property                                   C:\Users\USER\AppData\Local\arduino\cores\7bf7b0ebd1cd5824297d9ecc843c1978\core.a(usb_cdcacm.c.o)
                                                  C:\Users\USER\AppData\Local\arduino\cores\7bf7b0ebd1cd5824297d9ecc843c1978\core.a(usb_init.c.o)
                                                  C:\Users\USER\AppData\Local\arduino\cores\7bf7b0ebd1cd5824297d9ecc843c1978\core.a(usb_core.c.o)
                                                  C:\Users\USER\AppData\Local\arduino\cores\7bf7b0ebd1cd5824297d9ecc843c1978\core.a(usb.c.o)
Device_Table                                      C:\Users\USER\AppData\Local\arduino\cores\7bf7b0ebd1cd5824297d9ecc843c1978\core.a(usb_cdcacm.c.o)
                                                  C:\Users\USER\AppData\Local\arduino\cores\7bf7b0ebd1cd5824297d9ecc843c1978\core.a(usb_core.c.o)
EPindex                                           C:\Users\USER\AppData\Local\arduino\cores\7bf7b0ebd1cd5824297d9ecc843c1978\core.a(usb_init.c.o)
FreeUserBuffer                                    C:\Users\USER\AppData\Local\arduino\cores\7bf7b0ebd1cd5824297d9ecc843c1978\core.a(usb_regs.c.o)
GPIOA                                             C:\Users\USER\AppData\Local\arduino\cores\7bf7b0ebd1cd5824297d9ecc843c1978\core.a(gpio_f1.c.o)
GPIOB                                             C:\Users\USER\AppData\Local\arduino\cores\7bf7b0ebd1cd5824297d9ecc843c1978\core.a(gpio_f1.c.o)
                                                  C:\Users\USER\AppData\Local\arduino\cores\7bf7b0ebd1cd5824297d9ecc843c1978\core.a(util.c.o)
GPIOC                                             C:\Users\USER\AppData\Local\arduino\cores\7bf7b0ebd1cd5824297d9ecc843c1978\core.a(gpio_f1.c.o)
GPIOD                                             C:\Users\USER\AppData\Local\arduino\cores\7bf7b0ebd1cd5824297d9ecc843c1978\core.a(gpio_f1.c.o)
GetBTABLE                                         C:\Users\USER\AppData\Local\arduino\cores\7bf7b0ebd1cd5824297d9ecc843c1978\core.a(usb_regs.c.o)
GetCNTR                                           C:\Users\USER\AppData\Local\arduino\cores\7bf7b0ebd1cd5824297d9ecc843c1978\core.a(usb_regs.c.o)
GetDADDR                                          C:\Users\USER\AppData\Local\arduino\cores\7bf7b0ebd1cd5824297d9ecc843c1978\core.a(usb_regs.c.o)
GetENDPOINT                                       C:\Users\USER\AppData\Local\arduino\cores\7bf7b0ebd1cd5824297d9ecc843c1978\core.a(usb_regs.c.o)
GetEPAddress                                      C:\Users\USER\AppData\Local\arduino\cores\7bf7b0ebd1cd5824297d9ecc843c1978\core.a(usb_regs.c.o)
GetEPDblBuf0Addr                                  C:\Users\USER\AppData\Local\arduino\cores\7bf7b0ebd1cd5824297d9ecc843c1978\core.a(usb_regs.c.o)
GetEPDblBuf0Count                                 C:\Users\USER\AppData\Local\arduino\cores\7bf7b0ebd1cd5824297d9ecc843c1978\core.a(usb_regs.c.o)
GetEPDblBuf1Addr                                  C:\Users\USER\AppData\Local\arduino\cores\7bf7b0ebd1cd5824297d9ecc843c1978\core.a(usb_regs.c.o)
GetEPDblBuf1Count                                 C:\Users\USER\AppData\Local\arduino\cores\7bf7b0ebd1cd5824297d9ecc843c1978\core.a(usb_regs.c.o)
GetEPDblBufDir                                    C:\Users\USER\AppData\Local\arduino\cores\7bf7b0ebd1cd5824297d9ecc843c1978\core.a(usb_regs.c.o)
GetEPRxAddr                                       C:\Users\USER\AppData\Local\arduino\cores\7bf7b0ebd1cd5824297d9ecc843c1978\core.a(usb_regs.c.o)
                                                  C:\Users\USER\AppData\Local\arduino\cores\7bf7b0ebd1cd5824297d9ecc843c1978\core.a(usb_core.c.o)
GetEPRxCount                                      C:\Users\USER\AppData\Local\arduino\cores\7bf7b0ebd1cd5824297d9ecc843c1978\core.a(usb_regs.c.o)
GetEPRxStatus                                     C:\Users\USER\AppData\Local\arduino\cores\7bf7b0ebd1cd5824297d9ecc843c1978\core.a(usb_regs.c.o)
GetEPTxAddr                                       C:\Users\USER\AppData\Local\arduino\cores\7bf7b0ebd1cd5824297d9ecc843c1978\core.a(usb_regs.c.o)
                                                  C:\Users\USER\AppData\Local\arduino\cores\7bf7b0ebd1cd5824297d9ecc843c1978\core.a(usb_core.c.o)
GetEPTxCount                                      C:\Users\USER\AppData\Local\arduino\cores\7bf7b0ebd1cd5824297d9ecc843c1978\core.a(usb_regs.c.o)
GetEPTxStatus                                     C:\Users\USER\AppData\Local\arduino\cores\7bf7b0ebd1cd5824297d9ecc843c1978\core.a(usb_regs.c.o)
GetEPType                                         C:\Users\USER\AppData\Local\arduino\cores\7bf7b0ebd1cd5824297d9ecc843c1978\core.a(usb_regs.c.o)
GetFNR                                            C:\Users\USER\AppData\Local\arduino\cores\7bf7b0ebd1cd5824297d9ecc843c1978\core.a(usb_regs.c.o)
GetISTR                                           C:\Users\USER\AppData\Local\arduino\cores\7bf7b0ebd1cd5824297d9ecc843c1978\core.a(usb_regs.c.o)
GetRxStallStatus                                  C:\Users\USER\AppData\Local\arduino\cores\7bf7b0ebd1cd5824297d9ecc843c1978\core.a(usb_regs.c.o)
GetTxStallStatus                                  C:\Users\USER\AppData\Local\arduino\cores\7bf7b0ebd1cd5824297d9ecc843c1978\core.a(usb_regs.c.o)
HardwareSerial::HardwareSerial(usart_dev*, unsigned char, unsigned char) C:\Users\USER\AppData\Local\arduino\cores\7bf7b0ebd1cd5824297d9ecc843c1978\core.a(HardwareSerial.cpp.o)
HardwareSerial::HardwareSerial(usart_dev*, unsigned char, unsigned char) C:\Users\USER\AppData\Local\arduino\cores\7bf7b0ebd1cd5824297d9ecc843c1978\core.a(HardwareSerial.cpp.o)
                                                  C:\Users\USER\AppData\Local\arduino\sketches\452188ACB23955C2F3838071FEF76B93\core\board.cpp.o
HardwareSerial::available()                       C:\Users\USER\AppData\Local\arduino\cores\7bf7b0ebd1cd5824297d9ecc843c1978\core.a(HardwareSerial.cpp.o)
HardwareSerial::availableForWrite()               C:\Users\USER\AppData\Local\arduino\cores\7bf7b0ebd1cd5824297d9ecc843c1978\core.a(HardwareSerial.cpp.o)
HardwareSerial::begin(unsigned long)              C:\Users\USER\AppData\Local\arduino\cores\7bf7b0ebd1cd5824297d9ecc843c1978\core.a(HardwareSerial.cpp.o)
HardwareSerial::begin(unsigned long, unsigned char) C:\Users\USER\AppData\Local\arduino\cores\7bf7b0ebd1cd5824297d9ecc843c1978\core.a(HardwareSerial.cpp.o)
HardwareSerial::end()                             C:\Users\USER\AppData\Local\arduino\cores\7bf7b0ebd1cd5824297d9ecc843c1978\core.a(HardwareSerial.cpp.o)
HardwareSerial::flush()                           C:\Users\USER\AppData\Local\arduino\cores\7bf7b0ebd1cd5824297d9ecc843c1978\core.a(HardwareSerial.cpp.o)
HardwareSerial::peek()                            C:\Users\USER\AppData\Local\arduino\cores\7bf7b0ebd1cd5824297d9ecc843c1978\core.a(HardwareSerial.cpp.o)
HardwareSerial::read()                            C:\Users\USER\AppData\Local\arduino\cores\7bf7b0ebd1cd5824297d9ecc843c1978\core.a(HardwareSerial.cpp.o)
HardwareSerial::write(unsigned char)              C:\Users\USER\AppData\Local\arduino\cores\7bf7b0ebd1cd5824297d9ecc843c1978\core.a(HardwareSerial.cpp.o)
I2C1                                              C:\Users\USER\AppData\Local\arduino\cores\7bf7b0ebd1cd5824297d9ecc843c1978\core.a(i2c_f1.c.o)
                                                  C:\Users\USER\AppData\Local\arduino\cores\7bf7b0ebd1cd5824297d9ecc843c1978\core.a(i2c.c.o)
I2C2                                              C:\Users\USER\AppData\Local\arduino\cores\7bf7b0ebd1cd5824297d9ecc843c1978\core.a(i2c_f1.c.o)
In0_Process                                       C:\Users\USER\AppData\Local\arduino\cores\7bf7b0ebd1cd5824297d9ecc843c1978\core.a(usb_core.c.o)
                                                  C:\Users\USER\AppData\Local\arduino\cores\7bf7b0ebd1cd5824297d9ecc843c1978\core.a(usb.c.o)
NOP_Process                                       C:\Users\USER\AppData\Local\arduino\cores\7bf7b0ebd1cd5824297d9ecc843c1978\core.a(usb_core.c.o)
                                                  C:\Users\USER\AppData\Local\arduino\cores\7bf7b0ebd1cd5824297d9ecc843c1978\core.a(usb_cdcacm.c.o)
Out0_Process                                      C:\Users\USER\AppData\Local\arduino\cores\7bf7b0ebd1cd5824297d9ecc843c1978\core.a(usb_core.c.o)
                                                  C:\Users\USER\AppData\Local\arduino\cores\7bf7b0ebd1cd5824297d9ecc843c1978\core.a(usb.c.o)
PIN_MAP                                           C:\Users\USER\AppData\Local\arduino\sketches\452188ACB23955C2F3838071FEF76B93\core\board.cpp.o
                                                  C:\Users\USER\AppData\Local\arduino\cores\7bf7b0ebd1cd5824297d9ecc843c1978\core.a(wirish_digital.cpp.o)
                                                  C:\Users\USER\AppData\Local\arduino\cores\7bf7b0ebd1cd5824297d9ecc843c1978\core.a(wirish_digital_f1.cpp.o)
                                                  C:\Users\USER\AppData\Local\arduino\cores\7bf7b0ebd1cd5824297d9ecc843c1978\core.a(HardwareSerial.cpp.o)
PMAToUserBufferCopy                               C:\Users\USER\AppData\Local\arduino\cores\7bf7b0ebd1cd5824297d9ecc843c1978\core.a(usb_mem.c.o)
                                                  C:\Users\USER\AppData\Local\arduino\cores\7bf7b0ebd1cd5824297d9ecc843c1978\core.a(usb_core.c.o)
Post0_Process                                     C:\Users\USER\AppData\Local\arduino\cores\7bf7b0ebd1cd5824297d9ecc843c1978\core.a(usb_core.c.o)
Print::print(Printable const&)                    C:\Users\USER\AppData\Local\arduino\cores\7bf7b0ebd1cd5824297d9ecc843c1978\core.a(Print.cpp.o)
Print::print(String const&)                       C:\Users\USER\AppData\Local\arduino\cores\7bf7b0ebd1cd5824297d9ecc843c1978\core.a(Print.cpp.o)
Print::print(__FlashStringHelper const*)          C:\Users\USER\AppData\Local\arduino\cores\7bf7b0ebd1cd5824297d9ecc843c1978\core.a(Print.cpp.o)
Print::print(char const*)                         C:\Users\USER\AppData\Local\arduino\cores\7bf7b0ebd1cd5824297d9ecc843c1978\core.a(Print.cpp.o)
Print::print(char)                                C:\Users\USER\AppData\Local\arduino\cores\7bf7b0ebd1cd5824297d9ecc843c1978\core.a(Print.cpp.o)
Print::print(double, int)                         C:\Users\USER\AppData\Local\arduino\cores\7bf7b0ebd1cd5824297d9ecc843c1978\core.a(Print.cpp.o)
Print::print(int, int)                            C:\Users\USER\AppData\Local\arduino\cores\7bf7b0ebd1cd5824297d9ecc843c1978\core.a(Print.cpp.o)
Print::print(long long, int)                      C:\Users\USER\AppData\Local\arduino\cores\7bf7b0ebd1cd5824297d9ecc843c1978\core.a(Print.cpp.o)
Print::print(long, int)                           C:\Users\USER\AppData\Local\arduino\cores\7bf7b0ebd1cd5824297d9ecc843c1978\core.a(Print.cpp.o)
Print::print(unsigned char, int)                  C:\Users\USER\AppData\Local\arduino\cores\7bf7b0ebd1cd5824297d9ecc843c1978\core.a(Print.cpp.o)
Print::print(unsigned int, int)                   C:\Users\USER\AppData\Local\arduino\cores\7bf7b0ebd1cd5824297d9ecc843c1978\core.a(Print.cpp.o)
Print::print(unsigned long long, int)             C:\Users\USER\AppData\Local\arduino\cores\7bf7b0ebd1cd5824297d9ecc843c1978\core.a(Print.cpp.o)
Print::print(unsigned long, int)                  C:\Users\USER\AppData\Local\arduino\cores\7bf7b0ebd1cd5824297d9ecc843c1978\core.a(Print.cpp.o)
Print::printFloat(double, unsigned char)          C:\Users\USER\AppData\Local\arduino\cores\7bf7b0ebd1cd5824297d9ecc843c1978\core.a(Print.cpp.o)
Print::printNumber(unsigned long long, unsigned char) C:\Users\USER\AppData\Local\arduino\cores\7bf7b0ebd1cd5824297d9ecc843c1978\core.a(Print.cpp.o)
Print::println()                                  C:\Users\USER\AppData\Local\arduino\cores\7bf7b0ebd1cd5824297d9ecc843c1978\core.a(Print.cpp.o)
Print::println(Printable const&)                  C:\Users\USER\AppData\Local\arduino\cores\7bf7b0ebd1cd5824297d9ecc843c1978\core.a(Print.cpp.o)
Print::println(String const&)                     C:\Users\USER\AppData\Local\arduino\cores\7bf7b0ebd1cd5824297d9ecc843c1978\core.a(Print.cpp.o)
Print::println(__FlashStringHelper const*)        C:\Users\USER\AppData\Local\arduino\cores\7bf7b0ebd1cd5824297d9ecc843c1978\core.a(Print.cpp.o)
Print::println(char const*)                       C:\Users\USER\AppData\Local\arduino\cores\7bf7b0ebd1cd5824297d9ecc843c1978\core.a(Print.cpp.o)
Print::println(char)                              C:\Users\USER\AppData\Local\arduino\cores\7bf7b0ebd1cd5824297d9ecc843c1978\core.a(Print.cpp.o)
Print::println(double, int)                       C:\Users\USER\AppData\Local\arduino\cores\7bf7b0ebd1cd5824297d9ecc843c1978\core.a(Print.cpp.o)
Print::println(int, int)                          C:\Users\USER\AppData\Local\arduino\cores\7bf7b0ebd1cd5824297d9ecc843c1978\core.a(Print.cpp.o)
Print::println(long long, int)                    C:\Users\USER\AppData\Local\arduino\cores\7bf7b0ebd1cd5824297d9ecc843c1978\core.a(Print.cpp.o)
Print::println(long, int)                         C:\Users\USER\AppData\Local\arduino\cores\7bf7b0ebd1cd5824297d9ecc843c1978\core.a(Print.cpp.o)
Print::println(unsigned char, int)                C:\Users\USER\AppData\Local\arduino\cores\7bf7b0ebd1cd5824297d9ecc843c1978\core.a(Print.cpp.o)
Print::println(unsigned int, int)                 C:\Users\USER\AppData\Local\arduino\cores\7bf7b0ebd1cd5824297d9ecc843c1978\core.a(Print.cpp.o)
Print::println(unsigned long long, int)           C:\Users\USER\AppData\Local\arduino\cores\7bf7b0ebd1cd5824297d9ecc843c1978\core.a(Print.cpp.o)
Print::println(unsigned long, int)                C:\Users\USER\AppData\Local\arduino\cores\7bf7b0ebd1cd5824297d9ecc843c1978\core.a(Print.cpp.o)
Print::write(char const*)                         C:\Users\USER\AppData\Local\arduino\cores\7bf7b0ebd1cd5824297d9ecc843c1978\core.a(Print.cpp.o)
                                                  C:\Users\USER\AppData\Local\arduino\cores\7bf7b0ebd1cd5824297d9ecc843c1978\core.a(HardwareSerial.cpp.o)
Print::write(void const*, unsigned long)          C:\Users\USER\AppData\Local\arduino\cores\7bf7b0ebd1cd5824297d9ecc843c1978\core.a(Print.cpp.o)
                                                  C:\Users\USER\AppData\Local\arduino\cores\7bf7b0ebd1cd5824297d9ecc843c1978\core.a(HardwareSerial.cpp.o)
ResumeS                                           C:\Users\USER\AppData\Local\arduino\cores\7bf7b0ebd1cd5824297d9ecc843c1978\core.a(usb.c.o)
SaveRState                                        C:\Users\USER\AppData\Local\arduino\cores\7bf7b0ebd1cd5824297d9ecc843c1978\core.a(usb_core.c.o)
                                                  C:\Users\USER\AppData\Local\arduino\cores\7bf7b0ebd1cd5824297d9ecc843c1978\core.a(usb.c.o)
SaveState                                         C:\Users\USER\AppData\Local\arduino\cores\7bf7b0ebd1cd5824297d9ecc843c1978\core.a(usb_init.c.o)
SaveTState                                        C:\Users\USER\AppData\Local\arduino\cores\7bf7b0ebd1cd5824297d9ecc843c1978\core.a(usb_core.c.o)
                                                  C:\Users\USER\AppData\Local\arduino\cores\7bf7b0ebd1cd5824297d9ecc843c1978\core.a(usb.c.o)
Serial1                                           C:\Users\USER\AppData\Local\arduino\sketches\452188ACB23955C2F3838071FEF76B93\core\board.cpp.o
Serial2                                           C:\Users\USER\AppData\Local\arduino\sketches\452188ACB23955C2F3838071FEF76B93\core\board.cpp.o
Serial3                                           C:\Users\USER\AppData\Local\arduino\sketches\452188ACB23955C2F3838071FEF76B93\core\board.cpp.o
SetBTABLE                                         C:\Users\USER\AppData\Local\arduino\cores\7bf7b0ebd1cd5824297d9ecc843c1978\core.a(usb_regs.c.o)
SetCNTR                                           C:\Users\USER\AppData\Local\arduino\cores\7bf7b0ebd1cd5824297d9ecc843c1978\core.a(usb_regs.c.o)
SetDADDR                                          C:\Users\USER\AppData\Local\arduino\cores\7bf7b0ebd1cd5824297d9ecc843c1978\core.a(usb_regs.c.o)
SetDeviceAddress                                  C:\Users\USER\AppData\Local\arduino\cores\7bf7b0ebd1cd5824297d9ecc843c1978\core.a(usb_core.c.o)
                                                  C:\Users\USER\AppData\Local\arduino\cores\7bf7b0ebd1cd5824297d9ecc843c1978\core.a(usb_cdcacm.c.o)
SetDouBleBuffEPStall                              C:\Users\USER\AppData\Local\arduino\cores\7bf7b0ebd1cd5824297d9ecc843c1978\core.a(usb_regs.c.o)
SetENDPOINT                                       C:\Users\USER\AppData\Local\arduino\cores\7bf7b0ebd1cd5824297d9ecc843c1978\core.a(usb_regs.c.o)
SetEPAddress                                      C:\Users\USER\AppData\Local\arduino\cores\7bf7b0ebd1cd5824297d9ecc843c1978\core.a(usb_regs.c.o)
SetEPCountRxReg                                   C:\Users\USER\AppData\Local\arduino\cores\7bf7b0ebd1cd5824297d9ecc843c1978\core.a(usb_regs.c.o)
SetEPDblBuf0Addr                                  C:\Users\USER\AppData\Local\arduino\cores\7bf7b0ebd1cd5824297d9ecc843c1978\core.a(usb_regs.c.o)
SetEPDblBuf0Count                                 C:\Users\USER\AppData\Local\arduino\cores\7bf7b0ebd1cd5824297d9ecc843c1978\core.a(usb_regs.c.o)
SetEPDblBuf1Addr                                  C:\Users\USER\AppData\Local\arduino\cores\7bf7b0ebd1cd5824297d9ecc843c1978\core.a(usb_regs.c.o)
SetEPDblBuf1Count                                 C:\Users\USER\AppData\Local\arduino\cores\7bf7b0ebd1cd5824297d9ecc843c1978\core.a(usb_regs.c.o)
SetEPDblBuffAddr                                  C:\Users\USER\AppData\Local\arduino\cores\7bf7b0ebd1cd5824297d9ecc843c1978\core.a(usb_regs.c.o)
SetEPDblBuffCount                                 C:\Users\USER\AppData\Local\arduino\cores\7bf7b0ebd1cd5824297d9ecc843c1978\core.a(usb_regs.c.o)
SetEPDoubleBuff                                   C:\Users\USER\AppData\Local\arduino\cores\7bf7b0ebd1cd5824297d9ecc843c1978\core.a(usb_regs.c.o)
SetEPRxAddr                                       C:\Users\USER\AppData\Local\arduino\cores\7bf7b0ebd1cd5824297d9ecc843c1978\core.a(usb_regs.c.o)
SetEPRxCount                                      C:\Users\USER\AppData\Local\arduino\cores\7bf7b0ebd1cd5824297d9ecc843c1978\core.a(usb_regs.c.o)
                                                  C:\Users\USER\AppData\Local\arduino\cores\7bf7b0ebd1cd5824297d9ecc843c1978\core.a(usb_core.c.o)
SetEPRxStatus                                     C:\Users\USER\AppData\Local\arduino\cores\7bf7b0ebd1cd5824297d9ecc843c1978\core.a(usb_regs.c.o)
SetEPRxValid                                      C:\Users\USER\AppData\Local\arduino\cores\7bf7b0ebd1cd5824297d9ecc843c1978\core.a(usb_regs.c.o)
SetEPTxAddr                                       C:\Users\USER\AppData\Local\arduino\cores\7bf7b0ebd1cd5824297d9ecc843c1978\core.a(usb_regs.c.o)
SetEPTxCount                                      C:\Users\USER\AppData\Local\arduino\cores\7bf7b0ebd1cd5824297d9ecc843c1978\core.a(usb_regs.c.o)
                                                  C:\Users\USER\AppData\Local\arduino\cores\7bf7b0ebd1cd5824297d9ecc843c1978\core.a(usb_core.c.o)
SetEPTxStatus                                     C:\Users\USER\AppData\Local\arduino\cores\7bf7b0ebd1cd5824297d9ecc843c1978\core.a(usb_regs.c.o)
                                                  C:\Users\USER\AppData\Local\arduino\cores\7bf7b0ebd1cd5824297d9ecc843c1978\core.a(usb_core.c.o)
SetEPTxValid                                      C:\Users\USER\AppData\Local\arduino\cores\7bf7b0ebd1cd5824297d9ecc843c1978\core.a(usb_regs.c.o)
SetEPType                                         C:\Users\USER\AppData\Local\arduino\cores\7bf7b0ebd1cd5824297d9ecc843c1978\core.a(usb_regs.c.o)
SetEP_KIND                                        C:\Users\USER\AppData\Local\arduino\cores\7bf7b0ebd1cd5824297d9ecc843c1978\core.a(usb_regs.c.o)
SetISTR                                           C:\Users\USER\AppData\Local\arduino\cores\7bf7b0ebd1cd5824297d9ecc843c1978\core.a(usb_regs.c.o)
Set_Status_Out                                    C:\Users\USER\AppData\Local\arduino\cores\7bf7b0ebd1cd5824297d9ecc843c1978\core.a(usb_regs.c.o)
Setup0_Process                                    C:\Users\USER\AppData\Local\arduino\cores\7bf7b0ebd1cd5824297d9ecc843c1978\core.a(usb_core.c.o)
                                                  C:\Users\USER\AppData\Local\arduino\cores\7bf7b0ebd1cd5824297d9ecc843c1978\core.a(usb.c.o)
SevSeg::SevSeg()                                  C:\Users\USER\AppData\Local\arduino\sketches\452188ACB23955C2F3838071FEF76B93\sketch\SevSeg.cpp.o
                                                  C:\Users\USER\AppData\Local\arduino\sketches\452188ACB23955C2F3838071FEF76B93\sketch\Lavadora.ino.cpp.o
SevSeg::SevSeg()                                  C:\Users\USER\AppData\Local\arduino\sketches\452188ACB23955C2F3838071FEF76B93\sketch\SevSeg.cpp.o
SevSeg::begin(unsigned char, unsigned char, unsigned char const*, unsigned char const*, bool, bool, bool, bool) C:\Users\USER\AppData\Local\arduino\sketches\452188ACB23955C2F3838071FEF76B93\sketch\SevSeg.cpp.o
                                                  C:\Users\USER\AppData\Local\arduino\sketches\452188ACB23955C2F3838071FEF76B93\sketch\Lavadora.ino.cpp.o
SevSeg::blank()                                   C:\Users\USER\AppData\Local\arduino\sketches\452188ACB23955C2F3838071FEF76B93\sketch\SevSeg.cpp.o
                                                  C:\Users\USER\AppData\Local\arduino\sketches\452188ACB23955C2F3838071FEF76B93\sketch\Lavadora.ino.cpp.o
SevSeg::digitOff(unsigned char)                   C:\Users\USER\AppData\Local\arduino\sketches\452188ACB23955C2F3838071FEF76B93\sketch\SevSeg.cpp.o
SevSeg::digitOn(unsigned char)                    C:\Users\USER\AppData\Local\arduino\sketches\452188ACB23955C2F3838071FEF76B93\sketch\SevSeg.cpp.o
SevSeg::findDigits(long, signed char, bool, unsigned char*) C:\Users\USER\AppData\Local\arduino\sketches\452188ACB23955C2F3838071FEF76B93\sketch\SevSeg.cpp.o
SevSeg::getSegments(unsigned char*)               C:\Users\USER\AppData\Local\arduino\sketches\452188ACB23955C2F3838071FEF76B93\sketch\SevSeg.cpp.o
SevSeg::refreshDisplay()                          C:\Users\USER\AppData\Local\arduino\sketches\452188ACB23955C2F3838071FEF76B93\sketch\SevSeg.cpp.o
                                                  C:\Users\USER\AppData\Local\arduino\sketches\452188ACB23955C2F3838071FEF76B93\sketch\Lavadora.ino.cpp.o
SevSeg::segmentOff(unsigned char)                 C:\Users\USER\AppData\Local\arduino\sketches\452188ACB23955C2F3838071FEF76B93\sketch\SevSeg.cpp.o
SevSeg::segmentOn(unsigned char)                  C:\Users\USER\AppData\Local\arduino\sketches\452188ACB23955C2F3838071FEF76B93\sketch\SevSeg.cpp.o
SevSeg::setBrightness(short)                      C:\Users\USER\AppData\Local\arduino\sketches\452188ACB23955C2F3838071FEF76B93\sketch\SevSeg.cpp.o
                                                  C:\Users\USER\AppData\Local\arduino\sketches\452188ACB23955C2F3838071FEF76B93\sketch\Lavadora.ino.cpp.o
SevSeg::setChars(char const*)                     C:\Users\USER\AppData\Local\arduino\sketches\452188ACB23955C2F3838071FEF76B93\sketch\SevSeg.cpp.o
                                                  C:\Users\USER\AppData\Local\arduino\sketches\452188ACB23955C2F3838071FEF76B93\sketch\Lavadora.ino.cpp.o
SevSeg::setDigitCodes(unsigned char const*, signed char) C:\Users\USER\AppData\Local\arduino\sketches\452188ACB23955C2F3838071FEF76B93\sketch\SevSeg.cpp.o
SevSeg::setNewNum(long, signed char, bool)        C:\Users\USER\AppData\Local\arduino\sketches\452188ACB23955C2F3838071FEF76B93\sketch\SevSeg.cpp.o
SevSeg::setNumber(long, signed char, bool)        C:\Users\USER\AppData\Local\arduino\sketches\452188ACB23955C2F3838071FEF76B93\sketch\SevSeg.cpp.o
                                                  C:\Users\USER\AppData\Local\arduino\sketches\452188ACB23955C2F3838071FEF76B93\sketch\Lavadora.ino.cpp.o
SevSeg::setNumberF(float, signed char, bool)      C:\Users\USER\AppData\Local\arduino\sketches\452188ACB23955C2F3838071FEF76B93\sketch\SevSeg.cpp.o
SevSeg::setSegments(unsigned char const*)         C:\Users\USER\AppData\Local\arduino\sketches\452188ACB23955C2F3838071FEF76B93\sketch\SevSeg.cpp.o
SevSeg::setSegmentsDigit(unsigned char, unsigned char) C:\Users\USER\AppData\Local\arduino\sketches\452188ACB23955C2F3838071FEF76B93\sketch\SevSeg.cpp.o
Standard_ClearFeature                             C:\Users\USER\AppData\Local\arduino\cores\7bf7b0ebd1cd5824297d9ecc843c1978\core.a(usb_core.c.o)
Standard_GetConfiguration                         C:\Users\USER\AppData\Local\arduino\cores\7bf7b0ebd1cd5824297d9ecc843c1978\core.a(usb_core.c.o)
Standard_GetDescriptorData                        C:\Users\USER\AppData\Local\arduino\cores\7bf7b0ebd1cd5824297d9ecc843c1978\core.a(usb_core.c.o)
                                                  C:\Users\USER\AppData\Local\arduino\cores\7bf7b0ebd1cd5824297d9ecc843c1978\core.a(usb_cdcacm.c.o)
Standard_GetInterface                             C:\Users\USER\AppData\Local\arduino\cores\7bf7b0ebd1cd5824297d9ecc843c1978\core.a(usb_core.c.o)
Standard_GetStatus                                C:\Users\USER\AppData\Local\arduino\cores\7bf7b0ebd1cd5824297d9ecc843c1978\core.a(usb_core.c.o)
Standard_SetConfiguration                         C:\Users\USER\AppData\Local\arduino\cores\7bf7b0ebd1cd5824297d9ecc843c1978\core.a(usb_core.c.o)
Standard_SetDeviceFeature                         C:\Users\USER\AppData\Local\arduino\cores\7bf7b0ebd1cd5824297d9ecc843c1978\core.a(usb_core.c.o)
Standard_SetEndPointFeature                       C:\Users\USER\AppData\Local\arduino\cores\7bf7b0ebd1cd5824297d9ecc843c1978\core.a(usb_core.c.o)
Standard_SetInterface                             C:\Users\USER\AppData\Local\arduino\cores\7bf7b0ebd1cd5824297d9ecc843c1978\core.a(usb_core.c.o)
StatusInfo                                        C:\Users\USER\AppData\Local\arduino\cores\7bf7b0ebd1cd5824297d9ecc843c1978\core.a(usb_core.c.o)
TIMER1                                            C:\Users\USER\AppData\Local\arduino\cores\7bf7b0ebd1cd5824297d9ecc843c1978\core.a(timer.c.o)
TIMER2                                            C:\Users\USER\AppData\Local\arduino\cores\7bf7b0ebd1cd5824297d9ecc843c1978\core.a(timer.c.o)
TIMER3                                            C:\Users\USER\AppData\Local\arduino\cores\7bf7b0ebd1cd5824297d9ecc843c1978\core.a(timer.c.o)
TIMER4                                            C:\Users\USER\AppData\Local\arduino\cores\7bf7b0ebd1cd5824297d9ecc843c1978\core.a(timer.c.o)
ToWord                                            C:\Users\USER\AppData\Local\arduino\cores\7bf7b0ebd1cd5824297d9ecc843c1978\core.a(usb_regs.c.o)
ToggleDTOG_RX                                     C:\Users\USER\AppData\Local\arduino\cores\7bf7b0ebd1cd5824297d9ecc843c1978\core.a(usb_regs.c.o)
ToggleDTOG_TX                                     C:\Users\USER\AppData\Local\arduino\cores\7bf7b0ebd1cd5824297d9ecc843c1978\core.a(usb_regs.c.o)
USART1                                            C:\Users\USER\AppData\Local\arduino\cores\7bf7b0ebd1cd5824297d9ecc843c1978\core.a(usart_f1.c.o)
                                                  C:\Users\USER\AppData\Local\arduino\sketches\452188ACB23955C2F3838071FEF76B93\core\board.cpp.o
USART2                                            C:\Users\USER\AppData\Local\arduino\cores\7bf7b0ebd1cd5824297d9ecc843c1978\core.a(usart_f1.c.o)
                                                  C:\Users\USER\AppData\Local\arduino\sketches\452188ACB23955C2F3838071FEF76B93\core\board.cpp.o
USART3                                            C:\Users\USER\AppData\Local\arduino\cores\7bf7b0ebd1cd5824297d9ecc843c1978\core.a(usart_f1.c.o)
                                                  C:\Users\USER\AppData\Local\arduino\sketches\452188ACB23955C2F3838071FEF76B93\core\board.cpp.o
USBLIB                                            C:\Users\USER\AppData\Local\arduino\cores\7bf7b0ebd1cd5824297d9ecc843c1978\core.a(usb.c.o)
                                                  C:\Users\USER\AppData\Local\arduino\cores\7bf7b0ebd1cd5824297d9ecc843c1978\core.a(usb_cdcacm.c.o)
USB_Init                                          C:\Users\USER\AppData\Local\arduino\cores\7bf7b0ebd1cd5824297d9ecc843c1978\core.a(usb_init.c.o)
UserToPMABufferCopy                               C:\Users\USER\AppData\Local\arduino\cores\7bf7b0ebd1cd5824297d9ecc843c1978\core.a(usb_mem.c.o)
                                                  C:\Users\USER\AppData\Local\arduino\cores\7bf7b0ebd1cd5824297d9ecc843c1978\core.a(usb_core.c.o)
User_Standard_Requests                            C:\Users\USER\AppData\Local\arduino\cores\7bf7b0ebd1cd5824297d9ecc843c1978\core.a(usb_cdcacm.c.o)
                                                  C:\Users\USER\AppData\Local\arduino\cores\7bf7b0ebd1cd5824297d9ecc843c1978\core.a(usb_init.c.o)
                                                  C:\Users\USER\AppData\Local\arduino\cores\7bf7b0ebd1cd5824297d9ecc843c1978\core.a(usb.c.o)
_Jv_RegisterClasses                               c:/users/user/appdata/local/arduino15/packages/arduino/tools/arm-none-eabi-gcc/4.8.3-2014q1/bin/../lib/gcc/arm-none-eabi/4.8.3/armv7-m/crtbegin.o
__adddf3                                          c:/users/user/appdata/local/arduino15/packages/arduino/tools/arm-none-eabi-gcc/4.8.3-2014q1/bin/../lib/gcc/arm-none-eabi/4.8.3/armv7-m\libgcc.a(_arm_addsubdf3.o)
__addsf3                                          c:/users/user/appdata/local/arduino15/packages/arduino/tools/arm-none-eabi-gcc/4.8.3-2014q1/bin/../lib/gcc/arm-none-eabi/4.8.3/armv7-m\libgcc.a(_arm_addsubsf3.o)
__aeabi_cdcmpeq                                   c:/users/user/appdata/local/arduino15/packages/arduino/tools/arm-none-eabi-gcc/4.8.3-2014q1/bin/../lib/gcc/arm-none-eabi/4.8.3/armv7-m\libgcc.a(_arm_cmpdf2.o)
__aeabi_cdcmple                                   c:/users/user/appdata/local/arduino15/packages/arduino/tools/arm-none-eabi-gcc/4.8.3-2014q1/bin/../lib/gcc/arm-none-eabi/4.8.3/armv7-m\libgcc.a(_arm_cmpdf2.o)
__aeabi_cdrcmple                                  c:/users/user/appdata/local/arduino15/packages/arduino/tools/arm-none-eabi-gcc/4.8.3-2014q1/bin/../lib/gcc/arm-none-eabi/4.8.3/armv7-m\libgcc.a(_arm_cmpdf2.o)
__aeabi_cfcmpeq                                   c:/users/user/appdata/local/arduino15/packages/arduino/tools/arm-none-eabi-gcc/4.8.3-2014q1/bin/../lib/gcc/arm-none-eabi/4.8.3/armv7-m\libgcc.a(_arm_cmpsf2.o)
__aeabi_cfcmple                                   c:/users/user/appdata/local/arduino15/packages/arduino/tools/arm-none-eabi-gcc/4.8.3-2014q1/bin/../lib/gcc/arm-none-eabi/4.8.3/armv7-m\libgcc.a(_arm_cmpsf2.o)
__aeabi_cfrcmple                                  c:/users/user/appdata/local/arduino15/packages/arduino/tools/arm-none-eabi-gcc/4.8.3-2014q1/bin/../lib/gcc/arm-none-eabi/4.8.3/armv7-m\libgcc.a(_arm_cmpsf2.o)
__aeabi_d2iz                                      c:/users/user/appdata/local/arduino15/packages/arduino/tools/arm-none-eabi-gcc/4.8.3-2014q1/bin/../lib/gcc/arm-none-eabi/4.8.3/armv7-m\libgcc.a(_arm_fixdfsi.o)
                                                  C:\Users\USER\AppData\Local\arduino\cores\7bf7b0ebd1cd5824297d9ecc843c1978\core.a(Print.cpp.o)
__aeabi_d2lz                                      c:/users/user/appdata/local/arduino15/packages/arduino/tools/arm-none-eabi-gcc/4.8.3-2014q1/bin/../lib/gcc/arm-none-eabi/4.8.3/armv7-m\libgcc.a(_fixdfdi.o)
                                                  C:\Users\USER\AppData\Local\arduino\cores\7bf7b0ebd1cd5824297d9ecc843c1978\core.a(Print.cpp.o)
__aeabi_d2uiz                                     c:/users/user/appdata/local/arduino15/packages/arduino/tools/arm-none-eabi-gcc/4.8.3-2014q1/bin/../lib/gcc/arm-none-eabi/4.8.3/armv7-m\libgcc.a(_arm_fixunsdfsi.o)
                                                  c:/users/user/appdata/local/arduino15/packages/arduino/tools/arm-none-eabi-gcc/4.8.3-2014q1/bin/../lib/gcc/arm-none-eabi/4.8.3/armv7-m\libgcc.a(_fixunsdfdi.o)
__aeabi_d2ulz                                     c:/users/user/appdata/local/arduino15/packages/arduino/tools/arm-none-eabi-gcc/4.8.3-2014q1/bin/../lib/gcc/arm-none-eabi/4.8.3/armv7-m\libgcc.a(_fixunsdfdi.o)
                                                  c:/users/user/appdata/local/arduino15/packages/arduino/tools/arm-none-eabi-gcc/4.8.3-2014q1/bin/../lib/gcc/arm-none-eabi/4.8.3/armv7-m\libgcc.a(_fixdfdi.o)
__aeabi_dadd                                      c:/users/user/appdata/local/arduino15/packages/arduino/tools/arm-none-eabi-gcc/4.8.3-2014q1/bin/../lib/gcc/arm-none-eabi/4.8.3/armv7-m\libgcc.a(_arm_addsubdf3.o)
                                                  C:\Users\USER\AppData\Local\arduino\cores\7bf7b0ebd1cd5824297d9ecc843c1978\core.a(Print.cpp.o)
__aeabi_dcmpeq                                    c:/users/user/appdata/local/arduino15/packages/arduino/tools/arm-none-eabi-gcc/4.8.3-2014q1/bin/../lib/gcc/arm-none-eabi/4.8.3/armv7-m\libgcc.a(_arm_cmpdf2.o)
__aeabi_dcmpge                                    c:/users/user/appdata/local/arduino15/packages/arduino/tools/arm-none-eabi-gcc/4.8.3-2014q1/bin/../lib/gcc/arm-none-eabi/4.8.3/armv7-m\libgcc.a(_arm_cmpdf2.o)
                                                  C:\Users\USER\AppData\Local\arduino\cores\7bf7b0ebd1cd5824297d9ecc843c1978\core.a(Print.cpp.o)
__aeabi_dcmpgt                                    c:/users/user/appdata/local/arduino15/packages/arduino/tools/arm-none-eabi-gcc/4.8.3-2014q1/bin/../lib/gcc/arm-none-eabi/4.8.3/armv7-m\libgcc.a(_arm_cmpdf2.o)
                                                  C:\Users\USER\AppData\Local\arduino\cores\7bf7b0ebd1cd5824297d9ecc843c1978\core.a(Print.cpp.o)
__aeabi_dcmple                                    c:/users/user/appdata/local/arduino15/packages/arduino/tools/arm-none-eabi-gcc/4.8.3-2014q1/bin/../lib/gcc/arm-none-eabi/4.8.3/armv7-m\libgcc.a(_arm_cmpdf2.o)
                                                  C:\Users\USER\AppData\Local\arduino\cores\7bf7b0ebd1cd5824297d9ecc843c1978\core.a(Print.cpp.o)
__aeabi_dcmplt                                    c:/users/user/appdata/local/arduino15/packages/arduino/tools/arm-none-eabi-gcc/4.8.3-2014q1/bin/../lib/gcc/arm-none-eabi/4.8.3/armv7-m\libgcc.a(_arm_cmpdf2.o)
                                                  c:/users/user/appdata/local/arduino15/packages/arduino/tools/arm-none-eabi-gcc/4.8.3-2014q1/bin/../lib/gcc/arm-none-eabi/4.8.3/armv7-m\libgcc.a(_fixdfdi.o)
                                                  C:\Users\USER\AppData\Local\arduino\cores\7bf7b0ebd1cd5824297d9ecc843c1978\core.a(Print.cpp.o)
__aeabi_ddiv                                      c:/users/user/appdata/local/arduino15/packages/arduino/tools/arm-none-eabi-gcc/4.8.3-2014q1/bin/../lib/gcc/arm-none-eabi/4.8.3/armv7-m\libgcc.a(_arm_muldivdf3.o)
                                                  C:\Users\USER\AppData\Local\arduino\cores\7bf7b0ebd1cd5824297d9ecc843c1978\core.a(Print.cpp.o)
__aeabi_dmul                                      c:/users/user/appdata/local/arduino15/packages/arduino/tools/arm-none-eabi-gcc/4.8.3-2014q1/bin/../lib/gcc/arm-none-eabi/4.8.3/armv7-m\libgcc.a(_arm_muldivdf3.o)
                                                  c:/users/user/appdata/local/arduino15/packages/arduino/tools/arm-none-eabi-gcc/4.8.3-2014q1/bin/../lib/gcc/arm-none-eabi/4.8.3/armv7-m\libgcc.a(_fixunsdfdi.o)
                                                  C:\Users\USER\AppData\Local\arduino\cores\7bf7b0ebd1cd5824297d9ecc843c1978\core.a(Print.cpp.o)
__aeabi_drsub                                     c:/users/user/appdata/local/arduino15/packages/arduino/tools/arm-none-eabi-gcc/4.8.3-2014q1/bin/../lib/gcc/arm-none-eabi/4.8.3/armv7-m\libgcc.a(_arm_addsubdf3.o)
__aeabi_dsub                                      c:/users/user/appdata/local/arduino15/packages/arduino/tools/arm-none-eabi-gcc/4.8.3-2014q1/bin/../lib/gcc/arm-none-eabi/4.8.3/armv7-m\libgcc.a(_arm_addsubdf3.o)
                                                  c:/users/user/appdata/local/arduino15/packages/arduino/tools/arm-none-eabi-gcc/4.8.3-2014q1/bin/../lib/gcc/arm-none-eabi/4.8.3/armv7-m\libgcc.a(_fixunsdfdi.o)
                                                  C:\Users\USER\AppData\Local\arduino\cores\7bf7b0ebd1cd5824297d9ecc843c1978\core.a(Print.cpp.o)
__aeabi_f2d                                       c:/users/user/appdata/local/arduino15/packages/arduino/tools/arm-none-eabi-gcc/4.8.3-2014q1/bin/../lib/gcc/arm-none-eabi/4.8.3/armv7-m\libgcc.a(_arm_addsubdf3.o)
__aeabi_f2iz                                      c:/users/user/appdata/local/arduino15/packages/arduino/tools/arm-none-eabi-gcc/4.8.3-2014q1/bin/../lib/gcc/arm-none-eabi/4.8.3/armv7-m\libgcc.a(_arm_fixsfsi.o)
                                                  C:\Users\USER\AppData\Local\arduino\sketches\452188ACB23955C2F3838071FEF76B93\sketch\SevSeg.cpp.o
__aeabi_fadd                                      c:/users/user/appdata/local/arduino15/packages/arduino/tools/arm-none-eabi-gcc/4.8.3-2014q1/bin/../lib/gcc/arm-none-eabi/4.8.3/armv7-m\libgcc.a(_arm_addsubsf3.o)
                                                  C:\Users\USER\AppData\Local\arduino\sketches\452188ACB23955C2F3838071FEF76B93\sketch\SevSeg.cpp.o
__aeabi_fcmpeq                                    c:/users/user/appdata/local/arduino15/packages/arduino/tools/arm-none-eabi-gcc/4.8.3-2014q1/bin/../lib/gcc/arm-none-eabi/4.8.3/armv7-m\libgcc.a(_arm_cmpsf2.o)
__aeabi_fcmpge                                    c:/users/user/appdata/local/arduino15/packages/arduino/tools/arm-none-eabi-gcc/4.8.3-2014q1/bin/../lib/gcc/arm-none-eabi/4.8.3/armv7-m\libgcc.a(_arm_cmpsf2.o)
                                                  C:\Users\USER\AppData\Local\arduino\sketches\452188ACB23955C2F3838071FEF76B93\sketch\SevSeg.cpp.o
__aeabi_fcmpgt                                    c:/users/user/appdata/local/arduino15/packages/arduino/tools/arm-none-eabi-gcc/4.8.3-2014q1/bin/../lib/gcc/arm-none-eabi/4.8.3/armv7-m\libgcc.a(_arm_cmpsf2.o)
__aeabi_fcmple                                    c:/users/user/appdata/local/arduino15/packages/arduino/tools/arm-none-eabi-gcc/4.8.3-2014q1/bin/../lib/gcc/arm-none-eabi/4.8.3/armv7-m\libgcc.a(_arm_cmpsf2.o)
__aeabi_fcmplt                                    c:/users/user/appdata/local/arduino15/packages/arduino/tools/arm-none-eabi-gcc/4.8.3-2014q1/bin/../lib/gcc/arm-none-eabi/4.8.3/armv7-m\libgcc.a(_arm_cmpsf2.o)
__aeabi_fdiv                                      c:/users/user/appdata/local/arduino15/packages/arduino/tools/arm-none-eabi-gcc/4.8.3-2014q1/bin/../lib/gcc/arm-none-eabi/4.8.3/armv7-m\libgcc.a(_arm_muldivsf3.o)
__aeabi_fmul                                      c:/users/user/appdata/local/arduino15/packages/arduino/tools/arm-none-eabi-gcc/4.8.3-2014q1/bin/../lib/gcc/arm-none-eabi/4.8.3/armv7-m\libgcc.a(_arm_muldivsf3.o)
                                                  C:\Users\USER\AppData\Local\arduino\sketches\452188ACB23955C2F3838071FEF76B93\sketch\SevSeg.cpp.o
__aeabi_frsub                                     c:/users/user/appdata/local/arduino15/packages/arduino/tools/arm-none-eabi-gcc/4.8.3-2014q1/bin/../lib/gcc/arm-none-eabi/4.8.3/armv7-m\libgcc.a(_arm_addsubsf3.o)
__aeabi_fsub                                      c:/users/user/appdata/local/arduino15/packages/arduino/tools/arm-none-eabi-gcc/4.8.3-2014q1/bin/../lib/gcc/arm-none-eabi/4.8.3/armv7-m\libgcc.a(_arm_addsubsf3.o)
__aeabi_i2d                                       c:/users/user/appdata/local/arduino15/packages/arduino/tools/arm-none-eabi-gcc/4.8.3-2014q1/bin/../lib/gcc/arm-none-eabi/4.8.3/armv7-m\libgcc.a(_arm_addsubdf3.o)
                                                  C:\Users\USER\AppData\Local\arduino\cores\7bf7b0ebd1cd5824297d9ecc843c1978\core.a(Print.cpp.o)
__aeabi_i2f                                       c:/users/user/appdata/local/arduino15/packages/arduino/tools/arm-none-eabi-gcc/4.8.3-2014q1/bin/../lib/gcc/arm-none-eabi/4.8.3/armv7-m\libgcc.a(_arm_addsubsf3.o)
                                                  C:\Users\USER\AppData\Local\arduino\sketches\452188ACB23955C2F3838071FEF76B93\sketch\SevSeg.cpp.o
__aeabi_idiv0                                     c:/users/user/appdata/local/arduino15/packages/arduino/tools/arm-none-eabi-gcc/4.8.3-2014q1/bin/../lib/gcc/arm-none-eabi/4.8.3/armv7-m\libgcc.a(_dvmd_tls.o)
__aeabi_l2d                                       c:/users/user/appdata/local/arduino15/packages/arduino/tools/arm-none-eabi-gcc/4.8.3-2014q1/bin/../lib/gcc/arm-none-eabi/4.8.3/armv7-m\libgcc.a(_arm_addsubdf3.o)
                                                  C:\Users\USER\AppData\Local\arduino\cores\7bf7b0ebd1cd5824297d9ecc843c1978\core.a(Print.cpp.o)
__aeabi_l2f                                       c:/users/user/appdata/local/arduino15/packages/arduino/tools/arm-none-eabi-gcc/4.8.3-2014q1/bin/../lib/gcc/arm-none-eabi/4.8.3/armv7-m\libgcc.a(_arm_addsubsf3.o)
__aeabi_ldiv0                                     c:/users/user/appdata/local/arduino15/packages/arduino/tools/arm-none-eabi-gcc/4.8.3-2014q1/bin/../lib/gcc/arm-none-eabi/4.8.3/armv7-m\libgcc.a(_dvmd_tls.o)
                                                  c:/users/user/appdata/local/arduino15/packages/arduino/tools/arm-none-eabi-gcc/4.8.3-2014q1/bin/../lib/gcc/arm-none-eabi/4.8.3/armv7-m\libgcc.a(_aeabi_uldivmod.o)
                                                  c:/users/user/appdata/local/arduino15/packages/arduino/tools/arm-none-eabi-gcc/4.8.3-2014q1/bin/../lib/gcc/arm-none-eabi/4.8.3/armv7-m\libgcc.a(_aeabi_ldivmod.o)
__aeabi_ldivmod                                   c:/users/user/appdata/local/arduino15/packages/arduino/tools/arm-none-eabi-gcc/4.8.3-2014q1/bin/../lib/gcc/arm-none-eabi/4.8.3/armv7-m\libgcc.a(_aeabi_ldivmod.o)
                                                  C:\Users\USER\AppData\Local\arduino\sketches\452188ACB23955C2F3838071FEF76B93\sketch\SevSeg.cpp.o
__aeabi_ui2d                                      c:/users/user/appdata/local/arduino15/packages/arduino/tools/arm-none-eabi-gcc/4.8.3-2014q1/bin/../lib/gcc/arm-none-eabi/4.8.3/armv7-m\libgcc.a(_arm_addsubdf3.o)
                                                  c:/users/user/appdata/local/arduino15/packages/arduino/tools/arm-none-eabi-gcc/4.8.3-2014q1/bin/../lib/gcc/arm-none-eabi/4.8.3/armv7-m\libgcc.a(_fixunsdfdi.o)
__aeabi_ui2f                                      c:/users/user/appdata/local/arduino15/packages/arduino/tools/arm-none-eabi-gcc/4.8.3-2014q1/bin/../lib/gcc/arm-none-eabi/4.8.3/armv7-m\libgcc.a(_arm_addsubsf3.o)
__aeabi_ul2d                                      c:/users/user/appdata/local/arduino15/packages/arduino/tools/arm-none-eabi-gcc/4.8.3-2014q1/bin/../lib/gcc/arm-none-eabi/4.8.3/armv7-m\libgcc.a(_arm_addsubdf3.o)
__aeabi_ul2f                                      c:/users/user/appdata/local/arduino15/packages/arduino/tools/arm-none-eabi-gcc/4.8.3-2014q1/bin/../lib/gcc/arm-none-eabi/4.8.3/armv7-m\libgcc.a(_arm_addsubsf3.o)
__aeabi_uldivmod                                  c:/users/user/appdata/local/arduino15/packages/arduino/tools/arm-none-eabi-gcc/4.8.3-2014q1/bin/../lib/gcc/arm-none-eabi/4.8.3/armv7-m\libgcc.a(_aeabi_uldivmod.o)
                                                  C:\Users\USER\AppData\Local\arduino\cores\7bf7b0ebd1cd5824297d9ecc843c1978\core.a(Print.cpp.o)
__assert_func                                     C:\Users\USER\AppData\Local\arduino\cores\7bf7b0ebd1cd5824297d9ecc843c1978\core.a(util.c.o)
__bss_end__                                       C:\Users\USER\AppData\Local\arduino\sketches\452188ACB23955C2F3838071FEF76B93\core\wirish\start_c.c.o
                                                  c:/users/user/appdata/local/arduino15/packages/arduino/tools/arm-none-eabi-gcc/4.8.3-2014q1/bin/../lib/gcc/arm-none-eabi/4.8.3/../../../../arm-none-eabi/lib/armv7-m/crt0.o
__bss_start__                                     C:\Users\USER\AppData\Local\arduino\sketches\452188ACB23955C2F3838071FEF76B93\core\wirish\start_c.c.o
                                                  c:/users/user/appdata/local/arduino15/packages/arduino/tools/arm-none-eabi-gcc/4.8.3-2014q1/bin/../lib/gcc/arm-none-eabi/4.8.3/../../../../arm-none-eabi/lib/armv7-m/crt0.o
__call_exitprocs                                  c:/users/user/appdata/local/arduino15/packages/arduino/tools/arm-none-eabi-gcc/4.8.3-2014q1/bin/../lib/gcc/arm-none-eabi/4.8.3/../../../../arm-none-eabi/lib/armv7-m\libc_s.a(lib_a-exit.o)
__cmpdf2                                          c:/users/user/appdata/local/arduino15/packages/arduino/tools/arm-none-eabi-gcc/4.8.3-2014q1/bin/../lib/gcc/arm-none-eabi/4.8.3/armv7-m\libgcc.a(_arm_cmpdf2.o)
__cmpsf2                                          c:/users/user/appdata/local/arduino15/packages/arduino/tools/arm-none-eabi-gcc/4.8.3-2014q1/bin/../lib/gcc/arm-none-eabi/4.8.3/armv7-m\libgcc.a(_arm_cmpsf2.o)
__cxa_demangle                                    C:\Users\USER\AppData\Local\arduino\cores\7bf7b0ebd1cd5824297d9ecc843c1978\core.a(cxxabi-compat.cpp.o)
__cxa_pure_virtual                                C:\Users\USER\AppData\Local\arduino\cores\7bf7b0ebd1cd5824297d9ecc843c1978\core.a(cxxabi-compat.cpp.o)
                                                  C:\Users\USER\AppData\Local\arduino\cores\7bf7b0ebd1cd5824297d9ecc843c1978\core.a(Print.cpp.o)
                                                  C:\Users\USER\AppData\Local\arduino\cores\7bf7b0ebd1cd5824297d9ecc843c1978\core.a(HardwareSerial.cpp.o)
__data_end__                                      C:\Users\USER\AppData\Local\arduino\sketches\452188ACB23955C2F3838071FEF76B93\core\wirish\start_c.c.o
__data_start__                                    C:\Users\USER\AppData\Local\arduino\sketches\452188ACB23955C2F3838071FEF76B93\core\wirish\start_c.c.o
__default_handler                                 C:\Users\USER\AppData\Local\arduino\cores\7bf7b0ebd1cd5824297d9ecc843c1978\core.a(isrs.S.o)
__deregister_frame_info                           c:/users/user/appdata/local/arduino15/packages/arduino/tools/arm-none-eabi-gcc/4.8.3-2014q1/bin/../lib/gcc/arm-none-eabi/4.8.3/armv7-m/crtbegin.o
__divdf3                                          c:/users/user/appdata/local/arduino15/packages/arduino/tools/arm-none-eabi-gcc/4.8.3-2014q1/bin/../lib/gcc/arm-none-eabi/4.8.3/armv7-m\libgcc.a(_arm_muldivdf3.o)
__divdi3                                          c:/users/user/appdata/local/arduino15/packages/arduino/tools/arm-none-eabi-gcc/4.8.3-2014q1/bin/../lib/gcc/arm-none-eabi/4.8.3/armv7-m\libgcc.a(_divdi3.o)
                                                  c:/users/user/appdata/local/arduino15/packages/arduino/tools/arm-none-eabi-gcc/4.8.3-2014q1/bin/../lib/gcc/arm-none-eabi/4.8.3/armv7-m\libgcc.a(bpabi.o)
__divsf3                                          c:/users/user/appdata/local/arduino15/packages/arduino/tools/arm-none-eabi-gcc/4.8.3-2014q1/bin/../lib/gcc/arm-none-eabi/4.8.3/armv7-m\libgcc.a(_arm_muldivsf3.o)
__dso_handle                                      c:/users/user/appdata/local/arduino15/packages/arduino/tools/arm-none-eabi-gcc/4.8.3-2014q1/bin/../lib/gcc/arm-none-eabi/4.8.3/armv7-m/crtbegin.o
__eqdf2                                           c:/users/user/appdata/local/arduino15/packages/arduino/tools/arm-none-eabi-gcc/4.8.3-2014q1/bin/../lib/gcc/arm-none-eabi/4.8.3/armv7-m\libgcc.a(_arm_cmpdf2.o)
__eqsf2                                           c:/users/user/appdata/local/arduino15/packages/arduino/tools/arm-none-eabi-gcc/4.8.3-2014q1/bin/../lib/gcc/arm-none-eabi/4.8.3/armv7-m\libgcc.a(_arm_cmpsf2.o)
__errno                                           c:/users/user/appdata/local/arduino15/packages/arduino/tools/arm-none-eabi-gcc/4.8.3-2014q1/bin/../lib/gcc/arm-none-eabi/4.8.3/../../../../arm-none-eabi/lib/armv7-m\libc_s.a(lib_a-errno.o)
                                                  C:\Users\USER\AppData\Local\arduino\sketches\452188ACB23955C2F3838071FEF76B93\core\wirish\syscalls.c.o
__error                                           C:\Users\USER\AppData\Local\arduino\cores\7bf7b0ebd1cd5824297d9ecc843c1978\core.a(util.c.o)
                                                  C:\Users\USER\AppData\Local\arduino\cores\7bf7b0ebd1cd5824297d9ecc843c1978\core.a(exc.S.o)
__exc_busfault                                    C:\Users\USER\AppData\Local\arduino\cores\7bf7b0ebd1cd5824297d9ecc843c1978\core.a(exc.S.o)
                                                  C:\Users\USER\AppData\Local\arduino\cores\7bf7b0ebd1cd5824297d9ecc843c1978\core.a(vector_table.S.o)
__exc_debug_monitor                               C:\Users\USER\AppData\Local\arduino\cores\7bf7b0ebd1cd5824297d9ecc843c1978\core.a(isrs.S.o)
                                                  C:\Users\USER\AppData\Local\arduino\cores\7bf7b0ebd1cd5824297d9ecc843c1978\core.a(vector_table.S.o)
__exc_hardfault                                   C:\Users\USER\AppData\Local\arduino\cores\7bf7b0ebd1cd5824297d9ecc843c1978\core.a(exc.S.o)
                                                  C:\Users\USER\AppData\Local\arduino\cores\7bf7b0ebd1cd5824297d9ecc843c1978\core.a(vector_table.S.o)
__exc_memmanage                                   C:\Users\USER\AppData\Local\arduino\cores\7bf7b0ebd1cd5824297d9ecc843c1978\core.a(exc.S.o)
                                                  C:\Users\USER\AppData\Local\arduino\cores\7bf7b0ebd1cd5824297d9ecc843c1978\core.a(vector_table.S.o)
__exc_nmi                                         C:\Users\USER\AppData\Local\arduino\cores\7bf7b0ebd1cd5824297d9ecc843c1978\core.a(exc.S.o)
                                                  C:\Users\USER\AppData\Local\arduino\cores\7bf7b0ebd1cd5824297d9ecc843c1978\core.a(vector_table.S.o)
__exc_pendsv                                      C:\Users\USER\AppData\Local\arduino\cores\7bf7b0ebd1cd5824297d9ecc843c1978\core.a(isrs.S.o)
                                                  C:\Users\USER\AppData\Local\arduino\cores\7bf7b0ebd1cd5824297d9ecc843c1978\core.a(vector_table.S.o)
__exc_reset                                       C:\Users\USER\AppData\Local\arduino\cores\7bf7b0ebd1cd5824297d9ecc843c1978\core.a(vector_table.S.o)
__exc_svc                                         C:\Users\USER\AppData\Local\arduino\cores\7bf7b0ebd1cd5824297d9ecc843c1978\core.a(isrs.S.o)
                                                  C:\Users\USER\AppData\Local\arduino\cores\7bf7b0ebd1cd5824297d9ecc843c1978\core.a(vector_table.S.o)
__exc_systick                                     C:\Users\USER\AppData\Local\arduino\cores\7bf7b0ebd1cd5824297d9ecc843c1978\core.a(systick.c.o)
                                                  C:\Users\USER\AppData\Local\arduino\cores\7bf7b0ebd1cd5824297d9ecc843c1978\core.a(vector_table.S.o)
__exc_usagefault                                  C:\Users\USER\AppData\Local\arduino\cores\7bf7b0ebd1cd5824297d9ecc843c1978\core.a(exc.S.o)
                                                  C:\Users\USER\AppData\Local\arduino\cores\7bf7b0ebd1cd5824297d9ecc843c1978\core.a(vector_table.S.o)
__extendsfdf2                                     c:/users/user/appdata/local/arduino15/packages/arduino/tools/arm-none-eabi-gcc/4.8.3-2014q1/bin/../lib/gcc/arm-none-eabi/4.8.3/armv7-m\libgcc.a(_arm_addsubdf3.o)
__fixdfdi                                         c:/users/user/appdata/local/arduino15/packages/arduino/tools/arm-none-eabi-gcc/4.8.3-2014q1/bin/../lib/gcc/arm-none-eabi/4.8.3/armv7-m\libgcc.a(_fixdfdi.o)
__fixdfsi                                         c:/users/user/appdata/local/arduino15/packages/arduino/tools/arm-none-eabi-gcc/4.8.3-2014q1/bin/../lib/gcc/arm-none-eabi/4.8.3/armv7-m\libgcc.a(_arm_fixdfsi.o)
__fixsfsi                                         c:/users/user/appdata/local/arduino15/packages/arduino/tools/arm-none-eabi-gcc/4.8.3-2014q1/bin/../lib/gcc/arm-none-eabi/4.8.3/armv7-m\libgcc.a(_arm_fixsfsi.o)
__fixunsdfdi                                      c:/users/user/appdata/local/arduino15/packages/arduino/tools/arm-none-eabi-gcc/4.8.3-2014q1/bin/../lib/gcc/arm-none-eabi/4.8.3/armv7-m\libgcc.a(_fixunsdfdi.o)
__fixunsdfsi                                      c:/users/user/appdata/local/arduino15/packages/arduino/tools/arm-none-eabi-gcc/4.8.3-2014q1/bin/../lib/gcc/arm-none-eabi/4.8.3/armv7-m\libgcc.a(_arm_fixunsdfsi.o)
__floatdidf                                       c:/users/user/appdata/local/arduino15/packages/arduino/tools/arm-none-eabi-gcc/4.8.3-2014q1/bin/../lib/gcc/arm-none-eabi/4.8.3/armv7-m\libgcc.a(_arm_addsubdf3.o)
__floatdisf                                       c:/users/user/appdata/local/arduino15/packages/arduino/tools/arm-none-eabi-gcc/4.8.3-2014q1/bin/../lib/gcc/arm-none-eabi/4.8.3/armv7-m\libgcc.a(_arm_addsubsf3.o)
__floatsidf                                       c:/users/user/appdata/local/arduino15/packages/arduino/tools/arm-none-eabi-gcc/4.8.3-2014q1/bin/../lib/gcc/arm-none-eabi/4.8.3/armv7-m\libgcc.a(_arm_addsubdf3.o)
__floatsisf                                       c:/users/user/appdata/local/arduino15/packages/arduino/tools/arm-none-eabi-gcc/4.8.3-2014q1/bin/../lib/gcc/arm-none-eabi/4.8.3/armv7-m\libgcc.a(_arm_addsubsf3.o)
__floatundidf                                     c:/users/user/appdata/local/arduino15/packages/arduino/tools/arm-none-eabi-gcc/4.8.3-2014q1/bin/../lib/gcc/arm-none-eabi/4.8.3/armv7-m\libgcc.a(_arm_addsubdf3.o)
__floatundisf                                     c:/users/user/appdata/local/arduino15/packages/arduino/tools/arm-none-eabi-gcc/4.8.3-2014q1/bin/../lib/gcc/arm-none-eabi/4.8.3/armv7-m\libgcc.a(_arm_addsubsf3.o)
__floatunsidf                                     c:/users/user/appdata/local/arduino15/packages/arduino/tools/arm-none-eabi-gcc/4.8.3-2014q1/bin/../lib/gcc/arm-none-eabi/4.8.3/armv7-m\libgcc.a(_arm_addsubdf3.o)
__floatunsisf                                     c:/users/user/appdata/local/arduino15/packages/arduino/tools/arm-none-eabi-gcc/4.8.3-2014q1/bin/../lib/gcc/arm-none-eabi/4.8.3/armv7-m\libgcc.a(_arm_addsubsf3.o)
__gedf2                                           c:/users/user/appdata/local/arduino15/packages/arduino/tools/arm-none-eabi-gcc/4.8.3-2014q1/bin/../lib/gcc/arm-none-eabi/4.8.3/armv7-m\libgcc.a(_arm_cmpdf2.o)
__gesf2                                           c:/users/user/appdata/local/arduino15/packages/arduino/tools/arm-none-eabi-gcc/4.8.3-2014q1/bin/../lib/gcc/arm-none-eabi/4.8.3/armv7-m\libgcc.a(_arm_cmpsf2.o)
__gnu_ldivmod_helper                              c:/users/user/appdata/local/arduino15/packages/arduino/tools/arm-none-eabi-gcc/4.8.3-2014q1/bin/../lib/gcc/arm-none-eabi/4.8.3/armv7-m\libgcc.a(bpabi.o)
                                                  c:/users/user/appdata/local/arduino15/packages/arduino/tools/arm-none-eabi-gcc/4.8.3-2014q1/bin/../lib/gcc/arm-none-eabi/4.8.3/armv7-m\libgcc.a(_aeabi_ldivmod.o)
__gnu_uldivmod_helper                             c:/users/user/appdata/local/arduino15/packages/arduino/tools/arm-none-eabi-gcc/4.8.3-2014q1/bin/../lib/gcc/arm-none-eabi/4.8.3/armv7-m\libgcc.a(bpabi.o)
                                                  c:/users/user/appdata/local/arduino15/packages/arduino/tools/arm-none-eabi-gcc/4.8.3-2014q1/bin/../lib/gcc/arm-none-eabi/4.8.3/armv7-m\libgcc.a(_aeabi_uldivmod.o)
__gtdf2                                           c:/users/user/appdata/local/arduino15/packages/arduino/tools/arm-none-eabi-gcc/4.8.3-2014q1/bin/../lib/gcc/arm-none-eabi/4.8.3/armv7-m\libgcc.a(_arm_cmpdf2.o)
__gtsf2                                           c:/users/user/appdata/local/arduino15/packages/arduino/tools/arm-none-eabi-gcc/4.8.3-2014q1/bin/../lib/gcc/arm-none-eabi/4.8.3/armv7-m\libgcc.a(_arm_cmpsf2.o)
__init_array_end                                  c:/users/user/appdata/local/arduino15/packages/arduino/tools/arm-none-eabi-gcc/4.8.3-2014q1/bin/../lib/gcc/arm-none-eabi/4.8.3/../../../../arm-none-eabi/lib/armv7-m\libc_s.a(lib_a-init.o)
__init_array_start                                c:/users/user/appdata/local/arduino15/packages/arduino/tools/arm-none-eabi-gcc/4.8.3-2014q1/bin/../lib/gcc/arm-none-eabi/4.8.3/../../../../arm-none-eabi/lib/armv7-m\libc_s.a(lib_a-init.o)
__irq_adc                                         C:\Users\USER\AppData\Local\arduino\cores\7bf7b0ebd1cd5824297d9ecc843c1978\core.a(adc_f1.c.o)
                                                  C:\Users\USER\AppData\Local\arduino\cores\7bf7b0ebd1cd5824297d9ecc843c1978\core.a(vector_table.S.o)
__irq_can_rx1                                     C:\Users\USER\AppData\Local\arduino\cores\7bf7b0ebd1cd5824297d9ecc843c1978\core.a(isrs.S.o)
                                                  C:\Users\USER\AppData\Local\arduino\cores\7bf7b0ebd1cd5824297d9ecc843c1978\core.a(vector_table.S.o)
__irq_can_sce                                     C:\Users\USER\AppData\Local\arduino\cores\7bf7b0ebd1cd5824297d9ecc843c1978\core.a(isrs.S.o)
                                                  C:\Users\USER\AppData\Local\arduino\cores\7bf7b0ebd1cd5824297d9ecc843c1978\core.a(vector_table.S.o)
__irq_dma1_channel1                               C:\Users\USER\AppData\Local\arduino\cores\7bf7b0ebd1cd5824297d9ecc843c1978\core.a(dma_f1.c.o)
                                                  C:\Users\USER\AppData\Local\arduino\cores\7bf7b0ebd1cd5824297d9ecc843c1978\core.a(vector_table.S.o)
__irq_dma1_channel2                               C:\Users\USER\AppData\Local\arduino\cores\7bf7b0ebd1cd5824297d9ecc843c1978\core.a(dma_f1.c.o)
                                                  C:\Users\USER\AppData\Local\arduino\cores\7bf7b0ebd1cd5824297d9ecc843c1978\core.a(vector_table.S.o)
__irq_dma1_channel3                               C:\Users\USER\AppData\Local\arduino\cores\7bf7b0ebd1cd5824297d9ecc843c1978\core.a(dma_f1.c.o)
                                                  C:\Users\USER\AppData\Local\arduino\cores\7bf7b0ebd1cd5824297d9ecc843c1978\core.a(vector_table.S.o)
__irq_dma1_channel4                               C:\Users\USER\AppData\Local\arduino\cores\7bf7b0ebd1cd5824297d9ecc843c1978\core.a(dma_f1.c.o)
                                                  C:\Users\USER\AppData\Local\arduino\cores\7bf7b0ebd1cd5824297d9ecc843c1978\core.a(vector_table.S.o)
__irq_dma1_channel5                               C:\Users\USER\AppData\Local\arduino\cores\7bf7b0ebd1cd5824297d9ecc843c1978\core.a(dma_f1.c.o)
                                                  C:\Users\USER\AppData\Local\arduino\cores\7bf7b0ebd1cd5824297d9ecc843c1978\core.a(vector_table.S.o)
__irq_dma1_channel6                               C:\Users\USER\AppData\Local\arduino\cores\7bf7b0ebd1cd5824297d9ecc843c1978\core.a(dma_f1.c.o)
                                                  C:\Users\USER\AppData\Local\arduino\cores\7bf7b0ebd1cd5824297d9ecc843c1978\core.a(vector_table.S.o)
__irq_dma1_channel7                               C:\Users\USER\AppData\Local\arduino\cores\7bf7b0ebd1cd5824297d9ecc843c1978\core.a(dma_f1.c.o)
                                                  C:\Users\USER\AppData\Local\arduino\cores\7bf7b0ebd1cd5824297d9ecc843c1978\core.a(vector_table.S.o)
__irq_exti0                                       C:\Users\USER\AppData\Local\arduino\cores\7bf7b0ebd1cd5824297d9ecc843c1978\core.a(exti.c.o)
                                                  C:\Users\USER\AppData\Local\arduino\cores\7bf7b0ebd1cd5824297d9ecc843c1978\core.a(vector_table.S.o)
__irq_exti1                                       C:\Users\USER\AppData\Local\arduino\cores\7bf7b0ebd1cd5824297d9ecc843c1978\core.a(exti.c.o)
                                                  C:\Users\USER\AppData\Local\arduino\cores\7bf7b0ebd1cd5824297d9ecc843c1978\core.a(vector_table.S.o)
__irq_exti15_10                                   C:\Users\USER\AppData\Local\arduino\cores\7bf7b0ebd1cd5824297d9ecc843c1978\core.a(exti.c.o)
                                                  C:\Users\USER\AppData\Local\arduino\cores\7bf7b0ebd1cd5824297d9ecc843c1978\core.a(vector_table.S.o)
__irq_exti2                                       C:\Users\USER\AppData\Local\arduino\cores\7bf7b0ebd1cd5824297d9ecc843c1978\core.a(exti.c.o)
                                                  C:\Users\USER\AppData\Local\arduino\cores\7bf7b0ebd1cd5824297d9ecc843c1978\core.a(vector_table.S.o)
__irq_exti3                                       C:\Users\USER\AppData\Local\arduino\cores\7bf7b0ebd1cd5824297d9ecc843c1978\core.a(exti.c.o)
                                                  C:\Users\USER\AppData\Local\arduino\cores\7bf7b0ebd1cd5824297d9ecc843c1978\core.a(vector_table.S.o)
__irq_exti4                                       C:\Users\USER\AppData\Local\arduino\cores\7bf7b0ebd1cd5824297d9ecc843c1978\core.a(exti.c.o)
                                                  C:\Users\USER\AppData\Local\arduino\cores\7bf7b0ebd1cd5824297d9ecc843c1978\core.a(vector_table.S.o)
__irq_exti9_5                                     C:\Users\USER\AppData\Local\arduino\cores\7bf7b0ebd1cd5824297d9ecc843c1978\core.a(exti.c.o)
                                                  C:\Users\USER\AppData\Local\arduino\cores\7bf7b0ebd1cd5824297d9ecc843c1978\core.a(vector_table.S.o)
__irq_flash                                       C:\Users\USER\AppData\Local\arduino\cores\7bf7b0ebd1cd5824297d9ecc843c1978\core.a(isrs.S.o)
                                                  C:\Users\USER\AppData\Local\arduino\cores\7bf7b0ebd1cd5824297d9ecc843c1978\core.a(vector_table.S.o)
__irq_i2c1_er                                     C:\Users\USER\AppData\Local\arduino\cores\7bf7b0ebd1cd5824297d9ecc843c1978\core.a(i2c_f1.c.o)
                                                  C:\Users\USER\AppData\Local\arduino\cores\7bf7b0ebd1cd5824297d9ecc843c1978\core.a(vector_table.S.o)
__irq_i2c1_ev                                     C:\Users\USER\AppData\Local\arduino\cores\7bf7b0ebd1cd5824297d9ecc843c1978\core.a(i2c_f1.c.o)
                                                  C:\Users\USER\AppData\Local\arduino\cores\7bf7b0ebd1cd5824297d9ecc843c1978\core.a(vector_table.S.o)
__irq_i2c2_er                                     C:\Users\USER\AppData\Local\arduino\cores\7bf7b0ebd1cd5824297d9ecc843c1978\core.a(i2c_f1.c.o)
                                                  C:\Users\USER\AppData\Local\arduino\cores\7bf7b0ebd1cd5824297d9ecc843c1978\core.a(vector_table.S.o)
__irq_i2c2_ev                                     C:\Users\USER\AppData\Local\arduino\cores\7bf7b0ebd1cd5824297d9ecc843c1978\core.a(i2c_f1.c.o)
                                                  C:\Users\USER\AppData\Local\arduino\cores\7bf7b0ebd1cd5824297d9ecc843c1978\core.a(vector_table.S.o)
__irq_pvd                                         C:\Users\USER\AppData\Local\arduino\cores\7bf7b0ebd1cd5824297d9ecc843c1978\core.a(isrs.S.o)
                                                  C:\Users\USER\AppData\Local\arduino\cores\7bf7b0ebd1cd5824297d9ecc843c1978\core.a(vector_table.S.o)
__irq_rcc                                         C:\Users\USER\AppData\Local\arduino\cores\7bf7b0ebd1cd5824297d9ecc843c1978\core.a(isrs.S.o)
                                                  C:\Users\USER\AppData\Local\arduino\cores\7bf7b0ebd1cd5824297d9ecc843c1978\core.a(vector_table.S.o)
__irq_rtc                                         C:\Users\USER\AppData\Local\arduino\cores\7bf7b0ebd1cd5824297d9ecc843c1978\core.a(isrs.S.o)
                                                  C:\Users\USER\AppData\Local\arduino\cores\7bf7b0ebd1cd5824297d9ecc843c1978\core.a(vector_table.S.o)
__irq_rtcalarm                                    C:\Users\USER\AppData\Local\arduino\cores\7bf7b0ebd1cd5824297d9ecc843c1978\core.a(isrs.S.o)
                                                  C:\Users\USER\AppData\Local\arduino\cores\7bf7b0ebd1cd5824297d9ecc843c1978\core.a(vector_table.S.o)
__irq_spi1                                        C:\Users\USER\AppData\Local\arduino\cores\7bf7b0ebd1cd5824297d9ecc843c1978\core.a(isrs.S.o)
                                                  C:\Users\USER\AppData\Local\arduino\cores\7bf7b0ebd1cd5824297d9ecc843c1978\core.a(vector_table.S.o)
__irq_spi2                                        C:\Users\USER\AppData\Local\arduino\cores\7bf7b0ebd1cd5824297d9ecc843c1978\core.a(isrs.S.o)
                                                  C:\Users\USER\AppData\Local\arduino\cores\7bf7b0ebd1cd5824297d9ecc843c1978\core.a(vector_table.S.o)
__irq_tamper                                      C:\Users\USER\AppData\Local\arduino\cores\7bf7b0ebd1cd5824297d9ecc843c1978\core.a(isrs.S.o)
                                                  C:\Users\USER\AppData\Local\arduino\cores\7bf7b0ebd1cd5824297d9ecc843c1978\core.a(vector_table.S.o)
__irq_tim1_brk                                    C:\Users\USER\AppData\Local\arduino\cores\7bf7b0ebd1cd5824297d9ecc843c1978\core.a(timer.c.o)
                                                  C:\Users\USER\AppData\Local\arduino\cores\7bf7b0ebd1cd5824297d9ecc843c1978\core.a(vector_table.S.o)
__irq_tim1_cc                                     C:\Users\USER\AppData\Local\arduino\cores\7bf7b0ebd1cd5824297d9ecc843c1978\core.a(timer.c.o)
                                                  C:\Users\USER\AppData\Local\arduino\cores\7bf7b0ebd1cd5824297d9ecc843c1978\core.a(vector_table.S.o)
__irq_tim1_trg_com                                C:\Users\USER\AppData\Local\arduino\cores\7bf7b0ebd1cd5824297d9ecc843c1978\core.a(timer.c.o)
                                                  C:\Users\USER\AppData\Local\arduino\cores\7bf7b0ebd1cd5824297d9ecc843c1978\core.a(vector_table.S.o)
__irq_tim1_up                                     C:\Users\USER\AppData\Local\arduino\cores\7bf7b0ebd1cd5824297d9ecc843c1978\core.a(timer.c.o)
                                                  C:\Users\USER\AppData\Local\arduino\cores\7bf7b0ebd1cd5824297d9ecc843c1978\core.a(vector_table.S.o)
__irq_tim2                                        C:\Users\USER\AppData\Local\arduino\cores\7bf7b0ebd1cd5824297d9ecc843c1978\core.a(timer.c.o)
                                                  C:\Users\USER\AppData\Local\arduino\cores\7bf7b0ebd1cd5824297d9ecc843c1978\core.a(vector_table.S.o)
__irq_tim3                                        C:\Users\USER\AppData\Local\arduino\cores\7bf7b0ebd1cd5824297d9ecc843c1978\core.a(timer.c.o)
                                                  C:\Users\USER\AppData\Local\arduino\cores\7bf7b0ebd1cd5824297d9ecc843c1978\core.a(vector_table.S.o)
__irq_tim4                                        C:\Users\USER\AppData\Local\arduino\cores\7bf7b0ebd1cd5824297d9ecc843c1978\core.a(timer.c.o)
                                                  C:\Users\USER\AppData\Local\arduino\cores\7bf7b0ebd1cd5824297d9ecc843c1978\core.a(vector_table.S.o)
__irq_usart1                                      C:\Users\USER\AppData\Local\arduino\cores\7bf7b0ebd1cd5824297d9ecc843c1978\core.a(usart_f1.c.o)
                                                  C:\Users\USER\AppData\Local\arduino\cores\7bf7b0ebd1cd5824297d9ecc843c1978\core.a(vector_table.S.o)
__irq_usart2                                      C:\Users\USER\AppData\Local\arduino\cores\7bf7b0ebd1cd5824297d9ecc843c1978\core.a(usart_f1.c.o)
                                                  C:\Users\USER\AppData\Local\arduino\cores\7bf7b0ebd1cd5824297d9ecc843c1978\core.a(vector_table.S.o)
__irq_usart3                                      C:\Users\USER\AppData\Local\arduino\cores\7bf7b0ebd1cd5824297d9ecc843c1978\core.a(usart_f1.c.o)
                                                  C:\Users\USER\AppData\Local\arduino\cores\7bf7b0ebd1cd5824297d9ecc843c1978\core.a(vector_table.S.o)
__irq_usb_hp_can_tx                               C:\Users\USER\AppData\Local\arduino\cores\7bf7b0ebd1cd5824297d9ecc843c1978\core.a(isrs.S.o)
                                                  C:\Users\USER\AppData\Local\arduino\cores\7bf7b0ebd1cd5824297d9ecc843c1978\core.a(vector_table.S.o)
__irq_usb_lp_can_rx0                              C:\Users\USER\AppData\Local\arduino\cores\7bf7b0ebd1cd5824297d9ecc843c1978\core.a(usb.c.o)
                                                  C:\Users\USER\AppData\Local\arduino\cores\7bf7b0ebd1cd5824297d9ecc843c1978\core.a(vector_table.S.o)
__irq_usbwakeup                                   C:\Users\USER\AppData\Local\arduino\cores\7bf7b0ebd1cd5824297d9ecc843c1978\core.a(isrs.S.o)
                                                  C:\Users\USER\AppData\Local\arduino\cores\7bf7b0ebd1cd5824297d9ecc843c1978\core.a(vector_table.S.o)
__irq_wwdg                                        C:\Users\USER\AppData\Local\arduino\cores\7bf7b0ebd1cd5824297d9ecc843c1978\core.a(isrs.S.o)
                                                  C:\Users\USER\AppData\Local\arduino\cores\7bf7b0ebd1cd5824297d9ecc843c1978\core.a(vector_table.S.o)
__ledf2                                           c:/users/user/appdata/local/arduino15/packages/arduino/tools/arm-none-eabi-gcc/4.8.3-2014q1/bin/../lib/gcc/arm-none-eabi/4.8.3/armv7-m\libgcc.a(_arm_cmpdf2.o)
__lesf2                                           c:/users/user/appdata/local/arduino15/packages/arduino/tools/arm-none-eabi-gcc/4.8.3-2014q1/bin/../lib/gcc/arm-none-eabi/4.8.3/armv7-m\libgcc.a(_arm_cmpsf2.o)
__libc_fini_array                                 c:/users/user/appdata/local/arduino15/packages/arduino/tools/arm-none-eabi-gcc/4.8.3-2014q1/bin/../lib/gcc/arm-none-eabi/4.8.3/../../../../arm-none-eabi/lib/armv7-m/crt0.o
__libc_init_array                                 c:/users/user/appdata/local/arduino15/packages/arduino/tools/arm-none-eabi-gcc/4.8.3-2014q1/bin/../lib/gcc/arm-none-eabi/4.8.3/../../../../arm-none-eabi/lib/armv7-m\libc_s.a(lib_a-init.o)
                                                  C:\Users\USER\AppData\Local\arduino\sketches\452188ACB23955C2F3838071FEF76B93\core\wirish\start_c.c.o
                                                  c:/users/user/appdata/local/arduino15/packages/arduino/tools/arm-none-eabi-gcc/4.8.3-2014q1/bin/../lib/gcc/arm-none-eabi/4.8.3/../../../../arm-none-eabi/lib/armv7-m/crt0.o
__lm_enable_error_usart                           C:\Users\USER\AppData\Local\arduino\cores\7bf7b0ebd1cd5824297d9ecc843c1978\core.a(util.c.o)
__lm_error                                        C:\Users\USER\AppData\Local\arduino\cores\7bf7b0ebd1cd5824297d9ecc843c1978\core.a(util.c.o)
__ltdf2                                           c:/users/user/appdata/local/arduino15/packages/arduino/tools/arm-none-eabi-gcc/4.8.3-2014q1/bin/../lib/gcc/arm-none-eabi/4.8.3/armv7-m\libgcc.a(_arm_cmpdf2.o)
__ltsf2                                           c:/users/user/appdata/local/arduino15/packages/arduino/tools/arm-none-eabi-gcc/4.8.3-2014q1/bin/../lib/gcc/arm-none-eabi/4.8.3/armv7-m\libgcc.a(_arm_cmpsf2.o)
__msp_init                                        C:\Users\USER\AppData\Local\arduino\cores\7bf7b0ebd1cd5824297d9ecc843c1978\core.a(vector_table.S.o)
                                                  C:\Users\USER\AppData\Local\arduino\sketches\452188ACB23955C2F3838071FEF76B93\core\wirish\start.S.o
__muldf3                                          c:/users/user/appdata/local/arduino15/packages/arduino/tools/arm-none-eabi-gcc/4.8.3-2014q1/bin/../lib/gcc/arm-none-eabi/4.8.3/armv7-m\libgcc.a(_arm_muldivdf3.o)
__mulsf3                                          c:/users/user/appdata/local/arduino15/packages/arduino/tools/arm-none-eabi-gcc/4.8.3-2014q1/bin/../lib/gcc/arm-none-eabi/4.8.3/armv7-m\libgcc.a(_arm_muldivsf3.o)
__nedf2                                           c:/users/user/appdata/local/arduino15/packages/arduino/tools/arm-none-eabi-gcc/4.8.3-2014q1/bin/../lib/gcc/arm-none-eabi/4.8.3/armv7-m\libgcc.a(_arm_cmpdf2.o)
__nesf2                                           c:/users/user/appdata/local/arduino15/packages/arduino/tools/arm-none-eabi-gcc/4.8.3-2014q1/bin/../lib/gcc/arm-none-eabi/4.8.3/armv7-m\libgcc.a(_arm_cmpsf2.o)
__preinit_array_end                               c:/users/user/appdata/local/arduino15/packages/arduino/tools/arm-none-eabi-gcc/4.8.3-2014q1/bin/../lib/gcc/arm-none-eabi/4.8.3/../../../../arm-none-eabi/lib/armv7-m\libc_s.a(lib_a-init.o)
__preinit_array_start                             c:/users/user/appdata/local/arduino15/packages/arduino/tools/arm-none-eabi-gcc/4.8.3-2014q1/bin/../lib/gcc/arm-none-eabi/4.8.3/../../../../arm-none-eabi/lib/armv7-m\libc_s.a(lib_a-init.o)
__register_frame_info                             c:/users/user/appdata/local/arduino15/packages/arduino/tools/arm-none-eabi-gcc/4.8.3-2014q1/bin/../lib/gcc/arm-none-eabi/4.8.3/armv7-m/crtbegin.o
__sf_fake_stderr                                  c:/users/user/appdata/local/arduino15/packages/arduino/tools/arm-none-eabi-gcc/4.8.3-2014q1/bin/../lib/gcc/arm-none-eabi/4.8.3/../../../../arm-none-eabi/lib/armv7-m\libc_s.a(lib_a-impure.o)
__sf_fake_stdin                                   c:/users/user/appdata/local/arduino15/packages/arduino/tools/arm-none-eabi-gcc/4.8.3-2014q1/bin/../lib/gcc/arm-none-eabi/4.8.3/../../../../arm-none-eabi/lib/armv7-m\libc_s.a(lib_a-impure.o)
__sf_fake_stdout                                  c:/users/user/appdata/local/arduino15/packages/arduino/tools/arm-none-eabi-gcc/4.8.3-2014q1/bin/../lib/gcc/arm-none-eabi/4.8.3/../../../../arm-none-eabi/lib/armv7-m\libc_s.a(lib_a-impure.o)
__stack                                           c:/users/user/appdata/local/arduino15/packages/arduino/tools/arm-none-eabi-gcc/4.8.3-2014q1/bin/../lib/gcc/arm-none-eabi/4.8.3/../../../../arm-none-eabi/lib/armv7-m/crt0.o
__start__                                         C:\Users\USER\AppData\Local\arduino\sketches\452188ACB23955C2F3838071FEF76B93\core\wirish\start.S.o
__stm32_vector_table                              C:\Users\USER\AppData\Local\arduino\cores\7bf7b0ebd1cd5824297d9ecc843c1978\core.a(vector_table.S.o)
__stm32reservedexception10                        C:\Users\USER\AppData\Local\arduino\cores\7bf7b0ebd1cd5824297d9ecc843c1978\core.a(isrs.S.o)
                                                  C:\Users\USER\AppData\Local\arduino\cores\7bf7b0ebd1cd5824297d9ecc843c1978\core.a(vector_table.S.o)
__stm32reservedexception13                        C:\Users\USER\AppData\Local\arduino\cores\7bf7b0ebd1cd5824297d9ecc843c1978\core.a(isrs.S.o)
                                                  C:\Users\USER\AppData\Local\arduino\cores\7bf7b0ebd1cd5824297d9ecc843c1978\core.a(vector_table.S.o)
__stm32reservedexception7                         C:\Users\USER\AppData\Local\arduino\cores\7bf7b0ebd1cd5824297d9ecc843c1978\core.a(isrs.S.o)
                                                  C:\Users\USER\AppData\Local\arduino\cores\7bf7b0ebd1cd5824297d9ecc843c1978\core.a(vector_table.S.o)
__stm32reservedexception8                         C:\Users\USER\AppData\Local\arduino\cores\7bf7b0ebd1cd5824297d9ecc843c1978\core.a(isrs.S.o)
                                                  C:\Users\USER\AppData\Local\arduino\cores\7bf7b0ebd1cd5824297d9ecc843c1978\core.a(vector_table.S.o)
__stm32reservedexception9                         C:\Users\USER\AppData\Local\arduino\cores\7bf7b0ebd1cd5824297d9ecc843c1978\core.a(isrs.S.o)
                                                  C:\Users\USER\AppData\Local\arduino\cores\7bf7b0ebd1cd5824297d9ecc843c1978\core.a(vector_table.S.o)
__subdf3                                          c:/users/user/appdata/local/arduino15/packages/arduino/tools/arm-none-eabi-gcc/4.8.3-2014q1/bin/../lib/gcc/arm-none-eabi/4.8.3/armv7-m\libgcc.a(_arm_addsubdf3.o)
__subsf3                                          c:/users/user/appdata/local/arduino15/packages/arduino/tools/arm-none-eabi-gcc/4.8.3-2014q1/bin/../lib/gcc/arm-none-eabi/4.8.3/armv7-m\libgcc.a(_arm_addsubsf3.o)
__udivdi3                                         c:/users/user/appdata/local/arduino15/packages/arduino/tools/arm-none-eabi-gcc/4.8.3-2014q1/bin/../lib/gcc/arm-none-eabi/4.8.3/armv7-m\libgcc.a(_udivdi3.o)
                                                  c:/users/user/appdata/local/arduino15/packages/arduino/tools/arm-none-eabi-gcc/4.8.3-2014q1/bin/../lib/gcc/arm-none-eabi/4.8.3/armv7-m\libgcc.a(bpabi.o)
_close                                            C:\Users\USER\AppData\Local\arduino\sketches\452188ACB23955C2F3838071FEF76B93\core\wirish\syscalls.c.o
_dma_addr_type                                    C:\Users\USER\AppData\Local\arduino\cores\7bf7b0ebd1cd5824297d9ecc843c1978\core.a(dma.c.o)
                                                  C:\Users\USER\AppData\Local\arduino\cores\7bf7b0ebd1cd5824297d9ecc843c1978\core.a(dma_f1.c.o)
_exit                                             C:\Users\USER\AppData\Local\arduino\sketches\452188ACB23955C2F3838071FEF76B93\core\wirish\syscalls.c.o
                                                  c:/users/user/appdata/local/arduino15/packages/arduino/tools/arm-none-eabi-gcc/4.8.3-2014q1/bin/../lib/gcc/arm-none-eabi/4.8.3/../../../../arm-none-eabi/lib/armv7-m\libc_s.a(lib_a-exit.o)
_fail                                             C:\Users\USER\AppData\Local\arduino\cores\7bf7b0ebd1cd5824297d9ecc843c1978\core.a(util.c.o)
_fini                                             c:/users/user/appdata/local/arduino15/packages/arduino/tools/arm-none-eabi-gcc/4.8.3-2014q1/bin/../lib/gcc/arm-none-eabi/4.8.3/armv7-m/crti.o
_fstat                                            C:\Users\USER\AppData\Local\arduino\sketches\452188ACB23955C2F3838071FEF76B93\core\wirish\syscalls.c.o
_global_impure_ptr                                c:/users/user/appdata/local/arduino15/packages/arduino/tools/arm-none-eabi-gcc/4.8.3-2014q1/bin/../lib/gcc/arm-none-eabi/4.8.3/../../../../arm-none-eabi/lib/armv7-m\libc_s.a(lib_a-impure.o)
                                                  c:/users/user/appdata/local/arduino15/packages/arduino/tools/arm-none-eabi-gcc/4.8.3-2014q1/bin/../lib/gcc/arm-none-eabi/4.8.3/../../../../arm-none-eabi/lib/armv7-m\libc_s.a(lib_a-exit.o)
_i2c_irq_error_handler                            C:\Users\USER\AppData\Local\arduino\cores\7bf7b0ebd1cd5824297d9ecc843c1978\core.a(i2c.c.o)
                                                  C:\Users\USER\AppData\Local\arduino\cores\7bf7b0ebd1cd5824297d9ecc843c1978\core.a(i2c_f1.c.o)
_i2c_irq_handler                                  C:\Users\USER\AppData\Local\arduino\cores\7bf7b0ebd1cd5824297d9ecc843c1978\core.a(i2c.c.o)
                                                  C:\Users\USER\AppData\Local\arduino\cores\7bf7b0ebd1cd5824297d9ecc843c1978\core.a(i2c_f1.c.o)
_i2c_irq_priority_fixup                           C:\Users\USER\AppData\Local\arduino\cores\7bf7b0ebd1cd5824297d9ecc843c1978\core.a(i2c_f1.c.o)
                                                  C:\Users\USER\AppData\Local\arduino\cores\7bf7b0ebd1cd5824297d9ecc843c1978\core.a(i2c.c.o)
_impure_ptr                                       c:/users/user/appdata/local/arduino15/packages/arduino/tools/arm-none-eabi-gcc/4.8.3-2014q1/bin/../lib/gcc/arm-none-eabi/4.8.3/../../../../arm-none-eabi/lib/armv7-m\libc_s.a(lib_a-impure.o)
                                                  c:/users/user/appdata/local/arduino15/packages/arduino/tools/arm-none-eabi-gcc/4.8.3-2014q1/bin/../lib/gcc/arm-none-eabi/4.8.3/../../../../arm-none-eabi/lib/armv7-m\libc_s.a(lib_a-errno.o)
_init                                             c:/users/user/appdata/local/arduino15/packages/arduino/tools/arm-none-eabi-gcc/4.8.3-2014q1/bin/../lib/gcc/arm-none-eabi/4.8.3/armv7-m/crti.o
                                                  c:/users/user/appdata/local/arduino15/packages/arduino/tools/arm-none-eabi-gcc/4.8.3-2014q1/bin/../lib/gcc/arm-none-eabi/4.8.3/../../../../arm-none-eabi/lib/armv7-m\libc_s.a(lib_a-init.o)
_isatty                                           C:\Users\USER\AppData\Local\arduino\sketches\452188ACB23955C2F3838071FEF76B93\core\wirish\syscalls.c.o
_lm_heap_end                                      C:\Users\USER\AppData\Local\arduino\sketches\452188ACB23955C2F3838071FEF76B93\core\wirish\syscalls.c.o
_lm_heap_start                                    C:\Users\USER\AppData\Local\arduino\sketches\452188ACB23955C2F3838071FEF76B93\core\wirish\syscalls.c.o
_lm_rom_img_cfgp                                  C:\Users\USER\AppData\Local\arduino\sketches\452188ACB23955C2F3838071FEF76B93\core\wirish\start_c.c.o
_lseek                                            C:\Users\USER\AppData\Local\arduino\sketches\452188ACB23955C2F3838071FEF76B93\core\wirish\syscalls.c.o
_mainCRTStartup                                   c:/users/user/appdata/local/arduino15/packages/arduino/tools/arm-none-eabi-gcc/4.8.3-2014q1/bin/../lib/gcc/arm-none-eabi/4.8.3/../../../../arm-none-eabi/lib/armv7-m/crt0.o
_open                                             C:\Users\USER\AppData\Local\arduino\sketches\452188ACB23955C2F3838071FEF76B93\core\wirish\syscalls.c.o
_read                                             C:\Users\USER\AppData\Local\arduino\sketches\452188ACB23955C2F3838071FEF76B93\core\wirish\syscalls.c.o
_sbrk                                             C:\Users\USER\AppData\Local\arduino\sketches\452188ACB23955C2F3838071FEF76B93\core\wirish\syscalls.c.o
_start                                            c:/users/user/appdata/local/arduino15/packages/arduino/tools/arm-none-eabi-gcc/4.8.3-2014q1/bin/../lib/gcc/arm-none-eabi/4.8.3/../../../../arm-none-eabi/lib/armv7-m/crt0.o
_usart_clock_freq                                 C:\Users\USER\AppData\Local\arduino\cores\7bf7b0ebd1cd5824297d9ecc843c1978\core.a(usart_private.c.o)
                                                  C:\Users\USER\AppData\Local\arduino\cores\7bf7b0ebd1cd5824297d9ecc843c1978\core.a(usart_f1.c.o)
_write                                            C:\Users\USER\AppData\Local\arduino\sketches\452188ACB23955C2F3838071FEF76B93\core\wirish\syscalls.c.o
abort                                             C:\Users\USER\AppData\Local\arduino\cores\7bf7b0ebd1cd5824297d9ecc843c1978\core.a(util.c.o)
actualizarTemporizador()                          C:\Users\USER\AppData\Local\arduino\sketches\452188ACB23955C2F3838071FEF76B93\sketch\Lavadora.ino.cpp.o
adc1                                              C:\Users\USER\AppData\Local\arduino\cores\7bf7b0ebd1cd5824297d9ecc843c1978\core.a(adc_f1.c.o)
                                                  C:\Users\USER\AppData\Local\arduino\sketches\452188ACB23955C2F3838071FEF76B93\core\board.cpp.o
adc2                                              C:\Users\USER\AppData\Local\arduino\cores\7bf7b0ebd1cd5824297d9ecc843c1978\core.a(adc_f1.c.o)
adc_attach_interrupt                              C:\Users\USER\AppData\Local\arduino\cores\7bf7b0ebd1cd5824297d9ecc843c1978\core.a(adc_f1.c.o)
adc_calibrate                                     C:\Users\USER\AppData\Local\arduino\cores\7bf7b0ebd1cd5824297d9ecc843c1978\core.a(adc_f1.c.o)
adc_config_gpio                                   C:\Users\USER\AppData\Local\arduino\cores\7bf7b0ebd1cd5824297d9ecc843c1978\core.a(adc_f1.c.o)
adc_enable_irq                                    C:\Users\USER\AppData\Local\arduino\cores\7bf7b0ebd1cd5824297d9ecc843c1978\core.a(adc_f1.c.o)
adc_enable_single_swstart                         C:\Users\USER\AppData\Local\arduino\cores\7bf7b0ebd1cd5824297d9ecc843c1978\core.a(adc_f1.c.o)
                                                  C:\Users\USER\AppData\Local\arduino\sketches\452188ACB23955C2F3838071FEF76B93\core\wirish\boards.cpp.o
adc_foreach                                       C:\Users\USER\AppData\Local\arduino\cores\7bf7b0ebd1cd5824297d9ecc843c1978\core.a(adc_f1.c.o)
                                                  C:\Users\USER\AppData\Local\arduino\sketches\452188ACB23955C2F3838071FEF76B93\core\wirish\boards.cpp.o
adc_init                                          C:\Users\USER\AppData\Local\arduino\cores\7bf7b0ebd1cd5824297d9ecc843c1978\core.a(adc.c.o)
                                                  C:\Users\USER\AppData\Local\arduino\cores\7bf7b0ebd1cd5824297d9ecc843c1978\core.a(adc_f1.c.o)
adc_read                                          C:\Users\USER\AppData\Local\arduino\cores\7bf7b0ebd1cd5824297d9ecc843c1978\core.a(adc.c.o)
adc_set_extsel                                    C:\Users\USER\AppData\Local\arduino\cores\7bf7b0ebd1cd5824297d9ecc843c1978\core.a(adc.c.o)
                                                  C:\Users\USER\AppData\Local\arduino\cores\7bf7b0ebd1cd5824297d9ecc843c1978\core.a(adc_f1.c.o)
adc_set_prescaler                                 C:\Users\USER\AppData\Local\arduino\cores\7bf7b0ebd1cd5824297d9ecc843c1978\core.a(adc_f1.c.o)
                                                  C:\Users\USER\AppData\Local\arduino\sketches\452188ACB23955C2F3838071FEF76B93\core\wirish\boards.cpp.o
adc_set_sample_rate                               C:\Users\USER\AppData\Local\arduino\cores\7bf7b0ebd1cd5824297d9ecc843c1978\core.a(adc.c.o)
                                                  C:\Users\USER\AppData\Local\arduino\sketches\452188ACB23955C2F3838071FEF76B93\core\wirish\boards.cpp.o
afio_init                                         C:\Users\USER\AppData\Local\arduino\cores\7bf7b0ebd1cd5824297d9ecc843c1978\core.a(gpio_f1.c.o)
                                                  C:\Users\USER\AppData\Local\arduino\sketches\452188ACB23955C2F3838071FEF76B93\core\wirish\boards_setup.cpp.o
afio_is_remapped                                  C:\Users\USER\AppData\Local\arduino\cores\7bf7b0ebd1cd5824297d9ecc843c1978\core.a(gpio_f1.c.o)
afio_remap                                        C:\Users\USER\AppData\Local\arduino\cores\7bf7b0ebd1cd5824297d9ecc843c1978\core.a(gpio_f1.c.o)
                                                  C:\Users\USER\AppData\Local\arduino\cores\7bf7b0ebd1cd5824297d9ecc843c1978\core.a(i2c.c.o)
                                                  C:\Users\USER\AppData\Local\arduino\cores\7bf7b0ebd1cd5824297d9ecc843c1978\core.a(i2c_f1.c.o)
                                                  C:\Users\USER\AppData\Local\arduino\sketches\452188ACB23955C2F3838071FEF76B93\core\board.cpp.o
ajustarTiempo()                                   C:\Users\USER\AppData\Local\arduino\sketches\452188ACB23955C2F3838071FEF76B93\sketch\Lavadora.ino.cpp.o
apagarTodo()                                      C:\Users\USER\AppData\Local\arduino\sketches\452188ACB23955C2F3838071FEF76B93\sketch\Lavadora.ino.cpp.o
atexit                                            c:/users/user/appdata/local/arduino15/packages/arduino/tools/arm-none-eabi-gcc/4.8.3-2014q1/bin/../lib/gcc/arm-none-eabi/4.8.3/../../../../arm-none-eabi/lib/armv7-m/crt0.o
boardADCPins                                      C:\Users\USER\AppData\Local\arduino\sketches\452188ACB23955C2F3838071FEF76B93\core\board.cpp.o
boardInit()                                       C:\Users\USER\AppData\Local\arduino\sketches\452188ACB23955C2F3838071FEF76B93\core\board.cpp.o
boardPWMPins                                      C:\Users\USER\AppData\Local\arduino\sketches\452188ACB23955C2F3838071FEF76B93\core\board.cpp.o
boardUsedPins                                     C:\Users\USER\AppData\Local\arduino\sketches\452188ACB23955C2F3838071FEF76B93\core\wirish\boards.cpp.o
boardUsesPin(unsigned char)                       C:\Users\USER\AppData\Local\arduino\sketches\452188ACB23955C2F3838071FEF76B93\core\wirish\boards.cpp.o
cambiarTemperatura()                              C:\Users\USER\AppData\Local\arduino\sketches\452188ACB23955C2F3838071FEF76B93\sketch\Lavadora.ino.cpp.o
cantidadSeleccionada                              C:\Users\USER\AppData\Local\arduino\sketches\452188ACB23955C2F3838071FEF76B93\sketch\Lavadora.ino.cpp.o
centrifugadoSeleccionado                          C:\Users\USER\AppData\Local\arduino\sketches\452188ACB23955C2F3838071FEF76B93\sketch\Lavadora.ino.cpp.o
cgets                                             C:\Users\USER\AppData\Local\arduino\sketches\452188ACB23955C2F3838071FEF76B93\core\wirish\syscalls.c.o
configurarCantidadRopa(int)                       C:\Users\USER\AppData\Local\arduino\sketches\452188ACB23955C2F3838071FEF76B93\sketch\Lavadora.ino.cpp.o
configurarCentrifugado(int)                       C:\Users\USER\AppData\Local\arduino\sketches\452188ACB23955C2F3838071FEF76B93\sketch\Lavadora.ino.cpp.o
configurarEnjuague(int)                           C:\Users\USER\AppData\Local\arduino\sketches\452188ACB23955C2F3838071FEF76B93\sketch\Lavadora.ino.cpp.o
configurarNivelAgua(int)                          C:\Users\USER\AppData\Local\arduino\sketches\452188ACB23955C2F3838071FEF76B93\sketch\Lavadora.ino.cpp.o
configurarNivelLavado(int)                        C:\Users\USER\AppData\Local\arduino\sketches\452188ACB23955C2F3838071FEF76B93\sketch\Lavadora.ino.cpp.o
configurarTipoLavado(int)                         C:\Users\USER\AppData\Local\arduino\sketches\452188ACB23955C2F3838071FEF76B93\sketch\Lavadora.ino.cpp.o
contadorAgua                                      C:\Users\USER\AppData\Local\arduino\sketches\452188ACB23955C2F3838071FEF76B93\sketch\Lavadora.ino.cpp.o
contadorCentrifugado                              C:\Users\USER\AppData\Local\arduino\sketches\452188ACB23955C2F3838071FEF76B93\sketch\Lavadora.ino.cpp.o
contadorEnjuague                                  C:\Users\USER\AppData\Local\arduino\sketches\452188ACB23955C2F3838071FEF76B93\sketch\Lavadora.ino.cpp.o
contadorLavado                                    C:\Users\USER\AppData\Local\arduino\sketches\452188ACB23955C2F3838071FEF76B93\sketch\Lavadora.ino.cpp.o
debounce(int, bool&, unsigned long&)              C:\Users\USER\AppData\Local\arduino\sketches\452188ACB23955C2F3838071FEF76B93\sketch\Lavadora.ino.cpp.o
delay                                             C:\Users\USER\AppData\Local\arduino\cores\7bf7b0ebd1cd5824297d9ecc843c1978\core.a(wirish_time.cpp.o)
delayMicroseconds                                 C:\Users\USER\AppData\Local\arduino\cores\7bf7b0ebd1cd5824297d9ecc843c1978\core.a(wirish_time.cpp.o)
                                                  C:\Users\USER\AppData\Local\arduino\sketches\452188ACB23955C2F3838071FEF76B93\sketch\SevSeg.cpp.o
digitalRead(unsigned char)                        C:\Users\USER\AppData\Local\arduino\cores\7bf7b0ebd1cd5824297d9ecc843c1978\core.a(wirish_digital.cpp.o)
                                                  C:\Users\USER\AppData\Local\arduino\sketches\452188ACB23955C2F3838071FEF76B93\sketch\Lavadora.ino.cpp.o
digitalWrite(unsigned char, unsigned char)        C:\Users\USER\AppData\Local\arduino\cores\7bf7b0ebd1cd5824297d9ecc843c1978\core.a(wirish_digital.cpp.o)
                                                  C:\Users\USER\AppData\Local\arduino\sketches\452188ACB23955C2F3838071FEF76B93\sketch\SevSeg.cpp.o
                                                  C:\Users\USER\AppData\Local\arduino\sketches\452188ACB23955C2F3838071FEF76B93\sketch\Lavadora.ino.cpp.o
dispatch_extis                                    C:\Users\USER\AppData\Local\arduino\cores\7bf7b0ebd1cd5824297d9ecc843c1978\core.a(exti.c.o)
dispatch_single_exti                              C:\Users\USER\AppData\Local\arduino\cores\7bf7b0ebd1cd5824297d9ecc843c1978\core.a(exti.c.o)
dma2Ch4_5                                         C:\Users\USER\AppData\Local\arduino\cores\7bf7b0ebd1cd5824297d9ecc843c1978\core.a(dma_f1.c.o)
dma_attach_interrupt                              C:\Users\USER\AppData\Local\arduino\cores\7bf7b0ebd1cd5824297d9ecc843c1978\core.a(dma_f1.c.o)
dma_detach_interrupt                              C:\Users\USER\AppData\Local\arduino\cores\7bf7b0ebd1cd5824297d9ecc843c1978\core.a(dma_f1.c.o)
dma_disable                                       C:\Users\USER\AppData\Local\arduino\cores\7bf7b0ebd1cd5824297d9ecc843c1978\core.a(dma_f1.c.o)
dma_enable                                        C:\Users\USER\AppData\Local\arduino\cores\7bf7b0ebd1cd5824297d9ecc843c1978\core.a(dma_f1.c.o)
dma_get_irq_cause                                 C:\Users\USER\AppData\Local\arduino\cores\7bf7b0ebd1cd5824297d9ecc843c1978\core.a(dma_f1.c.o)
dma_init                                          C:\Users\USER\AppData\Local\arduino\cores\7bf7b0ebd1cd5824297d9ecc843c1978\core.a(dma.c.o)
dma_set_mem_addr                                  C:\Users\USER\AppData\Local\arduino\cores\7bf7b0ebd1cd5824297d9ecc843c1978\core.a(dma_f1.c.o)
dma_set_num_transfers                             C:\Users\USER\AppData\Local\arduino\cores\7bf7b0ebd1cd5824297d9ecc843c1978\core.a(dma_f1.c.o)
dma_set_per_addr                                  C:\Users\USER\AppData\Local\arduino\cores\7bf7b0ebd1cd5824297d9ecc843c1978\core.a(dma_f1.c.o)
dma_set_priority                                  C:\Users\USER\AppData\Local\arduino\cores\7bf7b0ebd1cd5824297d9ecc843c1978\core.a(dma_f1.c.o)
dma_setup_transfer                                C:\Users\USER\AppData\Local\arduino\cores\7bf7b0ebd1cd5824297d9ecc843c1978\core.a(dma_f1.c.o)
dma_tube_cfg                                      C:\Users\USER\AppData\Local\arduino\cores\7bf7b0ebd1cd5824297d9ecc843c1978\core.a(dma_f1.c.o)
enMarcha                                          C:\Users\USER\AppData\Local\arduino\sketches\452188ACB23955C2F3838071FEF76B93\sketch\Lavadora.ino.cpp.o
enjuagueSeleccionado                              C:\Users\USER\AppData\Local\arduino\sketches\452188ACB23955C2F3838071FEF76B93\sketch\Lavadora.ino.cpp.o
exit                                              c:/users/user/appdata/local/arduino15/packages/arduino/tools/arm-none-eabi-gcc/4.8.3-2014q1/bin/../lib/gcc/arm-none-eabi/4.8.3/../../../../arm-none-eabi/lib/armv7-m\libc_s.a(lib_a-exit.o)
                                                  C:\Users\USER\AppData\Local\arduino\sketches\452188ACB23955C2F3838071FEF76B93\core\wirish\start_c.c.o
                                                  c:/users/user/appdata/local/arduino15/packages/arduino/tools/arm-none-eabi-gcc/4.8.3-2014q1/bin/../lib/gcc/arm-none-eabi/4.8.3/../../../../arm-none-eabi/lib/armv7-m/crt0.o
exti_attach_callback                              C:\Users\USER\AppData\Local\arduino\cores\7bf7b0ebd1cd5824297d9ecc843c1978\core.a(exti.c.o)
exti_attach_interrupt                             C:\Users\USER\AppData\Local\arduino\cores\7bf7b0ebd1cd5824297d9ecc843c1978\core.a(exti.c.o)
exti_channels                                     C:\Users\USER\AppData\Local\arduino\cores\7bf7b0ebd1cd5824297d9ecc843c1978\core.a(exti.c.o)
exti_detach_interrupt                             C:\Users\USER\AppData\Local\arduino\cores\7bf7b0ebd1cd5824297d9ecc843c1978\core.a(exti.c.o)
exti_do_select                                    C:\Users\USER\AppData\Local\arduino\cores\7bf7b0ebd1cd5824297d9ecc843c1978\core.a(exti.c.o)
                                                  C:\Users\USER\AppData\Local\arduino\cores\7bf7b0ebd1cd5824297d9ecc843c1978\core.a(exti_f1.c.o)
exti_select                                       C:\Users\USER\AppData\Local\arduino\cores\7bf7b0ebd1cd5824297d9ecc843c1978\core.a(exti_f1.c.o)
                                                  C:\Users\USER\AppData\Local\arduino\cores\7bf7b0ebd1cd5824297d9ecc843c1978\core.a(exti.c.o)
fgets                                             C:\Users\USER\AppData\Local\arduino\sketches\452188ACB23955C2F3838071FEF76B93\core\wirish\syscalls.c.o
flash_set_latency                                 C:\Users\USER\AppData\Local\arduino\cores\7bf7b0ebd1cd5824297d9ecc843c1978\core.a(flash.c.o)
                                                  C:\Users\USER\AppData\Local\arduino\sketches\452188ACB23955C2F3838071FEF76B93\core\wirish\boards.cpp.o
get_direction                                     C:\Users\USER\AppData\Local\arduino\cores\7bf7b0ebd1cd5824297d9ecc843c1978\core.a(timer.c.o)
getch                                             C:\Users\USER\AppData\Local\arduino\sketches\452188ACB23955C2F3838071FEF76B93\core\wirish\syscalls.c.o
gpio_get_mode                                     C:\Users\USER\AppData\Local\arduino\cores\7bf7b0ebd1cd5824297d9ecc843c1978\core.a(gpio_f1.c.o)
gpio_init                                         C:\Users\USER\AppData\Local\arduino\cores\7bf7b0ebd1cd5824297d9ecc843c1978\core.a(gpio.c.o)
                                                  C:\Users\USER\AppData\Local\arduino\cores\7bf7b0ebd1cd5824297d9ecc843c1978\core.a(gpio_f1.c.o)
gpio_init_all                                     C:\Users\USER\AppData\Local\arduino\cores\7bf7b0ebd1cd5824297d9ecc843c1978\core.a(gpio_f1.c.o)
                                                  C:\Users\USER\AppData\Local\arduino\sketches\452188ACB23955C2F3838071FEF76B93\core\wirish\boards_setup.cpp.o
gpio_set_mode                                     C:\Users\USER\AppData\Local\arduino\cores\7bf7b0ebd1cd5824297d9ecc843c1978\core.a(gpio_f1.c.o)
                                                  C:\Users\USER\AppData\Local\arduino\cores\7bf7b0ebd1cd5824297d9ecc843c1978\core.a(wirish_digital_f1.cpp.o)
                                                  C:\Users\USER\AppData\Local\arduino\cores\7bf7b0ebd1cd5824297d9ecc843c1978\core.a(util.c.o)
                                                  C:\Users\USER\AppData\Local\arduino\cores\7bf7b0ebd1cd5824297d9ecc843c1978\core.a(usb_cdcacm.c.o)
                                                  C:\Users\USER\AppData\Local\arduino\cores\7bf7b0ebd1cd5824297d9ecc843c1978\core.a(usart_f1.c.o)
                                                  C:\Users\USER\AppData\Local\arduino\cores\7bf7b0ebd1cd5824297d9ecc843c1978\core.a(i2c_f1.c.o)
                                                  C:\Users\USER\AppData\Local\arduino\cores\7bf7b0ebd1cd5824297d9ecc843c1978\core.a(adc_f1.c.o)
gpioa                                             C:\Users\USER\AppData\Local\arduino\cores\7bf7b0ebd1cd5824297d9ecc843c1978\core.a(gpio_f1.c.o)
                                                  C:\Users\USER\AppData\Local\arduino\sketches\452188ACB23955C2F3838071FEF76B93\core\board.cpp.o
gpiob                                             C:\Users\USER\AppData\Local\arduino\cores\7bf7b0ebd1cd5824297d9ecc843c1978\core.a(gpio_f1.c.o)
                                                  C:\Users\USER\AppData\Local\arduino\cores\7bf7b0ebd1cd5824297d9ecc843c1978\core.a(i2c_f1.c.o)
                                                  C:\Users\USER\AppData\Local\arduino\sketches\452188ACB23955C2F3838071FEF76B93\core\board.cpp.o
gpioc                                             C:\Users\USER\AppData\Local\arduino\cores\7bf7b0ebd1cd5824297d9ecc843c1978\core.a(gpio_f1.c.o)
                                                  C:\Users\USER\AppData\Local\arduino\sketches\452188ACB23955C2F3838071FEF76B93\core\board.cpp.o
gpiod                                             C:\Users\USER\AppData\Local\arduino\cores\7bf7b0ebd1cd5824297d9ecc843c1978\core.a(gpio_f1.c.o)
                                                  C:\Users\USER\AppData\Local\arduino\sketches\452188ACB23955C2F3838071FEF76B93\core\board.cpp.o
hardware_init_hook                                c:/users/user/appdata/local/arduino15/packages/arduino/tools/arm-none-eabi-gcc/4.8.3-2014q1/bin/../lib/gcc/arm-none-eabi/4.8.3/../../../../arm-none-eabi/lib/armv7-m/crt0.o
horas                                             C:\Users\USER\AppData\Local\arduino\sketches\452188ACB23955C2F3838071FEF76B93\sketch\Lavadora.ino.cpp.o
i2c_bus_reset                                     C:\Users\USER\AppData\Local\arduino\cores\7bf7b0ebd1cd5824297d9ecc843c1978\core.a(i2c.c.o)
i2c_config_gpios                                  C:\Users\USER\AppData\Local\arduino\cores\7bf7b0ebd1cd5824297d9ecc843c1978\core.a(i2c_f1.c.o)
                                                  C:\Users\USER\AppData\Local\arduino\cores\7bf7b0ebd1cd5824297d9ecc843c1978\core.a(i2c.c.o)
i2c_init                                          C:\Users\USER\AppData\Local\arduino\cores\7bf7b0ebd1cd5824297d9ecc843c1978\core.a(i2c.c.o)
i2c_master_enable                                 C:\Users\USER\AppData\Local\arduino\cores\7bf7b0ebd1cd5824297d9ecc843c1978\core.a(i2c.c.o)
i2c_master_release_bus                            C:\Users\USER\AppData\Local\arduino\cores\7bf7b0ebd1cd5824297d9ecc843c1978\core.a(i2c_f1.c.o)
                                                  C:\Users\USER\AppData\Local\arduino\cores\7bf7b0ebd1cd5824297d9ecc843c1978\core.a(i2c.c.o)
i2c_master_xfer                                   C:\Users\USER\AppData\Local\arduino\cores\7bf7b0ebd1cd5824297d9ecc843c1978\core.a(i2c.c.o)
i2c_set_ccr_trise                                 C:\Users\USER\AppData\Local\arduino\cores\7bf7b0ebd1cd5824297d9ecc843c1978\core.a(i2c.c.o)
i2c_slave_attach_recv_handler                     C:\Users\USER\AppData\Local\arduino\cores\7bf7b0ebd1cd5824297d9ecc843c1978\core.a(i2c.c.o)
i2c_slave_attach_transmit_handler                 C:\Users\USER\AppData\Local\arduino\cores\7bf7b0ebd1cd5824297d9ecc843c1978\core.a(i2c.c.o)
i2c_slave_enable                                  C:\Users\USER\AppData\Local\arduino\cores\7bf7b0ebd1cd5824297d9ecc843c1978\core.a(i2c.c.o)
init()                                            C:\Users\USER\AppData\Local\arduino\sketches\452188ACB23955C2F3838071FEF76B93\core\wirish\boards.cpp.o
                                                  C:\Users\USER\AppData\Local\arduino\cores\7bf7b0ebd1cd5824297d9ecc843c1978\core.a(main.cpp.o)
input_capture_mode                                C:\Users\USER\AppData\Local\arduino\cores\7bf7b0ebd1cd5824297d9ecc843c1978\core.a(timer.c.o)
isatty                                            C:\Users\USER\AppData\Local\arduino\sketches\452188ACB23955C2F3838071FEF76B93\core\wirish\syscalls.c.o
lastDebounceTimeCentrifugado                      C:\Users\USER\AppData\Local\arduino\sketches\452188ACB23955C2F3838071FEF76B93\sketch\Lavadora.ino.cpp.o
lastDebounceTimeEnjuague                          C:\Users\USER\AppData\Local\arduino\sketches\452188ACB23955C2F3838071FEF76B93\sketch\Lavadora.ino.cpp.o
lastDebounceTimeLavado                            C:\Users\USER\AppData\Local\arduino\sketches\452188ACB23955C2F3838071FEF76B93\sketch\Lavadora.ino.cpp.o
lastDebounceTimeNivelAgua                         C:\Users\USER\AppData\Local\arduino\sketches\452188ACB23955C2F3838071FEF76B93\sketch\Lavadora.ino.cpp.o
lastUpdateTime                                    C:\Users\USER\AppData\Local\arduino\sketches\452188ACB23955C2F3838071FEF76B93\sketch\Lavadora.ino.cpp.o
loop()                                            C:\Users\USER\AppData\Local\arduino\sketches\452188ACB23955C2F3838071FEF76B93\sketch\Lavadora.ino.cpp.o
                                                  C:\Users\USER\AppData\Local\arduino\cores\7bf7b0ebd1cd5824297d9ecc843c1978\core.a(main.cpp.o)
main                                              C:\Users\USER\AppData\Local\arduino\cores\7bf7b0ebd1cd5824297d9ecc843c1978\core.a(main.cpp.o)
                                                  C:\Users\USER\AppData\Local\arduino\sketches\452188ACB23955C2F3838071FEF76B93\core\wirish\start_c.c.o
                                                  c:/users/user/appdata/local/arduino15/packages/arduino/tools/arm-none-eabi-gcc/4.8.3-2014q1/bin/../lib/gcc/arm-none-eabi/4.8.3/../../../../arm-none-eabi/lib/armv7-m/crt0.o
manejarBotonEncender()                            C:\Users\USER\AppData\Local\arduino\sketches\452188ACB23955C2F3838071FEF76B93\sketch\Lavadora.ino.cpp.o
manejarBotones()                                  C:\Users\USER\AppData\Local\arduino\sketches\452188ACB23955C2F3838071FEF76B93\sketch\Lavadora.ino.cpp.o
memcpy                                            c:/users/user/appdata/local/arduino15/packages/arduino/tools/arm-none-eabi-gcc/4.8.3-2014q1/bin/../lib/gcc/arm-none-eabi/4.8.3/../../../../arm-none-eabi/lib/armv7-m\libc_s.a(lib_a-memcpy-stub.o)
                                                  C:\Users\USER\AppData\Local\arduino\sketches\452188ACB23955C2F3838071FEF76B93\sketch\Lavadora.ino.cpp.o
memset                                            c:/users/user/appdata/local/arduino15/packages/arduino/tools/arm-none-eabi-gcc/4.8.3-2014q1/bin/../lib/gcc/arm-none-eabi/4.8.3/../../../../arm-none-eabi/lib/armv7-m\libc_s.a(lib_a-memset.o)
                                                  c:/users/user/appdata/local/arduino15/packages/arduino/tools/arm-none-eabi-gcc/4.8.3-2014q1/bin/../lib/gcc/arm-none-eabi/4.8.3/../../../../arm-none-eabi/lib/armv7-m/crt0.o
minutos                                           C:\Users\USER\AppData\Local\arduino\sketches\452188ACB23955C2F3838071FEF76B93\sketch\Lavadora.ino.cpp.o
mostrarTiempo()                                   C:\Users\USER\AppData\Local\arduino\sketches\452188ACB23955C2F3838071FEF76B93\sketch\Lavadora.ino.cpp.o
nivelAguaSeleccionado                             C:\Users\USER\AppData\Local\arduino\sketches\452188ACB23955C2F3838071FEF76B93\sketch\Lavadora.ino.cpp.o
nvic_init                                         C:\Users\USER\AppData\Local\arduino\cores\7bf7b0ebd1cd5824297d9ecc843c1978\core.a(nvic.c.o)
                                                  C:\Users\USER\AppData\Local\arduino\sketches\452188ACB23955C2F3838071FEF76B93\core\wirish\boards.cpp.o
nvic_irq_set_priority                             C:\Users\USER\AppData\Local\arduino\cores\7bf7b0ebd1cd5824297d9ecc843c1978\core.a(nvic.c.o)
                                                  C:\Users\USER\AppData\Local\arduino\cores\7bf7b0ebd1cd5824297d9ecc843c1978\core.a(i2c_f1.c.o)
nvic_set_vector_table                             C:\Users\USER\AppData\Local\arduino\cores\7bf7b0ebd1cd5824297d9ecc843c1978\core.a(nvic.c.o)
nvic_sys_reset                                    C:\Users\USER\AppData\Local\arduino\cores\7bf7b0ebd1cd5824297d9ecc843c1978\core.a(nvic.c.o)
pInformation                                      C:\Users\USER\AppData\Local\arduino\cores\7bf7b0ebd1cd5824297d9ecc843c1978\core.a(usb_init.c.o)
                                                  C:\Users\USER\AppData\Local\arduino\cores\7bf7b0ebd1cd5824297d9ecc843c1978\core.a(usb_core.c.o)
                                                  C:\Users\USER\AppData\Local\arduino\cores\7bf7b0ebd1cd5824297d9ecc843c1978\core.a(usb_cdcacm.c.o)
                                                  C:\Users\USER\AppData\Local\arduino\cores\7bf7b0ebd1cd5824297d9ecc843c1978\core.a(usb.c.o)
pProperty                                         C:\Users\USER\AppData\Local\arduino\cores\7bf7b0ebd1cd5824297d9ecc843c1978\core.a(usb_init.c.o)
                                                  C:\Users\USER\AppData\Local\arduino\cores\7bf7b0ebd1cd5824297d9ecc843c1978\core.a(usb_core.c.o)
                                                  C:\Users\USER\AppData\Local\arduino\cores\7bf7b0ebd1cd5824297d9ecc843c1978\core.a(usb_cdcacm.c.o)
                                                  C:\Users\USER\AppData\Local\arduino\cores\7bf7b0ebd1cd5824297d9ecc843c1978\core.a(usb.c.o)
pUser_Standard_Requests                           C:\Users\USER\AppData\Local\arduino\cores\7bf7b0ebd1cd5824297d9ecc843c1978\core.a(usb_init.c.o)
                                                  C:\Users\USER\AppData\Local\arduino\cores\7bf7b0ebd1cd5824297d9ecc843c1978\core.a(usb_core.c.o)
                                                  C:\Users\USER\AppData\Local\arduino\cores\7bf7b0ebd1cd5824297d9ecc843c1978\core.a(usb.c.o)
pinMode(unsigned char, WiringPinMode)             C:\Users\USER\AppData\Local\arduino\cores\7bf7b0ebd1cd5824297d9ecc843c1978\core.a(wirish_digital_f1.cpp.o)
                                                  C:\Users\USER\AppData\Local\arduino\sketches\452188ACB23955C2F3838071FEF76B93\sketch\SevSeg.cpp.o
                                                  C:\Users\USER\AppData\Local\arduino\sketches\452188ACB23955C2F3838071FEF76B93\sketch\Lavadora.ino.cpp.o
premain()                                         C:\Users\USER\AppData\Local\arduino\cores\7bf7b0ebd1cd5824297d9ecc843c1978\core.a(main.cpp.o)
prevEstadoCentrifugado                            C:\Users\USER\AppData\Local\arduino\sketches\452188ACB23955C2F3838071FEF76B93\sketch\Lavadora.ino.cpp.o
prevEstadoEncender                                C:\Users\USER\AppData\Local\arduino\sketches\452188ACB23955C2F3838071FEF76B93\sketch\Lavadora.ino.cpp.o
prevEstadoEnjuague                                C:\Users\USER\AppData\Local\arduino\sketches\452188ACB23955C2F3838071FEF76B93\sketch\Lavadora.ino.cpp.o
prevEstadoIniciar                                 C:\Users\USER\AppData\Local\arduino\sketches\452188ACB23955C2F3838071FEF76B93\sketch\Lavadora.ino.cpp.o
prevEstadoLavado                                  C:\Users\USER\AppData\Local\arduino\sketches\452188ACB23955C2F3838071FEF76B93\sketch\Lavadora.ino.cpp.o
prevEstadoNivelAgua                               C:\Users\USER\AppData\Local\arduino\sketches\452188ACB23955C2F3838071FEF76B93\sketch\Lavadora.ino.cpp.o
prevEstadoRopa                                    C:\Users\USER\AppData\Local\arduino\sketches\452188ACB23955C2F3838071FEF76B93\sketch\Lavadora.ino.cpp.o
prevEstadoTemperatura                             C:\Users\USER\AppData\Local\arduino\sketches\452188ACB23955C2F3838071FEF76B93\sketch\Lavadora.ino.cpp.o
prevEstadoTipoLavado                              C:\Users\USER\AppData\Local\arduino\sketches\452188ACB23955C2F3838071FEF76B93\sketch\Lavadora.ino.cpp.o
putch                                             C:\Users\USER\AppData\Local\arduino\sketches\452188ACB23955C2F3838071FEF76B93\core\wirish\syscalls.c.o
rcc_clk_disable                                   C:\Users\USER\AppData\Local\arduino\cores\7bf7b0ebd1cd5824297d9ecc843c1978\core.a(rcc_f1.c.o)
                                                  C:\Users\USER\AppData\Local\arduino\sketches\452188ACB23955C2F3838071FEF76B93\core\wirish\boards_setup.cpp.o
rcc_clk_enable                                    C:\Users\USER\AppData\Local\arduino\cores\7bf7b0ebd1cd5824297d9ecc843c1978\core.a(rcc_f1.c.o)
                                                  C:\Users\USER\AppData\Local\arduino\cores\7bf7b0ebd1cd5824297d9ecc843c1978\core.a(i2c.c.o)
                                                  C:\Users\USER\AppData\Local\arduino\cores\7bf7b0ebd1cd5824297d9ecc843c1978\core.a(gpio.c.o)
                                                  C:\Users\USER\AppData\Local\arduino\cores\7bf7b0ebd1cd5824297d9ecc843c1978\core.a(dma.c.o)
                                                  C:\Users\USER\AppData\Local\arduino\cores\7bf7b0ebd1cd5824297d9ecc843c1978\core.a(usb.c.o)
                                                  C:\Users\USER\AppData\Local\arduino\cores\7bf7b0ebd1cd5824297d9ecc843c1978\core.a(usart.c.o)
                                                  C:\Users\USER\AppData\Local\arduino\cores\7bf7b0ebd1cd5824297d9ecc843c1978\core.a(timer.c.o)
                                                  C:\Users\USER\AppData\Local\arduino\cores\7bf7b0ebd1cd5824297d9ecc843c1978\core.a(gpio_f1.c.o)
                                                  C:\Users\USER\AppData\Local\arduino\cores\7bf7b0ebd1cd5824297d9ecc843c1978\core.a(adc.c.o)
rcc_clk_init                                      C:\Users\USER\AppData\Local\arduino\cores\7bf7b0ebd1cd5824297d9ecc843c1978\core.a(rcc_f1.c.o)
rcc_configure_pll                                 C:\Users\USER\AppData\Local\arduino\cores\7bf7b0ebd1cd5824297d9ecc843c1978\core.a(rcc_f1.c.o)
                                                  C:\Users\USER\AppData\Local\arduino\sketches\452188ACB23955C2F3838071FEF76B93\core\wirish\boards.cpp.o
rcc_dev_clk                                       C:\Users\USER\AppData\Local\arduino\cores\7bf7b0ebd1cd5824297d9ecc843c1978\core.a(rcc.c.o)
                                                  C:\Users\USER\AppData\Local\arduino\cores\7bf7b0ebd1cd5824297d9ecc843c1978\core.a(usart_private.c.o)
                                                  C:\Users\USER\AppData\Local\arduino\cores\7bf7b0ebd1cd5824297d9ecc843c1978\core.a(rcc_f1.c.o)
rcc_dev_table                                     C:\Users\USER\AppData\Local\arduino\cores\7bf7b0ebd1cd5824297d9ecc843c1978\core.a(rcc_f1.c.o)
                                                  C:\Users\USER\AppData\Local\arduino\cores\7bf7b0ebd1cd5824297d9ecc843c1978\core.a(rcc.c.o)
rcc_is_clk_on                                     C:\Users\USER\AppData\Local\arduino\cores\7bf7b0ebd1cd5824297d9ecc843c1978\core.a(rcc.c.o)
rcc_is_clk_ready                                  C:\Users\USER\AppData\Local\arduino\cores\7bf7b0ebd1cd5824297d9ecc843c1978\core.a(rcc.c.o)
                                                  C:\Users\USER\AppData\Local\arduino\cores\7bf7b0ebd1cd5824297d9ecc843c1978\core.a(rcc_f1.c.o)
                                                  C:\Users\USER\AppData\Local\arduino\sketches\452188ACB23955C2F3838071FEF76B93\core\wirish\boards.cpp.o
rcc_reset_dev                                     C:\Users\USER\AppData\Local\arduino\cores\7bf7b0ebd1cd5824297d9ecc843c1978\core.a(rcc_f1.c.o)
                                                  C:\Users\USER\AppData\Local\arduino\cores\7bf7b0ebd1cd5824297d9ecc843c1978\core.a(i2c.c.o)
                                                  C:\Users\USER\AppData\Local\arduino\cores\7bf7b0ebd1cd5824297d9ecc843c1978\core.a(gpio.c.o)
                                                  C:\Users\USER\AppData\Local\arduino\cores\7bf7b0ebd1cd5824297d9ecc843c1978\core.a(timer.c.o)
                                                  C:\Users\USER\AppData\Local\arduino\cores\7bf7b0ebd1cd5824297d9ecc843c1978\core.a(gpio_f1.c.o)
                                                  C:\Users\USER\AppData\Local\arduino\cores\7bf7b0ebd1cd5824297d9ecc843c1978\core.a(adc.c.o)
rcc_set_prescaler                                 C:\Users\USER\AppData\Local\arduino\cores\7bf7b0ebd1cd5824297d9ecc843c1978\core.a(rcc_f1.c.o)
                                                  C:\Users\USER\AppData\Local\arduino\cores\7bf7b0ebd1cd5824297d9ecc843c1978\core.a(adc_f1.c.o)
                                                  C:\Users\USER\AppData\Local\arduino\sketches\452188ACB23955C2F3838071FEF76B93\core\wirish\boards_setup.cpp.o
rcc_switch_sysclk                                 C:\Users\USER\AppData\Local\arduino\cores\7bf7b0ebd1cd5824297d9ecc843c1978\core.a(rcc.c.o)
                                                  C:\Users\USER\AppData\Local\arduino\cores\7bf7b0ebd1cd5824297d9ecc843c1978\core.a(rcc_f1.c.o)
                                                  C:\Users\USER\AppData\Local\arduino\sketches\452188ACB23955C2F3838071FEF76B93\core\wirish\boards.cpp.o
rcc_turn_off_clk                                  C:\Users\USER\AppData\Local\arduino\cores\7bf7b0ebd1cd5824297d9ecc843c1978\core.a(rcc.c.o)
                                                  C:\Users\USER\AppData\Local\arduino\sketches\452188ACB23955C2F3838071FEF76B93\core\wirish\boards.cpp.o
rcc_turn_on_clk                                   C:\Users\USER\AppData\Local\arduino\cores\7bf7b0ebd1cd5824297d9ecc843c1978\core.a(rcc.c.o)
                                                  C:\Users\USER\AppData\Local\arduino\cores\7bf7b0ebd1cd5824297d9ecc843c1978\core.a(rcc_f1.c.o)
                                                  C:\Users\USER\AppData\Local\arduino\sketches\452188ACB23955C2F3838071FEF76B93\core\wirish\boards.cpp.o
segundos                                          C:\Users\USER\AppData\Local\arduino\sketches\452188ACB23955C2F3838071FEF76B93\sketch\Lavadora.ino.cpp.o
setup()                                           C:\Users\USER\AppData\Local\arduino\sketches\452188ACB23955C2F3838071FEF76B93\sketch\Lavadora.ino.cpp.o
                                                  C:\Users\USER\AppData\Local\arduino\cores\7bf7b0ebd1cd5824297d9ecc843c1978\core.a(main.cpp.o)
sevseg                                            C:\Users\USER\AppData\Local\arduino\sketches\452188ACB23955C2F3838071FEF76B93\sketch\Lavadora.ino.cpp.o
sistemaEncendido                                  C:\Users\USER\AppData\Local\arduino\sketches\452188ACB23955C2F3838071FEF76B93\sketch\Lavadora.ino.cpp.o
software_init_hook                                c:/users/user/appdata/local/arduino15/packages/arduino/tools/arm-none-eabi-gcc/4.8.3-2014q1/bin/../lib/gcc/arm-none-eabi/4.8.3/../../../../arm-none-eabi/lib/armv7-m/crt0.o
start_c                                           C:\Users\USER\AppData\Local\arduino\sketches\452188ACB23955C2F3838071FEF76B93\core\wirish\start_c.c.o
                                                  C:\Users\USER\AppData\Local\arduino\sketches\452188ACB23955C2F3838071FEF76B93\core\wirish\start.S.o
strcpy                                            c:/users/user/appdata/local/arduino15/packages/arduino/tools/arm-none-eabi-gcc/4.8.3-2014q1/bin/../lib/gcc/arm-none-eabi/4.8.3/../../../../arm-none-eabi/lib/armv7-m\libc_s.a(lib_a-strcpy.o)
                                                  C:\Users\USER\AppData\Local\arduino\cores\7bf7b0ebd1cd5824297d9ecc843c1978\core.a(cxxabi-compat.cpp.o)
strlen                                            c:/users/user/appdata/local/arduino15/packages/arduino/tools/arm-none-eabi-gcc/4.8.3-2014q1/bin/../lib/gcc/arm-none-eabi/4.8.3/../../../../arm-none-eabi/lib/armv7-m\libc_s.a(lib_a-strlen.o)
                                                  C:\Users\USER\AppData\Local\arduino\cores\7bf7b0ebd1cd5824297d9ecc843c1978\core.a(Print.cpp.o)
systick_attach_callback                           C:\Users\USER\AppData\Local\arduino\cores\7bf7b0ebd1cd5824297d9ecc843c1978\core.a(systick.c.o)
systick_disable                                   C:\Users\USER\AppData\Local\arduino\cores\7bf7b0ebd1cd5824297d9ecc843c1978\core.a(systick.c.o)
systick_enable                                    C:\Users\USER\AppData\Local\arduino\cores\7bf7b0ebd1cd5824297d9ecc843c1978\core.a(systick.c.o)
systick_init                                      C:\Users\USER\AppData\Local\arduino\cores\7bf7b0ebd1cd5824297d9ecc843c1978\core.a(systick.c.o)
                                                  C:\Users\USER\AppData\Local\arduino\sketches\452188ACB23955C2F3838071FEF76B93\core\wirish\boards.cpp.o
systick_uptime_millis                             C:\Users\USER\AppData\Local\arduino\cores\7bf7b0ebd1cd5824297d9ecc843c1978\core.a(i2c.c.o)
                                                  C:\Users\USER\AppData\Local\arduino\cores\7bf7b0ebd1cd5824297d9ecc843c1978\core.a(wirish_time.cpp.o)
                                                  C:\Users\USER\AppData\Local\arduino\cores\7bf7b0ebd1cd5824297d9ecc843c1978\core.a(systick.c.o)
                                                  C:\Users\USER\AppData\Local\arduino\sketches\452188ACB23955C2F3838071FEF76B93\sketch\SevSeg.cpp.o
                                                  C:\Users\USER\AppData\Local\arduino\sketches\452188ACB23955C2F3838071FEF76B93\sketch\Lavadora.ino.cpp.o
temperaturaBloqueada                              C:\Users\USER\AppData\Local\arduino\sketches\452188ACB23955C2F3838071FEF76B93\sketch\Lavadora.ino.cpp.o
temperaturaSeleccionada                           C:\Users\USER\AppData\Local\arduino\sketches\452188ACB23955C2F3838071FEF76B93\sketch\Lavadora.ino.cpp.o
throb                                             C:\Users\USER\AppData\Local\arduino\cores\7bf7b0ebd1cd5824297d9ecc843c1978\core.a(util.c.o)
tiempoLavadoSeleccionado                          C:\Users\USER\AppData\Local\arduino\sketches\452188ACB23955C2F3838071FEF76B93\sketch\Lavadora.ino.cpp.o
timer1                                            C:\Users\USER\AppData\Local\arduino\cores\7bf7b0ebd1cd5824297d9ecc843c1978\core.a(timer.c.o)
                                                  C:\Users\USER\AppData\Local\arduino\sketches\452188ACB23955C2F3838071FEF76B93\core\board.cpp.o
timer2                                            C:\Users\USER\AppData\Local\arduino\cores\7bf7b0ebd1cd5824297d9ecc843c1978\core.a(timer.c.o)
                                                  C:\Users\USER\AppData\Local\arduino\sketches\452188ACB23955C2F3838071FEF76B93\core\board.cpp.o
timer3                                            C:\Users\USER\AppData\Local\arduino\cores\7bf7b0ebd1cd5824297d9ecc843c1978\core.a(timer.c.o)
                                                  C:\Users\USER\AppData\Local\arduino\sketches\452188ACB23955C2F3838071FEF76B93\core\board.cpp.o
timer4                                            C:\Users\USER\AppData\Local\arduino\cores\7bf7b0ebd1cd5824297d9ecc843c1978\core.a(timer.c.o)
                                                  C:\Users\USER\AppData\Local\arduino\sketches\452188ACB23955C2F3838071FEF76B93\core\board.cpp.o
timer_attach_interrupt                            C:\Users\USER\AppData\Local\arduino\cores\7bf7b0ebd1cd5824297d9ecc843c1978\core.a(timer.c.o)
timer_detach_interrupt                            C:\Users\USER\AppData\Local\arduino\cores\7bf7b0ebd1cd5824297d9ecc843c1978\core.a(timer.c.o)
timer_disable                                     C:\Users\USER\AppData\Local\arduino\cores\7bf7b0ebd1cd5824297d9ecc843c1978\core.a(timer.c.o)
timer_foreach                                     C:\Users\USER\AppData\Local\arduino\cores\7bf7b0ebd1cd5824297d9ecc843c1978\core.a(timer.c.o)
                                                  C:\Users\USER\AppData\Local\arduino\sketches\452188ACB23955C2F3838071FEF76B93\core\wirish\boards.cpp.o
timer_has_cc_channel                              C:\Users\USER\AppData\Local\arduino\cores\7bf7b0ebd1cd5824297d9ecc843c1978\core.a(timer.c.o)
                                                  C:\Users\USER\AppData\Local\arduino\sketches\452188ACB23955C2F3838071FEF76B93\core\wirish\boards.cpp.o
timer_init                                        C:\Users\USER\AppData\Local\arduino\cores\7bf7b0ebd1cd5824297d9ecc843c1978\core.a(timer.c.o)
                                                  C:\Users\USER\AppData\Local\arduino\sketches\452188ACB23955C2F3838071FEF76B93\core\wirish\boards.cpp.o
timer_set_mode                                    C:\Users\USER\AppData\Local\arduino\cores\7bf7b0ebd1cd5824297d9ecc843c1978\core.a(timer.c.o)
                                                  C:\Users\USER\AppData\Local\arduino\cores\7bf7b0ebd1cd5824297d9ecc843c1978\core.a(wirish_digital_f1.cpp.o)
                                                  C:\Users\USER\AppData\Local\arduino\cores\7bf7b0ebd1cd5824297d9ecc843c1978\core.a(HardwareSerial.cpp.o)
tipoLavadoSeleccionado                            C:\Users\USER\AppData\Local\arduino\sketches\452188ACB23955C2F3838071FEF76B93\sketch\Lavadora.ino.cpp.o
usart_config_gpios_async                          C:\Users\USER\AppData\Local\arduino\cores\7bf7b0ebd1cd5824297d9ecc843c1978\core.a(usart_f1.c.o)
                                                  C:\Users\USER\AppData\Local\arduino\cores\7bf7b0ebd1cd5824297d9ecc843c1978\core.a(HardwareSerial.cpp.o)
usart_disable                                     C:\Users\USER\AppData\Local\arduino\cores\7bf7b0ebd1cd5824297d9ecc843c1978\core.a(usart.c.o)
                                                  C:\Users\USER\AppData\Local\arduino\cores\7bf7b0ebd1cd5824297d9ecc843c1978\core.a(HardwareSerial.cpp.o)
usart_enable                                      C:\Users\USER\AppData\Local\arduino\cores\7bf7b0ebd1cd5824297d9ecc843c1978\core.a(usart.c.o)
                                                  C:\Users\USER\AppData\Local\arduino\cores\7bf7b0ebd1cd5824297d9ecc843c1978\core.a(HardwareSerial.cpp.o)
usart_foreach                                     C:\Users\USER\AppData\Local\arduino\cores\7bf7b0ebd1cd5824297d9ecc843c1978\core.a(usart_f1.c.o)
usart_init                                        C:\Users\USER\AppData\Local\arduino\cores\7bf7b0ebd1cd5824297d9ecc843c1978\core.a(usart.c.o)
                                                  C:\Users\USER\AppData\Local\arduino\cores\7bf7b0ebd1cd5824297d9ecc843c1978\core.a(HardwareSerial.cpp.o)
usart_putudec                                     C:\Users\USER\AppData\Local\arduino\cores\7bf7b0ebd1cd5824297d9ecc843c1978\core.a(usart.c.o)
                                                  C:\Users\USER\AppData\Local\arduino\cores\7bf7b0ebd1cd5824297d9ecc843c1978\core.a(util.c.o)
usart_rx                                          C:\Users\USER\AppData\Local\arduino\cores\7bf7b0ebd1cd5824297d9ecc843c1978\core.a(usart.c.o)
usart_set_baud_rate                               C:\Users\USER\AppData\Local\arduino\cores\7bf7b0ebd1cd5824297d9ecc843c1978\core.a(usart_f1.c.o)
                                                  C:\Users\USER\AppData\Local\arduino\cores\7bf7b0ebd1cd5824297d9ecc843c1978\core.a(HardwareSerial.cpp.o)
usart_tx                                          C:\Users\USER\AppData\Local\arduino\cores\7bf7b0ebd1cd5824297d9ecc843c1978\core.a(usart.c.o)
                                                  C:\Users\USER\AppData\Local\arduino\cores\7bf7b0ebd1cd5824297d9ecc843c1978\core.a(util.c.o)
                                                  C:\Users\USER\AppData\Local\arduino\cores\7bf7b0ebd1cd5824297d9ecc843c1978\core.a(HardwareSerial.cpp.o)
usb_cdcacm_data_available                         C:\Users\USER\AppData\Local\arduino\cores\7bf7b0ebd1cd5824297d9ecc843c1978\core.a(usb_cdcacm.c.o)
usb_cdcacm_disable                                C:\Users\USER\AppData\Local\arduino\cores\7bf7b0ebd1cd5824297d9ecc843c1978\core.a(usb_cdcacm.c.o)
usb_cdcacm_enable                                 C:\Users\USER\AppData\Local\arduino\cores\7bf7b0ebd1cd5824297d9ecc843c1978\core.a(usb_cdcacm.c.o)
usb_cdcacm_get_baud                               C:\Users\USER\AppData\Local\arduino\cores\7bf7b0ebd1cd5824297d9ecc843c1978\core.a(usb_cdcacm.c.o)
usb_cdcacm_get_dtr                                C:\Users\USER\AppData\Local\arduino\cores\7bf7b0ebd1cd5824297d9ecc843c1978\core.a(usb_cdcacm.c.o)
usb_cdcacm_get_line_coding                        C:\Users\USER\AppData\Local\arduino\cores\7bf7b0ebd1cd5824297d9ecc843c1978\core.a(usb_cdcacm.c.o)
usb_cdcacm_get_n_data_bits                        C:\Users\USER\AppData\Local\arduino\cores\7bf7b0ebd1cd5824297d9ecc843c1978\core.a(usb_cdcacm.c.o)
usb_cdcacm_get_parity                             C:\Users\USER\AppData\Local\arduino\cores\7bf7b0ebd1cd5824297d9ecc843c1978\core.a(usb_cdcacm.c.o)
usb_cdcacm_get_pending                            C:\Users\USER\AppData\Local\arduino\cores\7bf7b0ebd1cd5824297d9ecc843c1978\core.a(usb_cdcacm.c.o)
usb_cdcacm_get_rts                                C:\Users\USER\AppData\Local\arduino\cores\7bf7b0ebd1cd5824297d9ecc843c1978\core.a(usb_cdcacm.c.o)
usb_cdcacm_get_stop_bits                          C:\Users\USER\AppData\Local\arduino\cores\7bf7b0ebd1cd5824297d9ecc843c1978\core.a(usb_cdcacm.c.o)
usb_cdcacm_is_transmitting                        C:\Users\USER\AppData\Local\arduino\cores\7bf7b0ebd1cd5824297d9ecc843c1978\core.a(usb_cdcacm.c.o)
usb_cdcacm_peek                                   C:\Users\USER\AppData\Local\arduino\cores\7bf7b0ebd1cd5824297d9ecc843c1978\core.a(usb_cdcacm.c.o)
usb_cdcacm_peek_char                              C:\Users\USER\AppData\Local\arduino\cores\7bf7b0ebd1cd5824297d9ecc843c1978\core.a(usb_cdcacm.c.o)
usb_cdcacm_peek_ex                                C:\Users\USER\AppData\Local\arduino\cores\7bf7b0ebd1cd5824297d9ecc843c1978\core.a(usb_cdcacm.c.o)
usb_cdcacm_putc                                   C:\Users\USER\AppData\Local\arduino\cores\7bf7b0ebd1cd5824297d9ecc843c1978\core.a(usb_cdcacm.c.o)
usb_cdcacm_rx                                     C:\Users\USER\AppData\Local\arduino\cores\7bf7b0ebd1cd5824297d9ecc843c1978\core.a(usb_cdcacm.c.o)
usb_cdcacm_set_hooks                              C:\Users\USER\AppData\Local\arduino\cores\7bf7b0ebd1cd5824297d9ecc843c1978\core.a(usb_cdcacm.c.o)
usb_cdcacm_tx                                     C:\Users\USER\AppData\Local\arduino\cores\7bf7b0ebd1cd5824297d9ecc843c1978\core.a(usb_cdcacm.c.o)
usb_cdcacm_tx_available                           C:\Users\USER\AppData\Local\arduino\cores\7bf7b0ebd1cd5824297d9ecc843c1978\core.a(usb_cdcacm.c.o)
usb_init_usblib                                   C:\Users\USER\AppData\Local\arduino\cores\7bf7b0ebd1cd5824297d9ecc843c1978\core.a(usb.c.o)
                                                  C:\Users\USER\AppData\Local\arduino\cores\7bf7b0ebd1cd5824297d9ecc843c1978\core.a(usb_cdcacm.c.o)
usb_power_off                                     C:\Users\USER\AppData\Local\arduino\cores\7bf7b0ebd1cd5824297d9ecc843c1978\core.a(usb.c.o)
                                                  C:\Users\USER\AppData\Local\arduino\cores\7bf7b0ebd1cd5824297d9ecc843c1978\core.a(usb_cdcacm.c.o)
usb_set_ep_rx_count                               C:\Users\USER\AppData\Local\arduino\cores\7bf7b0ebd1cd5824297d9ecc843c1978\core.a(usb_reg_map.c.o)
                                                  C:\Users\USER\AppData\Local\arduino\cores\7bf7b0ebd1cd5824297d9ecc843c1978\core.a(usb_cdcacm.c.o)
vtable for HardwareSerial                         C:\Users\USER\AppData\Local\arduino\cores\7bf7b0ebd1cd5824297d9ecc843c1978\core.a(HardwareSerial.cpp.o)
vtable for Print                                  C:\Users\USER\AppData\Local\arduino\cores\7bf7b0ebd1cd5824297d9ecc843c1978\core.a(Print.cpp.o)
vtable for Stream                                 C:\Users\USER\AppData\Local\arduino\cores\7bf7b0ebd1cd5824297d9ecc843c1978\core.a(HardwareSerial.cpp.o)
wInterrupt_Mask                                   C:\Users\USER\AppData\Local\arduino\cores\7bf7b0ebd1cd5824297d9ecc843c1978\core.a(usb_init.c.o)
wait_for_state_change                             C:\Users\USER\AppData\Local\arduino\cores\7bf7b0ebd1cd5824297d9ecc843c1978\core.a(i2c.c.o)
wirish::priv::board_reset_pll()                   C:\Users\USER\AppData\Local\arduino\sketches\452188ACB23955C2F3838071FEF76B93\core\wirish\boards_setup.cpp.o
                                                  C:\Users\USER\AppData\Local\arduino\sketches\452188ACB23955C2F3838071FEF76B93\core\wirish\boards.cpp.o
wirish::priv::board_setup_clock_prescalers()      C:\Users\USER\AppData\Local\arduino\sketches\452188ACB23955C2F3838071FEF76B93\core\wirish\boards_setup.cpp.o
                                                  C:\Users\USER\AppData\Local\arduino\sketches\452188ACB23955C2F3838071FEF76B93\core\wirish\boards.cpp.o
wirish::priv::board_setup_gpio()                  C:\Users\USER\AppData\Local\arduino\sketches\452188ACB23955C2F3838071FEF76B93\core\wirish\boards_setup.cpp.o
                                                  C:\Users\USER\AppData\Local\arduino\sketches\452188ACB23955C2F3838071FEF76B93\core\wirish\boards.cpp.o
wirish::priv::board_setup_usb()                   C:\Users\USER\AppData\Local\arduino\sketches\452188ACB23955C2F3838071FEF76B93\core\wirish\boards_setup.cpp.o
                                                  C:\Users\USER\AppData\Local\arduino\sketches\452188ACB23955C2F3838071FEF76B93\core\wirish\boards.cpp.o
wirish::priv::series_init()                       C:\Users\USER\AppData\Local\arduino\sketches\452188ACB23955C2F3838071FEF76B93\core\wirish\boards_setup.cpp.o
                                                  C:\Users\USER\AppData\Local\arduino\sketches\452188ACB23955C2F3838071FEF76B93\core\wirish\boards.cpp.o
wirish::priv::w_adc_pre                           C:\Users\USER\AppData\Local\arduino\sketches\452188ACB23955C2F3838071FEF76B93\core\wirish\boards_setup.cpp.o
                                                  C:\Users\USER\AppData\Local\arduino\sketches\452188ACB23955C2F3838071FEF76B93\core\wirish\boards.cpp.o
wirish::priv::w_adc_smp                           C:\Users\USER\AppData\Local\arduino\sketches\452188ACB23955C2F3838071FEF76B93\core\wirish\boards_setup.cpp.o
                                                  C:\Users\USER\AppData\Local\arduino\sketches\452188ACB23955C2F3838071FEF76B93\core\wirish\boards.cpp.o
wirish::priv::w_board_pll_cfg                     C:\Users\USER\AppData\Local\arduino\sketches\452188ACB23955C2F3838071FEF76B93\core\wirish\boards_setup.cpp.o
                                                  C:\Users\USER\AppData\Local\arduino\sketches\452188ACB23955C2F3838071FEF76B93\core\wirish\boards.cpp.o
yield                                             C:\Users\USER\AppData\Local\arduino\cores\7bf7b0ebd1cd5824297d9ecc843c1978\core.a(hooks.c.o)
                                                  C:\Users\USER\AppData\Local\arduino\cores\7bf7b0ebd1cd5824297d9ecc843c1978\core.a(wirish_time.cpp.o)
